ARM GAS  C:\Users\Jeppe\AppData\Local\Temp\ccmrHzJ3.s 			page 1


   1              		.cpu cortex-m0
   2              		.fpu softvfp
   3              		.eabi_attribute 20, 1
   4              		.eabi_attribute 21, 1
   5              		.eabi_attribute 23, 3
   6              		.eabi_attribute 24, 1
   7              		.eabi_attribute 25, 1
   8              		.eabi_attribute 26, 1
   9              		.eabi_attribute 30, 6
  10              		.eabi_attribute 34, 0
  11              		.eabi_attribute 18, 4
  12              		.code	16
  13              		.file	"cyfitter_cfg.c"
  14              		.text
  15              	.Ltext0:
  16              		.cfi_sections	.debug_frame
  17              		.section	.text.CYMEMZERO,"ax",%progbits
  18              		.align	2
  19              		.code	16
  20              		.thumb_func
  21              		.type	CYMEMZERO, %function
  22              	CYMEMZERO:
  23              	.LFB0:
  24              		.file 1 ".\\Generated_Source\\PSoC4\\cyfitter_cfg.c"
   1:.\Generated_Source\PSoC4/cyfitter_cfg.c **** /*******************************************************************************
   2:.\Generated_Source\PSoC4/cyfitter_cfg.c **** * FILENAME: cyfitter_cfg.c
   3:.\Generated_Source\PSoC4/cyfitter_cfg.c **** * PSoC Creator  3.1 SP2
   4:.\Generated_Source\PSoC4/cyfitter_cfg.c **** *
   5:.\Generated_Source\PSoC4/cyfitter_cfg.c **** * Description:
   6:.\Generated_Source\PSoC4/cyfitter_cfg.c **** * This file is automatically generated by PSoC Creator with device 
   7:.\Generated_Source\PSoC4/cyfitter_cfg.c **** * initialization code.  Except for the user defined sections in
   8:.\Generated_Source\PSoC4/cyfitter_cfg.c **** * CyClockStartupError(), this file should not be modified.
   9:.\Generated_Source\PSoC4/cyfitter_cfg.c **** *
  10:.\Generated_Source\PSoC4/cyfitter_cfg.c **** ********************************************************************************
  11:.\Generated_Source\PSoC4/cyfitter_cfg.c **** * Copyright 2013, Cypress Semiconductor Corporation.  All rights reserved.
  12:.\Generated_Source\PSoC4/cyfitter_cfg.c **** * You may use this file only in accordance with the license, terms, conditions, 
  13:.\Generated_Source\PSoC4/cyfitter_cfg.c **** * disclaimers, and limitations in the end user license agreement accompanying 
  14:.\Generated_Source\PSoC4/cyfitter_cfg.c **** * the software package with which this file was provided.
  15:.\Generated_Source\PSoC4/cyfitter_cfg.c **** ********************************************************************************/
  16:.\Generated_Source\PSoC4/cyfitter_cfg.c **** 
  17:.\Generated_Source\PSoC4/cyfitter_cfg.c **** #include <string.h>
  18:.\Generated_Source\PSoC4/cyfitter_cfg.c **** #include <cytypes.h>
  19:.\Generated_Source\PSoC4/cyfitter_cfg.c **** #include <cydevice_trm.h>
  20:.\Generated_Source\PSoC4/cyfitter_cfg.c **** #include <cyfitter.h>
  21:.\Generated_Source\PSoC4/cyfitter_cfg.c **** #include <CyLib.h>
  22:.\Generated_Source\PSoC4/cyfitter_cfg.c **** #include <cyfitter_cfg.h>
  23:.\Generated_Source\PSoC4/cyfitter_cfg.c **** 
  24:.\Generated_Source\PSoC4/cyfitter_cfg.c **** 
  25:.\Generated_Source\PSoC4/cyfitter_cfg.c **** #if defined(__GNUC__) || defined(__ARMCC_VERSION)
  26:.\Generated_Source\PSoC4/cyfitter_cfg.c ****     #define CYPACKED 
  27:.\Generated_Source\PSoC4/cyfitter_cfg.c ****     #define CYPACKED_ATTR __attribute__ ((packed))
  28:.\Generated_Source\PSoC4/cyfitter_cfg.c ****     #define CYALIGNED __attribute__ ((aligned))
  29:.\Generated_Source\PSoC4/cyfitter_cfg.c ****     #define CY_CFG_UNUSED __attribute__ ((unused))
  30:.\Generated_Source\PSoC4/cyfitter_cfg.c ****     #define CY_CFG_SECTION __attribute__ ((section(".psocinit")))
  31:.\Generated_Source\PSoC4/cyfitter_cfg.c ****     
  32:.\Generated_Source\PSoC4/cyfitter_cfg.c ****     #if defined(__ARMCC_VERSION)
  33:.\Generated_Source\PSoC4/cyfitter_cfg.c ****         #define CY_CFG_MEMORY_BARRIER() __memory_changed()
ARM GAS  C:\Users\Jeppe\AppData\Local\Temp\ccmrHzJ3.s 			page 2


  34:.\Generated_Source\PSoC4/cyfitter_cfg.c ****     #else
  35:.\Generated_Source\PSoC4/cyfitter_cfg.c ****         #define CY_CFG_MEMORY_BARRIER() __sync_synchronize()
  36:.\Generated_Source\PSoC4/cyfitter_cfg.c ****     #endif
  37:.\Generated_Source\PSoC4/cyfitter_cfg.c ****     
  38:.\Generated_Source\PSoC4/cyfitter_cfg.c **** #elif defined(__ICCARM__)
  39:.\Generated_Source\PSoC4/cyfitter_cfg.c ****     #include <intrinsics.h>
  40:.\Generated_Source\PSoC4/cyfitter_cfg.c **** 
  41:.\Generated_Source\PSoC4/cyfitter_cfg.c ****     #define CYPACKED __packed
  42:.\Generated_Source\PSoC4/cyfitter_cfg.c ****     #define CYPACKED_ATTR 
  43:.\Generated_Source\PSoC4/cyfitter_cfg.c ****     #define CYALIGNED _Pragma("data_alignment=4")
  44:.\Generated_Source\PSoC4/cyfitter_cfg.c ****     #define CY_CFG_UNUSED _Pragma("diag_suppress=Pe177")
  45:.\Generated_Source\PSoC4/cyfitter_cfg.c ****     #define CY_CFG_SECTION _Pragma("location=\".psocinit\"")
  46:.\Generated_Source\PSoC4/cyfitter_cfg.c ****     
  47:.\Generated_Source\PSoC4/cyfitter_cfg.c ****     #define CY_CFG_MEMORY_BARRIER() __DMB()
  48:.\Generated_Source\PSoC4/cyfitter_cfg.c ****     
  49:.\Generated_Source\PSoC4/cyfitter_cfg.c **** #else
  50:.\Generated_Source\PSoC4/cyfitter_cfg.c ****     #error Unsupported toolchain
  51:.\Generated_Source\PSoC4/cyfitter_cfg.c **** #endif
  52:.\Generated_Source\PSoC4/cyfitter_cfg.c **** 
  53:.\Generated_Source\PSoC4/cyfitter_cfg.c **** 
  54:.\Generated_Source\PSoC4/cyfitter_cfg.c **** CY_CFG_UNUSED
  55:.\Generated_Source\PSoC4/cyfitter_cfg.c **** static void CYMEMZERO(void *s, size_t n);
  56:.\Generated_Source\PSoC4/cyfitter_cfg.c **** CY_CFG_UNUSED
  57:.\Generated_Source\PSoC4/cyfitter_cfg.c **** static void CYMEMZERO(void *s, size_t n)
  58:.\Generated_Source\PSoC4/cyfitter_cfg.c **** {
  25              		.loc 1 58 0
  26              		.cfi_startproc
  27 0000 80B5     		push	{r7, lr}
  28              		.cfi_def_cfa_offset 8
  29              		.cfi_offset 7, -8
  30              		.cfi_offset 14, -4
  31 0002 82B0     		sub	sp, sp, #8
  32              		.cfi_def_cfa_offset 16
  33 0004 00AF     		add	r7, sp, #0
  34              		.cfi_def_cfa_register 7
  35 0006 7860     		str	r0, [r7, #4]
  36 0008 3960     		str	r1, [r7]
  59:.\Generated_Source\PSoC4/cyfitter_cfg.c **** 	(void)memset(s, 0, n);
  37              		.loc 1 59 0
  38 000a 7A68     		ldr	r2, [r7, #4]
  39 000c 3B68     		ldr	r3, [r7]
  40 000e 101C     		mov	r0, r2
  41 0010 0021     		mov	r1, #0
  42 0012 1A1C     		mov	r2, r3
  43 0014 FFF7FEFF 		bl	memset
  60:.\Generated_Source\PSoC4/cyfitter_cfg.c **** }
  44              		.loc 1 60 0
  45 0018 BD46     		mov	sp, r7
  46 001a 02B0     		add	sp, sp, #8
  47              		@ sp needed
  48 001c 80BD     		pop	{r7, pc}
  49              		.cfi_endproc
  50              	.LFE0:
  51              		.size	CYMEMZERO, .-CYMEMZERO
  52 001e C046     		.section	.text.CYCONFIGCPY,"ax",%progbits
  53              		.align	2
  54              		.code	16
ARM GAS  C:\Users\Jeppe\AppData\Local\Temp\ccmrHzJ3.s 			page 3


  55              		.thumb_func
  56              		.type	CYCONFIGCPY, %function
  57              	CYCONFIGCPY:
  58              	.LFB1:
  61:.\Generated_Source\PSoC4/cyfitter_cfg.c **** CY_CFG_UNUSED
  62:.\Generated_Source\PSoC4/cyfitter_cfg.c **** static void CYCONFIGCPY(void *dest, const void *src, size_t n);
  63:.\Generated_Source\PSoC4/cyfitter_cfg.c **** CY_CFG_UNUSED
  64:.\Generated_Source\PSoC4/cyfitter_cfg.c **** static void CYCONFIGCPY(void *dest, const void *src, size_t n)
  65:.\Generated_Source\PSoC4/cyfitter_cfg.c **** {
  59              		.loc 1 65 0
  60              		.cfi_startproc
  61 0000 80B5     		push	{r7, lr}
  62              		.cfi_def_cfa_offset 8
  63              		.cfi_offset 7, -8
  64              		.cfi_offset 14, -4
  65 0002 84B0     		sub	sp, sp, #16
  66              		.cfi_def_cfa_offset 24
  67 0004 00AF     		add	r7, sp, #0
  68              		.cfi_def_cfa_register 7
  69 0006 F860     		str	r0, [r7, #12]
  70 0008 B960     		str	r1, [r7, #8]
  71 000a 7A60     		str	r2, [r7, #4]
  66:.\Generated_Source\PSoC4/cyfitter_cfg.c **** 	(void)memcpy(dest, src, n);
  72              		.loc 1 66 0
  73 000c F968     		ldr	r1, [r7, #12]
  74 000e BA68     		ldr	r2, [r7, #8]
  75 0010 7B68     		ldr	r3, [r7, #4]
  76 0012 081C     		mov	r0, r1
  77 0014 111C     		mov	r1, r2
  78 0016 1A1C     		mov	r2, r3
  79 0018 FFF7FEFF 		bl	memcpy
  67:.\Generated_Source\PSoC4/cyfitter_cfg.c **** }
  80              		.loc 1 67 0
  81 001c BD46     		mov	sp, r7
  82 001e 04B0     		add	sp, sp, #16
  83              		@ sp needed
  84 0020 80BD     		pop	{r7, pc}
  85              		.cfi_endproc
  86              	.LFE1:
  87              		.size	CYCONFIGCPY, .-CYCONFIGCPY
  88 0022 C046     		.section	.text.CYCONFIGCPYCODE,"ax",%progbits
  89              		.align	2
  90              		.code	16
  91              		.thumb_func
  92              		.type	CYCONFIGCPYCODE, %function
  93              	CYCONFIGCPYCODE:
  94              	.LFB2:
  68:.\Generated_Source\PSoC4/cyfitter_cfg.c **** CY_CFG_UNUSED
  69:.\Generated_Source\PSoC4/cyfitter_cfg.c **** static void CYCONFIGCPYCODE(void *dest, const void *src, size_t n);
  70:.\Generated_Source\PSoC4/cyfitter_cfg.c **** CY_CFG_UNUSED
  71:.\Generated_Source\PSoC4/cyfitter_cfg.c **** static void CYCONFIGCPYCODE(void *dest, const void *src, size_t n)
  72:.\Generated_Source\PSoC4/cyfitter_cfg.c **** {
  95              		.loc 1 72 0
  96              		.cfi_startproc
  97 0000 80B5     		push	{r7, lr}
  98              		.cfi_def_cfa_offset 8
  99              		.cfi_offset 7, -8
ARM GAS  C:\Users\Jeppe\AppData\Local\Temp\ccmrHzJ3.s 			page 4


 100              		.cfi_offset 14, -4
 101 0002 84B0     		sub	sp, sp, #16
 102              		.cfi_def_cfa_offset 24
 103 0004 00AF     		add	r7, sp, #0
 104              		.cfi_def_cfa_register 7
 105 0006 F860     		str	r0, [r7, #12]
 106 0008 B960     		str	r1, [r7, #8]
 107 000a 7A60     		str	r2, [r7, #4]
  73:.\Generated_Source\PSoC4/cyfitter_cfg.c **** 	(void)memcpy(dest, src, n);
 108              		.loc 1 73 0
 109 000c F968     		ldr	r1, [r7, #12]
 110 000e BA68     		ldr	r2, [r7, #8]
 111 0010 7B68     		ldr	r3, [r7, #4]
 112 0012 081C     		mov	r0, r1
 113 0014 111C     		mov	r1, r2
 114 0016 1A1C     		mov	r2, r3
 115 0018 FFF7FEFF 		bl	memcpy
  74:.\Generated_Source\PSoC4/cyfitter_cfg.c **** }
 116              		.loc 1 74 0
 117 001c BD46     		mov	sp, r7
 118 001e 04B0     		add	sp, sp, #16
 119              		@ sp needed
 120 0020 80BD     		pop	{r7, pc}
 121              		.cfi_endproc
 122              	.LFE2:
 123              		.size	CYCONFIGCPYCODE, .-CYCONFIGCPYCODE
 124 0022 C046     		.section	.text.cfg_write_bytes32,"ax",%progbits
 125              		.align	2
 126              		.code	16
 127              		.thumb_func
 128              		.type	cfg_write_bytes32, %function
 129              	cfg_write_bytes32:
 130              	.LFB3:
  75:.\Generated_Source\PSoC4/cyfitter_cfg.c **** 
  76:.\Generated_Source\PSoC4/cyfitter_cfg.c **** 
  77:.\Generated_Source\PSoC4/cyfitter_cfg.c **** 
  78:.\Generated_Source\PSoC4/cyfitter_cfg.c **** /* Clock startup error codes                                                   */
  79:.\Generated_Source\PSoC4/cyfitter_cfg.c **** #define CYCLOCKSTART_NO_ERROR    0u
  80:.\Generated_Source\PSoC4/cyfitter_cfg.c **** #define CYCLOCKSTART_XTAL_ERROR  1u
  81:.\Generated_Source\PSoC4/cyfitter_cfg.c **** #define CYCLOCKSTART_32KHZ_ERROR 2u
  82:.\Generated_Source\PSoC4/cyfitter_cfg.c **** #define CYCLOCKSTART_PLL_ERROR   3u
  83:.\Generated_Source\PSoC4/cyfitter_cfg.c **** 
  84:.\Generated_Source\PSoC4/cyfitter_cfg.c **** #ifdef CY_NEED_CYCLOCKSTARTUPERROR
  85:.\Generated_Source\PSoC4/cyfitter_cfg.c **** /*******************************************************************************
  86:.\Generated_Source\PSoC4/cyfitter_cfg.c **** * Function Name: CyClockStartupError
  87:.\Generated_Source\PSoC4/cyfitter_cfg.c **** ********************************************************************************
  88:.\Generated_Source\PSoC4/cyfitter_cfg.c **** * Summary:
  89:.\Generated_Source\PSoC4/cyfitter_cfg.c **** *  If an error is encountered during clock configuration (crystal startup error,
  90:.\Generated_Source\PSoC4/cyfitter_cfg.c **** *  PLL lock error, etc.), the system will end up here.  Unless reimplemented by
  91:.\Generated_Source\PSoC4/cyfitter_cfg.c **** *  the customer, this function will stop in an infinite loop.
  92:.\Generated_Source\PSoC4/cyfitter_cfg.c **** *
  93:.\Generated_Source\PSoC4/cyfitter_cfg.c **** * Parameters:
  94:.\Generated_Source\PSoC4/cyfitter_cfg.c **** *   void
  95:.\Generated_Source\PSoC4/cyfitter_cfg.c **** *
  96:.\Generated_Source\PSoC4/cyfitter_cfg.c **** * Return:
  97:.\Generated_Source\PSoC4/cyfitter_cfg.c **** *   void
  98:.\Generated_Source\PSoC4/cyfitter_cfg.c **** *
ARM GAS  C:\Users\Jeppe\AppData\Local\Temp\ccmrHzJ3.s 			page 5


  99:.\Generated_Source\PSoC4/cyfitter_cfg.c **** *******************************************************************************/
 100:.\Generated_Source\PSoC4/cyfitter_cfg.c **** CY_CFG_UNUSED
 101:.\Generated_Source\PSoC4/cyfitter_cfg.c **** static void CyClockStartupError(uint8 errorCode);
 102:.\Generated_Source\PSoC4/cyfitter_cfg.c **** CY_CFG_UNUSED
 103:.\Generated_Source\PSoC4/cyfitter_cfg.c **** static void CyClockStartupError(uint8 errorCode)
 104:.\Generated_Source\PSoC4/cyfitter_cfg.c **** {
 105:.\Generated_Source\PSoC4/cyfitter_cfg.c ****     /* To remove the compiler warning if errorCode not used.                */
 106:.\Generated_Source\PSoC4/cyfitter_cfg.c ****     errorCode = errorCode;
 107:.\Generated_Source\PSoC4/cyfitter_cfg.c **** 
 108:.\Generated_Source\PSoC4/cyfitter_cfg.c ****     /* `#START CyClockStartupError` */
 109:.\Generated_Source\PSoC4/cyfitter_cfg.c **** 
 110:.\Generated_Source\PSoC4/cyfitter_cfg.c ****     /* If we have a clock startup error (bad MHz crystal, PLL lock, etc.),  */
 111:.\Generated_Source\PSoC4/cyfitter_cfg.c ****     /* we will end up here to allow the customer to implement something to  */
 112:.\Generated_Source\PSoC4/cyfitter_cfg.c ****     /* deal with the clock condition.                                       */
 113:.\Generated_Source\PSoC4/cyfitter_cfg.c **** 
 114:.\Generated_Source\PSoC4/cyfitter_cfg.c ****     /* `#END` */
 115:.\Generated_Source\PSoC4/cyfitter_cfg.c **** 
 116:.\Generated_Source\PSoC4/cyfitter_cfg.c ****     /* If nothing else, stop here since the clocks have not started         */
 117:.\Generated_Source\PSoC4/cyfitter_cfg.c ****     /* correctly.                                                           */
 118:.\Generated_Source\PSoC4/cyfitter_cfg.c ****     while(1) {}
 119:.\Generated_Source\PSoC4/cyfitter_cfg.c **** }
 120:.\Generated_Source\PSoC4/cyfitter_cfg.c **** #endif
 121:.\Generated_Source\PSoC4/cyfitter_cfg.c **** 
 122:.\Generated_Source\PSoC4/cyfitter_cfg.c **** #define CY_CFG_BASE_ADDR_COUNT 10u
 123:.\Generated_Source\PSoC4/cyfitter_cfg.c **** CYPACKED typedef struct
 124:.\Generated_Source\PSoC4/cyfitter_cfg.c **** {
 125:.\Generated_Source\PSoC4/cyfitter_cfg.c **** 	uint8 offset;
 126:.\Generated_Source\PSoC4/cyfitter_cfg.c **** 	uint8 value;
 127:.\Generated_Source\PSoC4/cyfitter_cfg.c **** } CYPACKED_ATTR cy_cfg_addrvalue_t;
 128:.\Generated_Source\PSoC4/cyfitter_cfg.c **** 
 129:.\Generated_Source\PSoC4/cyfitter_cfg.c **** 
 130:.\Generated_Source\PSoC4/cyfitter_cfg.c **** 
 131:.\Generated_Source\PSoC4/cyfitter_cfg.c **** /*******************************************************************************
 132:.\Generated_Source\PSoC4/cyfitter_cfg.c **** * Function Name: cfg_write_bytes32
 133:.\Generated_Source\PSoC4/cyfitter_cfg.c **** ********************************************************************************
 134:.\Generated_Source\PSoC4/cyfitter_cfg.c **** * Summary:
 135:.\Generated_Source\PSoC4/cyfitter_cfg.c **** *  This function is used for setting up the chip configuration areas that
 136:.\Generated_Source\PSoC4/cyfitter_cfg.c **** *  contain relatively sparse data.
 137:.\Generated_Source\PSoC4/cyfitter_cfg.c **** *
 138:.\Generated_Source\PSoC4/cyfitter_cfg.c **** * Parameters:
 139:.\Generated_Source\PSoC4/cyfitter_cfg.c **** *   void
 140:.\Generated_Source\PSoC4/cyfitter_cfg.c **** *
 141:.\Generated_Source\PSoC4/cyfitter_cfg.c **** * Return:
 142:.\Generated_Source\PSoC4/cyfitter_cfg.c **** *   void
 143:.\Generated_Source\PSoC4/cyfitter_cfg.c **** *
 144:.\Generated_Source\PSoC4/cyfitter_cfg.c **** *******************************************************************************/
 145:.\Generated_Source\PSoC4/cyfitter_cfg.c **** static void cfg_write_bytes32(const uint32 addr_table[], const cy_cfg_addrvalue_t data_table[]);
 146:.\Generated_Source\PSoC4/cyfitter_cfg.c **** static void cfg_write_bytes32(const uint32 addr_table[], const cy_cfg_addrvalue_t data_table[])
 147:.\Generated_Source\PSoC4/cyfitter_cfg.c **** {
 131              		.loc 1 147 0
 132              		.cfi_startproc
 133 0000 80B5     		push	{r7, lr}
 134              		.cfi_def_cfa_offset 8
 135              		.cfi_offset 7, -8
 136              		.cfi_offset 14, -4
 137 0002 86B0     		sub	sp, sp, #24
 138              		.cfi_def_cfa_offset 32
ARM GAS  C:\Users\Jeppe\AppData\Local\Temp\ccmrHzJ3.s 			page 6


 139 0004 00AF     		add	r7, sp, #0
 140              		.cfi_def_cfa_register 7
 141 0006 7860     		str	r0, [r7, #4]
 142 0008 3960     		str	r1, [r7]
 148:.\Generated_Source\PSoC4/cyfitter_cfg.c **** 	/* For 32-bit little-endian architectures */
 149:.\Generated_Source\PSoC4/cyfitter_cfg.c **** 	uint32 i, j = 0u;
 143              		.loc 1 149 0
 144 000a 0023     		mov	r3, #0
 145 000c 3B61     		str	r3, [r7, #16]
 150:.\Generated_Source\PSoC4/cyfitter_cfg.c **** 	for (i = 0u; i < CY_CFG_BASE_ADDR_COUNT; i++)
 146              		.loc 1 150 0
 147 000e 0023     		mov	r3, #0
 148 0010 7B61     		str	r3, [r7, #20]
 149 0012 2EE0     		b	.L5
 150              	.L8:
 151              	.LBB2:
 151:.\Generated_Source\PSoC4/cyfitter_cfg.c **** 	{
 152:.\Generated_Source\PSoC4/cyfitter_cfg.c **** 		uint32 baseAddr = addr_table[i];
 152              		.loc 1 152 0
 153 0014 7B69     		ldr	r3, [r7, #20]
 154 0016 9B00     		lsl	r3, r3, #2
 155 0018 7A68     		ldr	r2, [r7, #4]
 156 001a D318     		add	r3, r2, r3
 157 001c 1B68     		ldr	r3, [r3]
 158 001e BB60     		str	r3, [r7, #8]
 153:.\Generated_Source\PSoC4/cyfitter_cfg.c **** 		uint8 count = (uint8)baseAddr;
 159              		.loc 1 153 0
 160 0020 3B1C     		mov	r3, r7
 161 0022 0F33     		add	r3, r3, #15
 162 0024 BA68     		ldr	r2, [r7, #8]
 163 0026 1A70     		strb	r2, [r3]
 154:.\Generated_Source\PSoC4/cyfitter_cfg.c **** 		baseAddr &= 0xFFFFFF00u;
 164              		.loc 1 154 0
 165 0028 BB68     		ldr	r3, [r7, #8]
 166 002a FF22     		mov	r2, #255
 167 002c 9343     		bic	r3, r2
 168 002e BB60     		str	r3, [r7, #8]
 155:.\Generated_Source\PSoC4/cyfitter_cfg.c **** 		while (count != 0u)
 169              		.loc 1 155 0
 170 0030 17E0     		b	.L6
 171              	.L7:
 156:.\Generated_Source\PSoC4/cyfitter_cfg.c **** 		{
 157:.\Generated_Source\PSoC4/cyfitter_cfg.c **** 			CY_SET_XTND_REG8((void CYFAR *)(baseAddr + data_table[j].offset), data_table[j].value);
 172              		.loc 1 157 0
 173 0032 3B69     		ldr	r3, [r7, #16]
 174 0034 5B00     		lsl	r3, r3, #1
 175 0036 3A68     		ldr	r2, [r7]
 176 0038 D318     		add	r3, r2, r3
 177 003a 1B78     		ldrb	r3, [r3]
 178 003c 1A1C     		mov	r2, r3
 179 003e BB68     		ldr	r3, [r7, #8]
 180 0040 D318     		add	r3, r2, r3
 181 0042 3A69     		ldr	r2, [r7, #16]
 182 0044 5200     		lsl	r2, r2, #1
 183 0046 3968     		ldr	r1, [r7]
 184 0048 8A18     		add	r2, r1, r2
 185 004a 5278     		ldrb	r2, [r2, #1]
ARM GAS  C:\Users\Jeppe\AppData\Local\Temp\ccmrHzJ3.s 			page 7


 186 004c 1A70     		strb	r2, [r3]
 158:.\Generated_Source\PSoC4/cyfitter_cfg.c **** 			j++;
 187              		.loc 1 158 0
 188 004e 3B69     		ldr	r3, [r7, #16]
 189 0050 0133     		add	r3, r3, #1
 190 0052 3B61     		str	r3, [r7, #16]
 159:.\Generated_Source\PSoC4/cyfitter_cfg.c **** 			count--;
 191              		.loc 1 159 0
 192 0054 3B1C     		mov	r3, r7
 193 0056 0F33     		add	r3, r3, #15
 194 0058 1A78     		ldrb	r2, [r3]
 195 005a 3B1C     		mov	r3, r7
 196 005c 0F33     		add	r3, r3, #15
 197 005e 013A     		sub	r2, r2, #1
 198 0060 1A70     		strb	r2, [r3]
 199              	.L6:
 155:.\Generated_Source\PSoC4/cyfitter_cfg.c **** 		while (count != 0u)
 200              		.loc 1 155 0 discriminator 1
 201 0062 3B1C     		mov	r3, r7
 202 0064 0F33     		add	r3, r3, #15
 203 0066 1B78     		ldrb	r3, [r3]
 204 0068 002B     		cmp	r3, #0
 205 006a E2D1     		bne	.L7
 206              	.LBE2:
 150:.\Generated_Source\PSoC4/cyfitter_cfg.c **** 	for (i = 0u; i < CY_CFG_BASE_ADDR_COUNT; i++)
 207              		.loc 1 150 0
 208 006c 7B69     		ldr	r3, [r7, #20]
 209 006e 0133     		add	r3, r3, #1
 210 0070 7B61     		str	r3, [r7, #20]
 211              	.L5:
 150:.\Generated_Source\PSoC4/cyfitter_cfg.c **** 	for (i = 0u; i < CY_CFG_BASE_ADDR_COUNT; i++)
 212              		.loc 1 150 0 is_stmt 0 discriminator 1
 213 0072 7B69     		ldr	r3, [r7, #20]
 214 0074 092B     		cmp	r3, #9
 215 0076 CDD9     		bls	.L8
 160:.\Generated_Source\PSoC4/cyfitter_cfg.c **** 		}
 161:.\Generated_Source\PSoC4/cyfitter_cfg.c **** 	}
 162:.\Generated_Source\PSoC4/cyfitter_cfg.c **** }
 216              		.loc 1 162 0 is_stmt 1
 217 0078 BD46     		mov	sp, r7
 218 007a 06B0     		add	sp, sp, #24
 219              		@ sp needed
 220 007c 80BD     		pop	{r7, pc}
 221              		.cfi_endproc
 222              	.LFE3:
 223              		.size	cfg_write_bytes32, .-cfg_write_bytes32
 224 007e C046     		.section	.psocinit,"ax",%progbits
 225              		.align	2
 226              		.code	16
 227              		.thumb_func
 228              		.type	SetIMOBGTrims, %function
 229              	SetIMOBGTrims:
 230              	.LFB4:
 163:.\Generated_Source\PSoC4/cyfitter_cfg.c **** 
 164:.\Generated_Source\PSoC4/cyfitter_cfg.c **** /*******************************************************************************
 165:.\Generated_Source\PSoC4/cyfitter_cfg.c **** * Function Name: SetIMOBGTrims
 166:.\Generated_Source\PSoC4/cyfitter_cfg.c **** ********************************************************************************
ARM GAS  C:\Users\Jeppe\AppData\Local\Temp\ccmrHzJ3.s 			page 8


 167:.\Generated_Source\PSoC4/cyfitter_cfg.c **** *
 168:.\Generated_Source\PSoC4/cyfitter_cfg.c **** * Summary:
 169:.\Generated_Source\PSoC4/cyfitter_cfg.c **** *   Performs the configuration of the bandgap trim for the IMO based on the given
 170:.\Generated_Source\PSoC4/cyfitter_cfg.c **** *   expected frequency of the IMO. 
 171:.\Generated_Source\PSoC4/cyfitter_cfg.c **** *
 172:.\Generated_Source\PSoC4/cyfitter_cfg.c **** * Parameters:
 173:.\Generated_Source\PSoC4/cyfitter_cfg.c **** *   imoFreq: Frequency for operation of the IMO.
 174:.\Generated_Source\PSoC4/cyfitter_cfg.c **** *
 175:.\Generated_Source\PSoC4/cyfitter_cfg.c **** * Return:
 176:.\Generated_Source\PSoC4/cyfitter_cfg.c **** *   void
 177:.\Generated_Source\PSoC4/cyfitter_cfg.c **** *
 178:.\Generated_Source\PSoC4/cyfitter_cfg.c **** *******************************************************************************/
 179:.\Generated_Source\PSoC4/cyfitter_cfg.c **** static void SetIMOBGTrims(uint8 imoFreq);
 180:.\Generated_Source\PSoC4/cyfitter_cfg.c **** CY_CFG_SECTION
 181:.\Generated_Source\PSoC4/cyfitter_cfg.c **** static void SetIMOBGTrims(uint8 imoFreq)
 182:.\Generated_Source\PSoC4/cyfitter_cfg.c **** {
 231              		.loc 1 182 0
 232              		.cfi_startproc
 233 0000 80B5     		push	{r7, lr}
 234              		.cfi_def_cfa_offset 8
 235              		.cfi_offset 7, -8
 236              		.cfi_offset 14, -4
 237 0002 84B0     		sub	sp, sp, #16
 238              		.cfi_def_cfa_offset 24
 239 0004 00AF     		add	r7, sp, #0
 240              		.cfi_def_cfa_register 7
 241 0006 021C     		mov	r2, r0
 242 0008 FB1D     		add	r3, r7, #7
 243 000a 1A70     		strb	r2, [r3]
 183:.\Generated_Source\PSoC4/cyfitter_cfg.c **** 	CYPACKED typedef struct {
 184:.\Generated_Source\PSoC4/cyfitter_cfg.c **** 		uint8 freq;
 185:.\Generated_Source\PSoC4/cyfitter_cfg.c **** 		uint8 absolute;
 186:.\Generated_Source\PSoC4/cyfitter_cfg.c **** 		uint8 tmpco;
 187:.\Generated_Source\PSoC4/cyfitter_cfg.c **** 	} CYPACKED_ATTR imo_trim_entry_t;
 188:.\Generated_Source\PSoC4/cyfitter_cfg.c **** 
 189:.\Generated_Source\PSoC4/cyfitter_cfg.c **** 	CYPACKED typedef struct {
 190:.\Generated_Source\PSoC4/cyfitter_cfg.c **** 		imo_trim_entry_t entries[4];
 191:.\Generated_Source\PSoC4/cyfitter_cfg.c **** 	} CYPACKED_ATTR imo_trim_table_t;
 192:.\Generated_Source\PSoC4/cyfitter_cfg.c **** 
 193:.\Generated_Source\PSoC4/cyfitter_cfg.c **** 	static const imo_trim_table_t *imo_trim_table = (const imo_trim_table_t *)CYREG_SFLASH_IMO_MAXF0;
 194:.\Generated_Source\PSoC4/cyfitter_cfg.c **** 	static const uint32 IMO_TRIM_FREQ_TABLE_ENTRIES = sizeof(imo_trim_table->entries)/sizeof(imo_trim_
 195:.\Generated_Source\PSoC4/cyfitter_cfg.c **** 
 196:.\Generated_Source\PSoC4/cyfitter_cfg.c **** 	int32 imoTrimIndex;
 197:.\Generated_Source\PSoC4/cyfitter_cfg.c **** 	uint8 setAbs;
 198:.\Generated_Source\PSoC4/cyfitter_cfg.c **** 	uint8 setTmpCo;
 199:.\Generated_Source\PSoC4/cyfitter_cfg.c **** 
 200:.\Generated_Source\PSoC4/cyfitter_cfg.c **** 	/* Traverse the SFLASH IMO frequency-dependent bandgap trim table to
 201:.\Generated_Source\PSoC4/cyfitter_cfg.c **** 	 * locate the appropriate value to trim the IMO bandgap based on freq. */
 202:.\Generated_Source\PSoC4/cyfitter_cfg.c **** 	setAbs = CY_GET_REG8((const void *)CYREG_SFLASH_IMO_ABS4);
 244              		.loc 1 202 0
 245 000c 204A     		ldr	r2, .L13
 246 000e 3B1C     		mov	r3, r7
 247 0010 0B33     		add	r3, r3, #11
 248 0012 1278     		ldrb	r2, [r2]
 249 0014 1A70     		strb	r2, [r3]
 203:.\Generated_Source\PSoC4/cyfitter_cfg.c **** 	setTmpCo = CY_GET_REG8((const void *)CYREG_SFLASH_IMO_TMPCO4);
 250              		.loc 1 203 0
ARM GAS  C:\Users\Jeppe\AppData\Local\Temp\ccmrHzJ3.s 			page 9


 251 0016 1F4A     		ldr	r2, .L13+4
 252 0018 3B1C     		mov	r3, r7
 253 001a 0A33     		add	r3, r3, #10
 254 001c 1278     		ldrb	r2, [r2]
 255 001e 1A70     		strb	r2, [r3]
 204:.\Generated_Source\PSoC4/cyfitter_cfg.c **** 	for (imoTrimIndex = ((int32)IMO_TRIM_FREQ_TABLE_ENTRIES)-1;
 256              		.loc 1 204 0
 257 0020 0423     		mov	r3, #4
 258 0022 013B     		sub	r3, r3, #1
 259 0024 FB60     		str	r3, [r7, #12]
 260 0026 18E0     		b	.L10
 261              	.L12:
 205:.\Generated_Source\PSoC4/cyfitter_cfg.c **** 	     (imoTrimIndex >= 0) && (imoFreq <= imo_trim_table->entries[imoTrimIndex].freq);
 206:.\Generated_Source\PSoC4/cyfitter_cfg.c **** 	     imoTrimIndex--)
 207:.\Generated_Source\PSoC4/cyfitter_cfg.c **** 	{
 208:.\Generated_Source\PSoC4/cyfitter_cfg.c **** 		setAbs = imo_trim_table->entries[imoTrimIndex].absolute;
 262              		.loc 1 208 0
 263 0028 1B4B     		ldr	r3, .L13+8
 264 002a 1868     		ldr	r0, [r3]
 265 002c 391C     		mov	r1, r7
 266 002e 0B31     		add	r1, r1, #11
 267 0030 FA68     		ldr	r2, [r7, #12]
 268 0032 131C     		mov	r3, r2
 269 0034 5B00     		lsl	r3, r3, #1
 270 0036 9B18     		add	r3, r3, r2
 271 0038 C318     		add	r3, r0, r3
 272 003a 5B78     		ldrb	r3, [r3, #1]
 273 003c 0B70     		strb	r3, [r1]
 209:.\Generated_Source\PSoC4/cyfitter_cfg.c **** 		setTmpCo = imo_trim_table->entries[imoTrimIndex].tmpco;
 274              		.loc 1 209 0
 275 003e 164B     		ldr	r3, .L13+8
 276 0040 1868     		ldr	r0, [r3]
 277 0042 391C     		mov	r1, r7
 278 0044 0A31     		add	r1, r1, #10
 279 0046 FA68     		ldr	r2, [r7, #12]
 280 0048 131C     		mov	r3, r2
 281 004a 5B00     		lsl	r3, r3, #1
 282 004c 9B18     		add	r3, r3, r2
 283 004e C318     		add	r3, r0, r3
 284 0050 9B78     		ldrb	r3, [r3, #2]
 285 0052 0B70     		strb	r3, [r1]
 206:.\Generated_Source\PSoC4/cyfitter_cfg.c **** 	     imoTrimIndex--)
 286              		.loc 1 206 0
 287 0054 FB68     		ldr	r3, [r7, #12]
 288 0056 013B     		sub	r3, r3, #1
 289 0058 FB60     		str	r3, [r7, #12]
 290              	.L10:
 204:.\Generated_Source\PSoC4/cyfitter_cfg.c **** 	for (imoTrimIndex = ((int32)IMO_TRIM_FREQ_TABLE_ENTRIES)-1;
 291              		.loc 1 204 0 discriminator 1
 292 005a FB68     		ldr	r3, [r7, #12]
 293 005c 002B     		cmp	r3, #0
 294 005e 0ADB     		blt	.L11
 205:.\Generated_Source\PSoC4/cyfitter_cfg.c **** 	     (imoTrimIndex >= 0) && (imoFreq <= imo_trim_table->entries[imoTrimIndex].freq);
 295              		.loc 1 205 0
 296 0060 0D4B     		ldr	r3, .L13+8
 297 0062 1968     		ldr	r1, [r3]
 298 0064 FA68     		ldr	r2, [r7, #12]
ARM GAS  C:\Users\Jeppe\AppData\Local\Temp\ccmrHzJ3.s 			page 10


 299 0066 131C     		mov	r3, r2
 300 0068 5B00     		lsl	r3, r3, #1
 301 006a 9B18     		add	r3, r3, r2
 302 006c 5B5C     		ldrb	r3, [r3, r1]
 303 006e FA1D     		add	r2, r7, #7
 304 0070 1278     		ldrb	r2, [r2]
 305 0072 9A42     		cmp	r2, r3
 306 0074 D8D9     		bls	.L12
 307              	.L11:
 210:.\Generated_Source\PSoC4/cyfitter_cfg.c **** 	}
 211:.\Generated_Source\PSoC4/cyfitter_cfg.c **** 
 212:.\Generated_Source\PSoC4/cyfitter_cfg.c **** 	CY_SET_REG32((void *)CYREG_PWR_BG_TRIM4, setAbs);
 308              		.loc 1 212 0
 309 0076 094B     		ldr	r3, .L13+12
 310 0078 3A1C     		mov	r2, r7
 311 007a 0B32     		add	r2, r2, #11
 312 007c 1278     		ldrb	r2, [r2]
 313 007e 1A60     		str	r2, [r3]
 213:.\Generated_Source\PSoC4/cyfitter_cfg.c **** 	CY_SET_REG32((void *)CYREG_PWR_BG_TRIM5, setTmpCo);
 314              		.loc 1 213 0
 315 0080 074B     		ldr	r3, .L13+16
 316 0082 3A1C     		mov	r2, r7
 317 0084 0A32     		add	r2, r2, #10
 318 0086 1278     		ldrb	r2, [r2]
 319 0088 1A60     		str	r2, [r3]
 214:.\Generated_Source\PSoC4/cyfitter_cfg.c **** }
 320              		.loc 1 214 0
 321 008a BD46     		mov	sp, r7
 322 008c 04B0     		add	sp, sp, #16
 323              		@ sp needed
 324 008e 80BD     		pop	{r7, pc}
 325              	.L14:
 326              		.align	2
 327              	.L13:
 328 0090 CCF1FF0F 		.word	268431820
 329 0094 CDF1FF0F 		.word	268431821
 330 0098 00000000 		.word	imo_trim_table.4708
 331 009c 1CFF0B40 		.word	1074528028
 332 00a0 20FF0B40 		.word	1074528032
 333              		.cfi_endproc
 334              	.LFE4:
 335              		.size	SetIMOBGTrims, .-SetIMOBGTrims
 336              		.align	2
 337              		.code	16
 338              		.thumb_func
 339              		.type	ClockSetup, %function
 340              	ClockSetup:
 341              	.LFB5:
 215:.\Generated_Source\PSoC4/cyfitter_cfg.c **** 
 216:.\Generated_Source\PSoC4/cyfitter_cfg.c **** 
 217:.\Generated_Source\PSoC4/cyfitter_cfg.c **** 
 218:.\Generated_Source\PSoC4/cyfitter_cfg.c **** /*******************************************************************************
 219:.\Generated_Source\PSoC4/cyfitter_cfg.c **** * Function Name: ClockSetup
 220:.\Generated_Source\PSoC4/cyfitter_cfg.c **** ********************************************************************************
 221:.\Generated_Source\PSoC4/cyfitter_cfg.c **** *
 222:.\Generated_Source\PSoC4/cyfitter_cfg.c **** * Summary:
 223:.\Generated_Source\PSoC4/cyfitter_cfg.c **** *   Performs the initialization of all of the clocks in the device based on the
ARM GAS  C:\Users\Jeppe\AppData\Local\Temp\ccmrHzJ3.s 			page 11


 224:.\Generated_Source\PSoC4/cyfitter_cfg.c **** *   settings in the Clock tab of the DWR.  This includes enabling the requested
 225:.\Generated_Source\PSoC4/cyfitter_cfg.c **** *   clocks and setting the necessary dividers to produce the desired frequency. 
 226:.\Generated_Source\PSoC4/cyfitter_cfg.c **** *
 227:.\Generated_Source\PSoC4/cyfitter_cfg.c **** * Parameters:
 228:.\Generated_Source\PSoC4/cyfitter_cfg.c **** *   void
 229:.\Generated_Source\PSoC4/cyfitter_cfg.c **** *
 230:.\Generated_Source\PSoC4/cyfitter_cfg.c **** * Return:
 231:.\Generated_Source\PSoC4/cyfitter_cfg.c **** *   void
 232:.\Generated_Source\PSoC4/cyfitter_cfg.c **** *
 233:.\Generated_Source\PSoC4/cyfitter_cfg.c **** *******************************************************************************/
 234:.\Generated_Source\PSoC4/cyfitter_cfg.c **** static void ClockSetup(void);
 235:.\Generated_Source\PSoC4/cyfitter_cfg.c **** CY_CFG_SECTION
 236:.\Generated_Source\PSoC4/cyfitter_cfg.c **** static void ClockSetup(void)
 237:.\Generated_Source\PSoC4/cyfitter_cfg.c **** {
 342              		.loc 1 237 0
 343              		.cfi_startproc
 344 00a4 80B5     		push	{r7, lr}
 345              		.cfi_def_cfa_offset 8
 346              		.cfi_offset 7, -8
 347              		.cfi_offset 14, -4
 348 00a6 00AF     		add	r7, sp, #0
 349              		.cfi_def_cfa_register 7
 238:.\Generated_Source\PSoC4/cyfitter_cfg.c **** 	/* Enable HALF_EN before trimming for the flash accelerator. */
 239:.\Generated_Source\PSoC4/cyfitter_cfg.c **** 	CY_SET_REG32((void CYXDATA *)(CYREG_CLK_SELECT), (CY_GET_REG32((void *)CYREG_CLK_SELECT) | 0x00040
 350              		.loc 1 239 0
 351 00a8 224B     		ldr	r3, .L16
 352 00aa 224A     		ldr	r2, .L16
 353 00ac 1268     		ldr	r2, [r2]
 354 00ae 8021     		mov	r1, #128
 355 00b0 C902     		lsl	r1, r1, #11
 356 00b2 0A43     		orr	r2, r1
 357 00b4 1A60     		str	r2, [r3]
 240:.\Generated_Source\PSoC4/cyfitter_cfg.c **** 
 241:.\Generated_Source\PSoC4/cyfitter_cfg.c **** 	/* Trim IMO BG based on desired frequency. */
 242:.\Generated_Source\PSoC4/cyfitter_cfg.c **** 	SetIMOBGTrims(24u);
 358              		.loc 1 242 0
 359 00b6 1820     		mov	r0, #24
 360 00b8 FFF7A2FF 		bl	SetIMOBGTrims
 243:.\Generated_Source\PSoC4/cyfitter_cfg.c **** 
 244:.\Generated_Source\PSoC4/cyfitter_cfg.c **** 	/* Going less than or equal to 24MHz, so update the clock speed then adjust trim value. */
 245:.\Generated_Source\PSoC4/cyfitter_cfg.c **** 	CY_SET_REG32((void CYXDATA *)(CYREG_CLK_IMO_TRIM2), (25u));
 361              		.loc 1 245 0
 362 00bc 1E4B     		ldr	r3, .L16+4
 363 00be 1922     		mov	r2, #25
 364 00c0 1A60     		str	r2, [r3]
 246:.\Generated_Source\PSoC4/cyfitter_cfg.c **** 	CyDelayCycles(5u);
 365              		.loc 1 246 0
 366 00c2 0520     		mov	r0, #5
 367 00c4 FFF7FEFF 		bl	CyDelayCycles
 247:.\Generated_Source\PSoC4/cyfitter_cfg.c **** 	CY_SET_REG32((void CYXDATA *)(CYREG_CLK_IMO_TRIM1), (CY_GET_REG8((void *)CYREG_SFLASH_IMO_TRIM21))
 368              		.loc 1 247 0
 369 00c8 1C4B     		ldr	r3, .L16+8
 370 00ca 1D4A     		ldr	r2, .L16+12
 371 00cc 1278     		ldrb	r2, [r2]
 372 00ce D2B2     		uxtb	r2, r2
 373 00d0 1A60     		str	r2, [r3]
 248:.\Generated_Source\PSoC4/cyfitter_cfg.c **** 	CyDelayUs(5u);
ARM GAS  C:\Users\Jeppe\AppData\Local\Temp\ccmrHzJ3.s 			page 12


 374              		.loc 1 248 0
 375 00d2 0520     		mov	r0, #5
 376 00d4 FFF7FEFF 		bl	CyDelayUs
 249:.\Generated_Source\PSoC4/cyfitter_cfg.c **** 
 250:.\Generated_Source\PSoC4/cyfitter_cfg.c **** 	/* Disable HALF_EN since it is not required at this IMO frequency. */
 251:.\Generated_Source\PSoC4/cyfitter_cfg.c **** 	CY_SET_REG32((void CYXDATA *)(CYREG_CLK_SELECT), (CY_GET_REG32((void *)CYREG_CLK_SELECT) & 0xFFFBF
 377              		.loc 1 251 0
 378 00d8 164B     		ldr	r3, .L16
 379 00da 164A     		ldr	r2, .L16
 380 00dc 1168     		ldr	r1, [r2]
 381 00de 194A     		ldr	r2, .L16+16
 382 00e0 0A40     		and	r2, r1
 383 00e2 1A60     		str	r2, [r3]
 252:.\Generated_Source\PSoC4/cyfitter_cfg.c **** 	/* CYDEV_CLK_ILO_CONFIG Starting address: CYDEV_CLK_ILO_CONFIG */
 253:.\Generated_Source\PSoC4/cyfitter_cfg.c **** 	CY_SET_XTND_REG32((void CYFAR *)(CYREG_CLK_ILO_CONFIG), 0x80000006u);
 384              		.loc 1 253 0
 385 00e4 184B     		ldr	r3, .L16+20
 386 00e6 194A     		ldr	r2, .L16+24
 387 00e8 1A60     		str	r2, [r3]
 254:.\Generated_Source\PSoC4/cyfitter_cfg.c **** 
 255:.\Generated_Source\PSoC4/cyfitter_cfg.c **** 
 256:.\Generated_Source\PSoC4/cyfitter_cfg.c **** 	/* CYDEV_CLK_SELECT00 Starting address: CYDEV_CLK_SELECT00 */
 257:.\Generated_Source\PSoC4/cyfitter_cfg.c **** 	CY_SET_XTND_REG32((void CYFAR *)(CYREG_CLK_SELECT02), 0x00000030u);
 388              		.loc 1 257 0
 389 00ea 194B     		ldr	r3, .L16+28
 390 00ec 3022     		mov	r2, #48
 391 00ee 1A60     		str	r2, [r3]
 258:.\Generated_Source\PSoC4/cyfitter_cfg.c **** 	CY_SET_XTND_REG32((void CYFAR *)(CYREG_CLK_SELECT03), 0x00000010u);
 392              		.loc 1 258 0
 393 00f0 184B     		ldr	r3, .L16+32
 394 00f2 1022     		mov	r2, #16
 395 00f4 1A60     		str	r2, [r3]
 259:.\Generated_Source\PSoC4/cyfitter_cfg.c **** 	CY_SET_XTND_REG32((void CYFAR *)(CYREG_CLK_SELECT13), 0x00000020u);
 396              		.loc 1 259 0
 397 00f6 184B     		ldr	r3, .L16+36
 398 00f8 2022     		mov	r2, #32
 399 00fa 1A60     		str	r2, [r3]
 260:.\Generated_Source\PSoC4/cyfitter_cfg.c **** 	CY_SET_XTND_REG32((void CYFAR *)(CYREG_CLK_SELECT14), 0x00000021u);
 400              		.loc 1 260 0
 401 00fc 174B     		ldr	r3, .L16+40
 402 00fe 2122     		mov	r2, #33
 403 0100 1A60     		str	r2, [r3]
 261:.\Generated_Source\PSoC4/cyfitter_cfg.c **** 	CY_SET_XTND_REG32((void CYFAR *)(CYREG_CLK_SELECT15), 0x00000011u);
 404              		.loc 1 261 0
 405 0102 174B     		ldr	r3, .L16+44
 406 0104 1122     		mov	r2, #17
 407 0106 1A60     		str	r2, [r3]
 262:.\Generated_Source\PSoC4/cyfitter_cfg.c **** 
 263:.\Generated_Source\PSoC4/cyfitter_cfg.c **** 	/* CYDEV_CLK_IMO_CONFIG Starting address: CYDEV_CLK_IMO_CONFIG */
 264:.\Generated_Source\PSoC4/cyfitter_cfg.c **** 	CY_SET_XTND_REG32((void CYFAR *)(CYREG_CLK_IMO_CONFIG), 0x80000000u);
 408              		.loc 1 264 0
 409 0108 164B     		ldr	r3, .L16+48
 410 010a 8022     		mov	r2, #128
 411 010c 1206     		lsl	r2, r2, #24
 412 010e 1A60     		str	r2, [r3]
 265:.\Generated_Source\PSoC4/cyfitter_cfg.c **** 
 266:.\Generated_Source\PSoC4/cyfitter_cfg.c **** 	/* CYDEV_CLK_DIVIDER_A00 Starting address: CYDEV_CLK_DIVIDER_A00 */
ARM GAS  C:\Users\Jeppe\AppData\Local\Temp\ccmrHzJ3.s 			page 13


 267:.\Generated_Source\PSoC4/cyfitter_cfg.c **** 	CY_SET_XTND_REG32((void CYFAR *)(CYREG_CLK_DIVIDER_A00), 0x80000002u);
 413              		.loc 1 267 0
 414 0110 154B     		ldr	r3, .L16+52
 415 0112 164A     		ldr	r2, .L16+56
 416 0114 1A60     		str	r2, [r3]
 268:.\Generated_Source\PSoC4/cyfitter_cfg.c **** 
 269:.\Generated_Source\PSoC4/cyfitter_cfg.c **** 	/* CYDEV_CLK_DIVIDER_B00 Starting address: CYDEV_CLK_DIVIDER_B00 */
 270:.\Generated_Source\PSoC4/cyfitter_cfg.c **** 	CY_SET_XTND_REG32((void CYFAR *)(CYREG_CLK_DIVIDER_B00), 0x80000005u);
 417              		.loc 1 270 0
 418 0116 164B     		ldr	r3, .L16+60
 419 0118 164A     		ldr	r2, .L16+64
 420 011a 1A60     		str	r2, [r3]
 271:.\Generated_Source\PSoC4/cyfitter_cfg.c **** 
 272:.\Generated_Source\PSoC4/cyfitter_cfg.c **** 	/* CYDEV_CLK_DIVIDER_C00 Starting address: CYDEV_CLK_DIVIDER_C00 */
 273:.\Generated_Source\PSoC4/cyfitter_cfg.c **** 	CY_SET_XTND_REG32((void CYFAR *)(CYREG_CLK_DIVIDER_C00), 0x8000000Eu);
 421              		.loc 1 273 0
 422 011c 164B     		ldr	r3, .L16+68
 423 011e 174A     		ldr	r2, .L16+72
 424 0120 1A60     		str	r2, [r3]
 274:.\Generated_Source\PSoC4/cyfitter_cfg.c **** 
 275:.\Generated_Source\PSoC4/cyfitter_cfg.c **** 	/* CYDEV_CLK_DIVIDER_A01 Starting address: CYDEV_CLK_DIVIDER_A01 */
 276:.\Generated_Source\PSoC4/cyfitter_cfg.c **** 	CY_SET_XTND_REG32((void CYFAR *)(CYREG_CLK_DIVIDER_A01), 0x80000019u);
 425              		.loc 1 276 0
 426 0122 174B     		ldr	r3, .L16+76
 427 0124 174A     		ldr	r2, .L16+80
 428 0126 1A60     		str	r2, [r3]
 277:.\Generated_Source\PSoC4/cyfitter_cfg.c **** 
 278:.\Generated_Source\PSoC4/cyfitter_cfg.c **** 	/* CYDEV_CLK_DIVIDER_B01 Starting address: CYDEV_CLK_DIVIDER_B01 */
 279:.\Generated_Source\PSoC4/cyfitter_cfg.c **** 	CY_SET_XTND_REG32((void CYFAR *)(CYREG_CLK_DIVIDER_B01), 0x80000257u);
 429              		.loc 1 279 0
 430 0128 174B     		ldr	r3, .L16+84
 431 012a 184A     		ldr	r2, .L16+88
 432 012c 1A60     		str	r2, [r3]
 280:.\Generated_Source\PSoC4/cyfitter_cfg.c **** 
 281:.\Generated_Source\PSoC4/cyfitter_cfg.c **** }
 433              		.loc 1 281 0
 434 012e BD46     		mov	sp, r7
 435              		@ sp needed
 436 0130 80BD     		pop	{r7, pc}
 437              	.L17:
 438 0132 C046     		.align	2
 439              	.L16:
 440 0134 00010B40 		.word	1074462976
 441 0138 2CFF0B40 		.word	1074528044
 442 013c 28FF0B40 		.word	1074528040
 443 0140 E5F1FF0F 		.word	268431845
 444 0144 FFFFFBFF 		.word	-262145
 445 0148 04010B40 		.word	1074462980
 446 014c 06000080 		.word	-2147483642
 447 0150 08020240 		.word	1073873416
 448 0154 0C020240 		.word	1073873420
 449 0158 34020240 		.word	1073873460
 450 015c 38020240 		.word	1073873464
 451 0160 3C020240 		.word	1073873468
 452 0164 08010B40 		.word	1074462984
 453 0168 00000240 		.word	1073872896
 454 016c 02000080 		.word	-2147483646
ARM GAS  C:\Users\Jeppe\AppData\Local\Temp\ccmrHzJ3.s 			page 14


 455 0170 40000240 		.word	1073872960
 456 0174 05000080 		.word	-2147483643
 457 0178 80000240 		.word	1073873024
 458 017c 0E000080 		.word	-2147483634
 459 0180 04000240 		.word	1073872900
 460 0184 19000080 		.word	-2147483623
 461 0188 44000240 		.word	1073872964
 462 018c 57020080 		.word	-2147483049
 463              		.cfi_endproc
 464              	.LFE5:
 465              		.size	ClockSetup, .-ClockSetup
 466              		.section	.text.AnalogSetDefault,"ax",%progbits
 467              		.align	2
 468              		.code	16
 469              		.thumb_func
 470              		.type	AnalogSetDefault, %function
 471              	AnalogSetDefault:
 472              	.LFB6:
 282:.\Generated_Source\PSoC4/cyfitter_cfg.c **** 
 283:.\Generated_Source\PSoC4/cyfitter_cfg.c **** 
 284:.\Generated_Source\PSoC4/cyfitter_cfg.c **** /* Analog API Functions */
 285:.\Generated_Source\PSoC4/cyfitter_cfg.c **** 
 286:.\Generated_Source\PSoC4/cyfitter_cfg.c **** 
 287:.\Generated_Source\PSoC4/cyfitter_cfg.c **** /*******************************************************************************
 288:.\Generated_Source\PSoC4/cyfitter_cfg.c **** * Function Name: AnalogSetDefault
 289:.\Generated_Source\PSoC4/cyfitter_cfg.c **** ********************************************************************************
 290:.\Generated_Source\PSoC4/cyfitter_cfg.c **** *
 291:.\Generated_Source\PSoC4/cyfitter_cfg.c **** * Summary:
 292:.\Generated_Source\PSoC4/cyfitter_cfg.c **** *  Sets up the analog portions of the chip to default values based on chip
 293:.\Generated_Source\PSoC4/cyfitter_cfg.c **** *  configuration options from the project.
 294:.\Generated_Source\PSoC4/cyfitter_cfg.c **** *
 295:.\Generated_Source\PSoC4/cyfitter_cfg.c **** * Parameters:
 296:.\Generated_Source\PSoC4/cyfitter_cfg.c **** *  void
 297:.\Generated_Source\PSoC4/cyfitter_cfg.c **** *
 298:.\Generated_Source\PSoC4/cyfitter_cfg.c **** * Return:
 299:.\Generated_Source\PSoC4/cyfitter_cfg.c **** *  void
 300:.\Generated_Source\PSoC4/cyfitter_cfg.c **** *
 301:.\Generated_Source\PSoC4/cyfitter_cfg.c **** *******************************************************************************/
 302:.\Generated_Source\PSoC4/cyfitter_cfg.c **** static void AnalogSetDefault(void);
 303:.\Generated_Source\PSoC4/cyfitter_cfg.c **** static void AnalogSetDefault(void)
 304:.\Generated_Source\PSoC4/cyfitter_cfg.c **** {
 473              		.loc 1 304 0
 474              		.cfi_startproc
 475 0000 80B5     		push	{r7, lr}
 476              		.cfi_def_cfa_offset 8
 477              		.cfi_offset 7, -8
 478              		.cfi_offset 14, -4
 479 0002 00AF     		add	r7, sp, #0
 480              		.cfi_def_cfa_register 7
 305:.\Generated_Source\PSoC4/cyfitter_cfg.c **** }
 481              		.loc 1 305 0
 482 0004 BD46     		mov	sp, r7
 483              		@ sp needed
 484 0006 80BD     		pop	{r7, pc}
 485              		.cfi_endproc
 486              	.LFE6:
 487              		.size	AnalogSetDefault, .-AnalogSetDefault
ARM GAS  C:\Users\Jeppe\AppData\Local\Temp\ccmrHzJ3.s 			page 15


 488              		.section	.psocinit
 489              		.align	2
 490              		.global	cyfitter_cfg
 491              		.code	16
 492              		.thumb_func
 493              		.type	cyfitter_cfg, %function
 494              	cyfitter_cfg:
 495              	.LFB7:
 306:.\Generated_Source\PSoC4/cyfitter_cfg.c **** 
 307:.\Generated_Source\PSoC4/cyfitter_cfg.c **** #define CY_AMUX_UNUSED CYREG_CM0_ROM_DWT
 308:.\Generated_Source\PSoC4/cyfitter_cfg.c **** 
 309:.\Generated_Source\PSoC4/cyfitter_cfg.c **** 
 310:.\Generated_Source\PSoC4/cyfitter_cfg.c **** /*******************************************************************************
 311:.\Generated_Source\PSoC4/cyfitter_cfg.c **** * Function Name: cyfitter_cfg
 312:.\Generated_Source\PSoC4/cyfitter_cfg.c **** ********************************************************************************
 313:.\Generated_Source\PSoC4/cyfitter_cfg.c **** * Summary:
 314:.\Generated_Source\PSoC4/cyfitter_cfg.c **** *  This function is called by the start-up code for the selected device. It
 315:.\Generated_Source\PSoC4/cyfitter_cfg.c **** *  performs all of the necessary device configuration based on the design
 316:.\Generated_Source\PSoC4/cyfitter_cfg.c **** *  settings.  This includes settings from the Design Wide Resources (DWR) such
 317:.\Generated_Source\PSoC4/cyfitter_cfg.c **** *  as Clocks and Pins as well as any component configuration that is necessary.
 318:.\Generated_Source\PSoC4/cyfitter_cfg.c **** *
 319:.\Generated_Source\PSoC4/cyfitter_cfg.c **** * Parameters:  
 320:.\Generated_Source\PSoC4/cyfitter_cfg.c **** *   void
 321:.\Generated_Source\PSoC4/cyfitter_cfg.c **** *
 322:.\Generated_Source\PSoC4/cyfitter_cfg.c **** * Return:
 323:.\Generated_Source\PSoC4/cyfitter_cfg.c **** *   void
 324:.\Generated_Source\PSoC4/cyfitter_cfg.c **** *
 325:.\Generated_Source\PSoC4/cyfitter_cfg.c **** *******************************************************************************/
 326:.\Generated_Source\PSoC4/cyfitter_cfg.c **** CY_CFG_SECTION
 327:.\Generated_Source\PSoC4/cyfitter_cfg.c **** void cyfitter_cfg(void)
 328:.\Generated_Source\PSoC4/cyfitter_cfg.c **** {
 496              		.loc 1 328 0
 497              		.cfi_startproc
 498 0190 80B5     		push	{r7, lr}
 499              		.cfi_def_cfa_offset 8
 500              		.cfi_offset 7, -8
 501              		.cfi_offset 14, -4
 502 0192 82B0     		sub	sp, sp, #8
 503              		.cfi_def_cfa_offset 16
 504 0194 00AF     		add	r7, sp, #0
 505              		.cfi_def_cfa_register 7
 329:.\Generated_Source\PSoC4/cyfitter_cfg.c **** 	/* Disable interrupts by default. Let user enable if/when they want. */
 330:.\Generated_Source\PSoC4/cyfitter_cfg.c **** 	CyGlobalIntDisable;
 506              		.loc 1 330 0
 507              	@ 330 ".\Generated_Source\PSoC4\cyfitter_cfg.c" 1
 508 0196 72B6     		CPSID   i
 509              	@ 0 "" 2
 331:.\Generated_Source\PSoC4/cyfitter_cfg.c **** 
 332:.\Generated_Source\PSoC4/cyfitter_cfg.c **** 	/* Enable the clock in the interrupt controller for the routed interrupts */
 333:.\Generated_Source\PSoC4/cyfitter_cfg.c **** 	CY_SET_REG8((void *)CYREG_UDB_UDBIF_INT_CLK_CTL, 0x01u);
 510              		.loc 1 333 0
 511              		.code	16
 512 0198 584B     		ldr	r3, .L22
 513 019a 0122     		mov	r2, #1
 514 019c 1A70     		strb	r2, [r3]
 515              	.LBB3:
 334:.\Generated_Source\PSoC4/cyfitter_cfg.c **** 	{
ARM GAS  C:\Users\Jeppe\AppData\Local\Temp\ccmrHzJ3.s 			page 16


 335:.\Generated_Source\PSoC4/cyfitter_cfg.c **** 		static const uint32 CYCODE cy_cfg_addr_table[] = {
 336:.\Generated_Source\PSoC4/cyfitter_cfg.c **** 			0x400F0002u, /* Base address: 0x400F0000 Count: 2 */
 337:.\Generated_Source\PSoC4/cyfitter_cfg.c **** 			0x400F306Eu, /* Base address: 0x400F3000 Count: 110 */
 338:.\Generated_Source\PSoC4/cyfitter_cfg.c **** 			0x400F3137u, /* Base address: 0x400F3100 Count: 55 */
 339:.\Generated_Source\PSoC4/cyfitter_cfg.c **** 			0x400F3266u, /* Base address: 0x400F3200 Count: 102 */
 340:.\Generated_Source\PSoC4/cyfitter_cfg.c **** 			0x400F3348u, /* Base address: 0x400F3300 Count: 72 */
 341:.\Generated_Source\PSoC4/cyfitter_cfg.c **** 			0x400F4004u, /* Base address: 0x400F4000 Count: 4 */
 342:.\Generated_Source\PSoC4/cyfitter_cfg.c **** 			0x400F410Bu, /* Base address: 0x400F4100 Count: 11 */
 343:.\Generated_Source\PSoC4/cyfitter_cfg.c **** 			0x400F4204u, /* Base address: 0x400F4200 Count: 4 */
 344:.\Generated_Source\PSoC4/cyfitter_cfg.c **** 			0x400F4303u, /* Base address: 0x400F4300 Count: 3 */
 345:.\Generated_Source\PSoC4/cyfitter_cfg.c **** 			0x400F6002u, /* Base address: 0x400F6000 Count: 2 */
 346:.\Generated_Source\PSoC4/cyfitter_cfg.c **** 		};
 347:.\Generated_Source\PSoC4/cyfitter_cfg.c **** 
 348:.\Generated_Source\PSoC4/cyfitter_cfg.c **** 		static const cy_cfg_addrvalue_t CYCODE cy_cfg_data_table[] = {
 349:.\Generated_Source\PSoC4/cyfitter_cfg.c **** 			{0x82u, 0x0Du},
 350:.\Generated_Source\PSoC4/cyfitter_cfg.c **** 			{0x83u, 0x0Fu},
 351:.\Generated_Source\PSoC4/cyfitter_cfg.c **** 			{0x04u, 0x3Fu},
 352:.\Generated_Source\PSoC4/cyfitter_cfg.c **** 			{0x05u, 0x44u},
 353:.\Generated_Source\PSoC4/cyfitter_cfg.c **** 			{0x07u, 0x82u},
 354:.\Generated_Source\PSoC4/cyfitter_cfg.c **** 			{0x08u, 0x40u},
 355:.\Generated_Source\PSoC4/cyfitter_cfg.c **** 			{0x0Au, 0x2Au},
 356:.\Generated_Source\PSoC4/cyfitter_cfg.c **** 			{0x0Bu, 0x08u},
 357:.\Generated_Source\PSoC4/cyfitter_cfg.c **** 			{0x0Cu, 0x40u},
 358:.\Generated_Source\PSoC4/cyfitter_cfg.c **** 			{0x0Du, 0x08u},
 359:.\Generated_Source\PSoC4/cyfitter_cfg.c **** 			{0x0Eu, 0x15u},
 360:.\Generated_Source\PSoC4/cyfitter_cfg.c **** 			{0x0Fu, 0x17u},
 361:.\Generated_Source\PSoC4/cyfitter_cfg.c **** 			{0x10u, 0x33u},
 362:.\Generated_Source\PSoC4/cyfitter_cfg.c **** 			{0x12u, 0x8Cu},
 363:.\Generated_Source\PSoC4/cyfitter_cfg.c **** 			{0x14u, 0x03u},
 364:.\Generated_Source\PSoC4/cyfitter_cfg.c **** 			{0x15u, 0x21u},
 365:.\Generated_Source\PSoC4/cyfitter_cfg.c **** 			{0x16u, 0x8Cu},
 366:.\Generated_Source\PSoC4/cyfitter_cfg.c **** 			{0x17u, 0x82u},
 367:.\Generated_Source\PSoC4/cyfitter_cfg.c **** 			{0x18u, 0x30u},
 368:.\Generated_Source\PSoC4/cyfitter_cfg.c **** 			{0x19u, 0x07u},
 369:.\Generated_Source\PSoC4/cyfitter_cfg.c **** 			{0x1Au, 0x8Cu},
 370:.\Generated_Source\PSoC4/cyfitter_cfg.c **** 			{0x1Du, 0x65u},
 371:.\Generated_Source\PSoC4/cyfitter_cfg.c **** 			{0x1Fu, 0x02u},
 372:.\Generated_Source\PSoC4/cyfitter_cfg.c **** 			{0x20u, 0x40u},
 373:.\Generated_Source\PSoC4/cyfitter_cfg.c **** 			{0x24u, 0xBFu},
 374:.\Generated_Source\PSoC4/cyfitter_cfg.c **** 			{0x25u, 0x08u},
 375:.\Generated_Source\PSoC4/cyfitter_cfg.c **** 			{0x27u, 0x10u},
 376:.\Generated_Source\PSoC4/cyfitter_cfg.c **** 			{0x29u, 0x67u},
 377:.\Generated_Source\PSoC4/cyfitter_cfg.c **** 			{0x30u, 0x80u},
 378:.\Generated_Source\PSoC4/cyfitter_cfg.c **** 			{0x31u, 0x1Fu},
 379:.\Generated_Source\PSoC4/cyfitter_cfg.c **** 			{0x32u, 0x7Fu},
 380:.\Generated_Source\PSoC4/cyfitter_cfg.c **** 			{0x35u, 0x60u},
 381:.\Generated_Source\PSoC4/cyfitter_cfg.c **** 			{0x37u, 0x80u},
 382:.\Generated_Source\PSoC4/cyfitter_cfg.c **** 			{0x3Au, 0x0Cu},
 383:.\Generated_Source\PSoC4/cyfitter_cfg.c **** 			{0x40u, 0x30u},
 384:.\Generated_Source\PSoC4/cyfitter_cfg.c **** 			{0x41u, 0x05u},
 385:.\Generated_Source\PSoC4/cyfitter_cfg.c **** 			{0x45u, 0x01u},
 386:.\Generated_Source\PSoC4/cyfitter_cfg.c **** 			{0x47u, 0x20u},
 387:.\Generated_Source\PSoC4/cyfitter_cfg.c **** 			{0x48u, 0x21u},
 388:.\Generated_Source\PSoC4/cyfitter_cfg.c **** 			{0x49u, 0xFFu},
 389:.\Generated_Source\PSoC4/cyfitter_cfg.c **** 			{0x4Au, 0xFFu},
 390:.\Generated_Source\PSoC4/cyfitter_cfg.c **** 			{0x4Bu, 0xFFu},
 391:.\Generated_Source\PSoC4/cyfitter_cfg.c **** 			{0x4Du, 0xA0u},
ARM GAS  C:\Users\Jeppe\AppData\Local\Temp\ccmrHzJ3.s 			page 17


 392:.\Generated_Source\PSoC4/cyfitter_cfg.c **** 			{0x4Fu, 0x04u},
 393:.\Generated_Source\PSoC4/cyfitter_cfg.c **** 			{0x50u, 0x18u},
 394:.\Generated_Source\PSoC4/cyfitter_cfg.c **** 			{0x52u, 0x03u},
 395:.\Generated_Source\PSoC4/cyfitter_cfg.c **** 			{0x58u, 0x0Cu},
 396:.\Generated_Source\PSoC4/cyfitter_cfg.c **** 			{0x59u, 0x0Cu},
 397:.\Generated_Source\PSoC4/cyfitter_cfg.c **** 			{0x5Au, 0x0Cu},
 398:.\Generated_Source\PSoC4/cyfitter_cfg.c **** 			{0x5Bu, 0x0Cu},
 399:.\Generated_Source\PSoC4/cyfitter_cfg.c **** 			{0x5Cu, 0x11u},
 400:.\Generated_Source\PSoC4/cyfitter_cfg.c **** 			{0x5Du, 0x11u},
 401:.\Generated_Source\PSoC4/cyfitter_cfg.c **** 			{0x5Fu, 0x01u},
 402:.\Generated_Source\PSoC4/cyfitter_cfg.c **** 			{0x60u, 0x40u},
 403:.\Generated_Source\PSoC4/cyfitter_cfg.c **** 			{0x62u, 0xC0u},
 404:.\Generated_Source\PSoC4/cyfitter_cfg.c **** 			{0x64u, 0x40u},
 405:.\Generated_Source\PSoC4/cyfitter_cfg.c **** 			{0x65u, 0x40u},
 406:.\Generated_Source\PSoC4/cyfitter_cfg.c **** 			{0x66u, 0xC0u},
 407:.\Generated_Source\PSoC4/cyfitter_cfg.c **** 			{0x68u, 0xC0u},
 408:.\Generated_Source\PSoC4/cyfitter_cfg.c **** 			{0x6Au, 0xC0u},
 409:.\Generated_Source\PSoC4/cyfitter_cfg.c **** 			{0x6Cu, 0xC0u},
 410:.\Generated_Source\PSoC4/cyfitter_cfg.c **** 			{0x6Eu, 0xC0u},
 411:.\Generated_Source\PSoC4/cyfitter_cfg.c **** 			{0x80u, 0x02u},
 412:.\Generated_Source\PSoC4/cyfitter_cfg.c **** 			{0x82u, 0x05u},
 413:.\Generated_Source\PSoC4/cyfitter_cfg.c **** 			{0x86u, 0x10u},
 414:.\Generated_Source\PSoC4/cyfitter_cfg.c **** 			{0x89u, 0x08u},
 415:.\Generated_Source\PSoC4/cyfitter_cfg.c **** 			{0x8Au, 0x1Au},
 416:.\Generated_Source\PSoC4/cyfitter_cfg.c **** 			{0x8Bu, 0x06u},
 417:.\Generated_Source\PSoC4/cyfitter_cfg.c **** 			{0x8Du, 0x0Du},
 418:.\Generated_Source\PSoC4/cyfitter_cfg.c **** 			{0x94u, 0x01u},
 419:.\Generated_Source\PSoC4/cyfitter_cfg.c **** 			{0x95u, 0x02u},
 420:.\Generated_Source\PSoC4/cyfitter_cfg.c **** 			{0x96u, 0x02u},
 421:.\Generated_Source\PSoC4/cyfitter_cfg.c **** 			{0x97u, 0x0Du},
 422:.\Generated_Source\PSoC4/cyfitter_cfg.c **** 			{0x98u, 0x04u},
 423:.\Generated_Source\PSoC4/cyfitter_cfg.c **** 			{0x9Au, 0x02u},
 424:.\Generated_Source\PSoC4/cyfitter_cfg.c **** 			{0x9Du, 0x0Bu},
 425:.\Generated_Source\PSoC4/cyfitter_cfg.c **** 			{0x9Fu, 0x04u},
 426:.\Generated_Source\PSoC4/cyfitter_cfg.c **** 			{0xA2u, 0x08u},
 427:.\Generated_Source\PSoC4/cyfitter_cfg.c **** 			{0xA5u, 0x0Du},
 428:.\Generated_Source\PSoC4/cyfitter_cfg.c **** 			{0xA9u, 0x01u},
 429:.\Generated_Source\PSoC4/cyfitter_cfg.c **** 			{0xABu, 0x06u},
 430:.\Generated_Source\PSoC4/cyfitter_cfg.c **** 			{0xAEu, 0x20u},
 431:.\Generated_Source\PSoC4/cyfitter_cfg.c **** 			{0xB2u, 0x20u},
 432:.\Generated_Source\PSoC4/cyfitter_cfg.c **** 			{0xB4u, 0x1Fu},
 433:.\Generated_Source\PSoC4/cyfitter_cfg.c **** 			{0xB5u, 0x0Fu},
 434:.\Generated_Source\PSoC4/cyfitter_cfg.c **** 			{0xBBu, 0x20u},
 435:.\Generated_Source\PSoC4/cyfitter_cfg.c **** 			{0xC0u, 0x45u},
 436:.\Generated_Source\PSoC4/cyfitter_cfg.c **** 			{0xC5u, 0xECu},
 437:.\Generated_Source\PSoC4/cyfitter_cfg.c **** 			{0xC6u, 0x02u},
 438:.\Generated_Source\PSoC4/cyfitter_cfg.c **** 			{0xC8u, 0x07u},
 439:.\Generated_Source\PSoC4/cyfitter_cfg.c **** 			{0xC9u, 0xFFu},
 440:.\Generated_Source\PSoC4/cyfitter_cfg.c **** 			{0xCAu, 0xFFu},
 441:.\Generated_Source\PSoC4/cyfitter_cfg.c **** 			{0xCBu, 0xFFu},
 442:.\Generated_Source\PSoC4/cyfitter_cfg.c **** 			{0xCFu, 0x01u},
 443:.\Generated_Source\PSoC4/cyfitter_cfg.c **** 			{0xD0u, 0x18u},
 444:.\Generated_Source\PSoC4/cyfitter_cfg.c **** 			{0xD2u, 0x80u},
 445:.\Generated_Source\PSoC4/cyfitter_cfg.c **** 			{0xD8u, 0x0Cu},
 446:.\Generated_Source\PSoC4/cyfitter_cfg.c **** 			{0xD9u, 0x0Cu},
 447:.\Generated_Source\PSoC4/cyfitter_cfg.c **** 			{0xDAu, 0x04u},
 448:.\Generated_Source\PSoC4/cyfitter_cfg.c **** 			{0xDBu, 0x04u},
ARM GAS  C:\Users\Jeppe\AppData\Local\Temp\ccmrHzJ3.s 			page 18


 449:.\Generated_Source\PSoC4/cyfitter_cfg.c **** 			{0xDCu, 0x11u},
 450:.\Generated_Source\PSoC4/cyfitter_cfg.c **** 			{0xDDu, 0x12u},
 451:.\Generated_Source\PSoC4/cyfitter_cfg.c **** 			{0xDFu, 0x01u},
 452:.\Generated_Source\PSoC4/cyfitter_cfg.c **** 			{0xE0u, 0x40u},
 453:.\Generated_Source\PSoC4/cyfitter_cfg.c **** 			{0xE2u, 0x40u},
 454:.\Generated_Source\PSoC4/cyfitter_cfg.c **** 			{0xE4u, 0x40u},
 455:.\Generated_Source\PSoC4/cyfitter_cfg.c **** 			{0xE5u, 0x40u},
 456:.\Generated_Source\PSoC4/cyfitter_cfg.c **** 			{0xE6u, 0x80u},
 457:.\Generated_Source\PSoC4/cyfitter_cfg.c **** 			{0xE8u, 0x80u},
 458:.\Generated_Source\PSoC4/cyfitter_cfg.c **** 			{0xEAu, 0x80u},
 459:.\Generated_Source\PSoC4/cyfitter_cfg.c **** 			{0xECu, 0x80u},
 460:.\Generated_Source\PSoC4/cyfitter_cfg.c **** 			{0xEEu, 0x80u},
 461:.\Generated_Source\PSoC4/cyfitter_cfg.c **** 			{0x00u, 0x54u},
 462:.\Generated_Source\PSoC4/cyfitter_cfg.c **** 			{0x04u, 0x01u},
 463:.\Generated_Source\PSoC4/cyfitter_cfg.c **** 			{0x05u, 0x18u},
 464:.\Generated_Source\PSoC4/cyfitter_cfg.c **** 			{0x09u, 0x08u},
 465:.\Generated_Source\PSoC4/cyfitter_cfg.c **** 			{0x0Au, 0x80u},
 466:.\Generated_Source\PSoC4/cyfitter_cfg.c **** 			{0x0Bu, 0x08u},
 467:.\Generated_Source\PSoC4/cyfitter_cfg.c **** 			{0x0Cu, 0x20u},
 468:.\Generated_Source\PSoC4/cyfitter_cfg.c **** 			{0x0Du, 0x08u},
 469:.\Generated_Source\PSoC4/cyfitter_cfg.c **** 			{0x13u, 0x0Au},
 470:.\Generated_Source\PSoC4/cyfitter_cfg.c **** 			{0x15u, 0x42u},
 471:.\Generated_Source\PSoC4/cyfitter_cfg.c **** 			{0x17u, 0x40u},
 472:.\Generated_Source\PSoC4/cyfitter_cfg.c **** 			{0x18u, 0x10u},
 473:.\Generated_Source\PSoC4/cyfitter_cfg.c **** 			{0x19u, 0x08u},
 474:.\Generated_Source\PSoC4/cyfitter_cfg.c **** 			{0x1Bu, 0x01u},
 475:.\Generated_Source\PSoC4/cyfitter_cfg.c **** 			{0x1Cu, 0x04u},
 476:.\Generated_Source\PSoC4/cyfitter_cfg.c **** 			{0x1Du, 0x18u},
 477:.\Generated_Source\PSoC4/cyfitter_cfg.c **** 			{0x1Fu, 0x08u},
 478:.\Generated_Source\PSoC4/cyfitter_cfg.c **** 			{0x20u, 0x41u},
 479:.\Generated_Source\PSoC4/cyfitter_cfg.c **** 			{0x21u, 0x11u},
 480:.\Generated_Source\PSoC4/cyfitter_cfg.c **** 			{0x22u, 0xC0u},
 481:.\Generated_Source\PSoC4/cyfitter_cfg.c **** 			{0x25u, 0x20u},
 482:.\Generated_Source\PSoC4/cyfitter_cfg.c **** 			{0x27u, 0x08u},
 483:.\Generated_Source\PSoC4/cyfitter_cfg.c **** 			{0x29u, 0x18u},
 484:.\Generated_Source\PSoC4/cyfitter_cfg.c **** 			{0x2Du, 0x08u},
 485:.\Generated_Source\PSoC4/cyfitter_cfg.c **** 			{0x2Fu, 0x08u},
 486:.\Generated_Source\PSoC4/cyfitter_cfg.c **** 			{0x31u, 0x28u},
 487:.\Generated_Source\PSoC4/cyfitter_cfg.c **** 			{0x32u, 0x40u},
 488:.\Generated_Source\PSoC4/cyfitter_cfg.c **** 			{0x36u, 0x80u},
 489:.\Generated_Source\PSoC4/cyfitter_cfg.c **** 			{0x37u, 0x08u},
 490:.\Generated_Source\PSoC4/cyfitter_cfg.c **** 			{0x38u, 0x40u},
 491:.\Generated_Source\PSoC4/cyfitter_cfg.c **** 			{0x39u, 0x10u},
 492:.\Generated_Source\PSoC4/cyfitter_cfg.c **** 			{0x3Bu, 0x08u},
 493:.\Generated_Source\PSoC4/cyfitter_cfg.c **** 			{0x3Cu, 0x60u},
 494:.\Generated_Source\PSoC4/cyfitter_cfg.c **** 			{0x41u, 0x08u},
 495:.\Generated_Source\PSoC4/cyfitter_cfg.c **** 			{0x46u, 0x80u},
 496:.\Generated_Source\PSoC4/cyfitter_cfg.c **** 			{0x48u, 0x32u},
 497:.\Generated_Source\PSoC4/cyfitter_cfg.c **** 			{0x4Bu, 0x08u},
 498:.\Generated_Source\PSoC4/cyfitter_cfg.c **** 			{0x4Du, 0x01u},
 499:.\Generated_Source\PSoC4/cyfitter_cfg.c **** 			{0x4Fu, 0x84u},
 500:.\Generated_Source\PSoC4/cyfitter_cfg.c **** 			{0x50u, 0x02u},
 501:.\Generated_Source\PSoC4/cyfitter_cfg.c **** 			{0x57u, 0x40u},
 502:.\Generated_Source\PSoC4/cyfitter_cfg.c **** 			{0x69u, 0x10u},
 503:.\Generated_Source\PSoC4/cyfitter_cfg.c **** 			{0x6Bu, 0x02u},
 504:.\Generated_Source\PSoC4/cyfitter_cfg.c **** 			{0x77u, 0x40u},
 505:.\Generated_Source\PSoC4/cyfitter_cfg.c **** 			{0x79u, 0x40u},
ARM GAS  C:\Users\Jeppe\AppData\Local\Temp\ccmrHzJ3.s 			page 19


 506:.\Generated_Source\PSoC4/cyfitter_cfg.c **** 			{0x7Du, 0x40u},
 507:.\Generated_Source\PSoC4/cyfitter_cfg.c **** 			{0xC0u, 0x77u},
 508:.\Generated_Source\PSoC4/cyfitter_cfg.c **** 			{0xC2u, 0x6Eu},
 509:.\Generated_Source\PSoC4/cyfitter_cfg.c **** 			{0xC4u, 0x9Cu},
 510:.\Generated_Source\PSoC4/cyfitter_cfg.c **** 			{0xCAu, 0x66u},
 511:.\Generated_Source\PSoC4/cyfitter_cfg.c **** 			{0xCCu, 0x5Eu},
 512:.\Generated_Source\PSoC4/cyfitter_cfg.c **** 			{0xCEu, 0x3Eu},
 513:.\Generated_Source\PSoC4/cyfitter_cfg.c **** 			{0xD0u, 0x82u},
 514:.\Generated_Source\PSoC4/cyfitter_cfg.c **** 			{0xD2u, 0x18u},
 515:.\Generated_Source\PSoC4/cyfitter_cfg.c **** 			{0xDEu, 0x18u},
 516:.\Generated_Source\PSoC4/cyfitter_cfg.c **** 			{0x02u, 0x40u},
 517:.\Generated_Source\PSoC4/cyfitter_cfg.c **** 			{0x04u, 0x09u},
 518:.\Generated_Source\PSoC4/cyfitter_cfg.c **** 			{0x06u, 0x10u},
 519:.\Generated_Source\PSoC4/cyfitter_cfg.c **** 			{0x08u, 0x1Cu},
 520:.\Generated_Source\PSoC4/cyfitter_cfg.c **** 			{0x0Au, 0x02u},
 521:.\Generated_Source\PSoC4/cyfitter_cfg.c **** 			{0x0Cu, 0x0Cu},
 522:.\Generated_Source\PSoC4/cyfitter_cfg.c **** 			{0x0Eu, 0x11u},
 523:.\Generated_Source\PSoC4/cyfitter_cfg.c **** 			{0x0Fu, 0x01u},
 524:.\Generated_Source\PSoC4/cyfitter_cfg.c **** 			{0x12u, 0x40u},
 525:.\Generated_Source\PSoC4/cyfitter_cfg.c **** 			{0x14u, 0x20u},
 526:.\Generated_Source\PSoC4/cyfitter_cfg.c **** 			{0x16u, 0x03u},
 527:.\Generated_Source\PSoC4/cyfitter_cfg.c **** 			{0x18u, 0x10u},
 528:.\Generated_Source\PSoC4/cyfitter_cfg.c **** 			{0x1Au, 0x0Cu},
 529:.\Generated_Source\PSoC4/cyfitter_cfg.c **** 			{0x24u, 0x14u},
 530:.\Generated_Source\PSoC4/cyfitter_cfg.c **** 			{0x28u, 0x80u},
 531:.\Generated_Source\PSoC4/cyfitter_cfg.c **** 			{0x2Cu, 0x10u},
 532:.\Generated_Source\PSoC4/cyfitter_cfg.c **** 			{0x2Fu, 0x01u},
 533:.\Generated_Source\PSoC4/cyfitter_cfg.c **** 			{0x30u, 0x40u},
 534:.\Generated_Source\PSoC4/cyfitter_cfg.c **** 			{0x32u, 0x1Fu},
 535:.\Generated_Source\PSoC4/cyfitter_cfg.c **** 			{0x33u, 0x01u},
 536:.\Generated_Source\PSoC4/cyfitter_cfg.c **** 			{0x34u, 0x20u},
 537:.\Generated_Source\PSoC4/cyfitter_cfg.c **** 			{0x36u, 0x80u},
 538:.\Generated_Source\PSoC4/cyfitter_cfg.c **** 			{0x3Eu, 0x51u},
 539:.\Generated_Source\PSoC4/cyfitter_cfg.c **** 			{0x40u, 0x32u},
 540:.\Generated_Source\PSoC4/cyfitter_cfg.c **** 			{0x41u, 0x04u},
 541:.\Generated_Source\PSoC4/cyfitter_cfg.c **** 			{0x45u, 0xE0u},
 542:.\Generated_Source\PSoC4/cyfitter_cfg.c **** 			{0x46u, 0xBCu},
 543:.\Generated_Source\PSoC4/cyfitter_cfg.c **** 			{0x48u, 0x0Eu},
 544:.\Generated_Source\PSoC4/cyfitter_cfg.c **** 			{0x49u, 0xFFu},
 545:.\Generated_Source\PSoC4/cyfitter_cfg.c **** 			{0x4Au, 0xFFu},
 546:.\Generated_Source\PSoC4/cyfitter_cfg.c **** 			{0x4Bu, 0xFFu},
 547:.\Generated_Source\PSoC4/cyfitter_cfg.c **** 			{0x4Eu, 0xF0u},
 548:.\Generated_Source\PSoC4/cyfitter_cfg.c **** 			{0x4Fu, 0x44u},
 549:.\Generated_Source\PSoC4/cyfitter_cfg.c **** 			{0x50u, 0x0Cu},
 550:.\Generated_Source\PSoC4/cyfitter_cfg.c **** 			{0x52u, 0x80u},
 551:.\Generated_Source\PSoC4/cyfitter_cfg.c **** 			{0x54u, 0x01u},
 552:.\Generated_Source\PSoC4/cyfitter_cfg.c **** 			{0x58u, 0x04u},
 553:.\Generated_Source\PSoC4/cyfitter_cfg.c **** 			{0x59u, 0x04u},
 554:.\Generated_Source\PSoC4/cyfitter_cfg.c **** 			{0x5Au, 0x04u},
 555:.\Generated_Source\PSoC4/cyfitter_cfg.c **** 			{0x5Bu, 0x04u},
 556:.\Generated_Source\PSoC4/cyfitter_cfg.c **** 			{0x5Cu, 0x23u},
 557:.\Generated_Source\PSoC4/cyfitter_cfg.c **** 			{0x5Du, 0x23u},
 558:.\Generated_Source\PSoC4/cyfitter_cfg.c **** 			{0x5Fu, 0x01u},
 559:.\Generated_Source\PSoC4/cyfitter_cfg.c **** 			{0x66u, 0xC0u},
 560:.\Generated_Source\PSoC4/cyfitter_cfg.c **** 			{0x6Au, 0x40u},
 561:.\Generated_Source\PSoC4/cyfitter_cfg.c **** 			{0x6Bu, 0x02u},
 562:.\Generated_Source\PSoC4/cyfitter_cfg.c **** 			{0x85u, 0x80u},
ARM GAS  C:\Users\Jeppe\AppData\Local\Temp\ccmrHzJ3.s 			page 20


 563:.\Generated_Source\PSoC4/cyfitter_cfg.c **** 			{0x86u, 0x1Cu},
 564:.\Generated_Source\PSoC4/cyfitter_cfg.c **** 			{0x87u, 0x15u},
 565:.\Generated_Source\PSoC4/cyfitter_cfg.c **** 			{0x88u, 0x1Cu},
 566:.\Generated_Source\PSoC4/cyfitter_cfg.c **** 			{0x8Au, 0x43u},
 567:.\Generated_Source\PSoC4/cyfitter_cfg.c **** 			{0x8Cu, 0x41u},
 568:.\Generated_Source\PSoC4/cyfitter_cfg.c **** 			{0x8Eu, 0x0Eu},
 569:.\Generated_Source\PSoC4/cyfitter_cfg.c **** 			{0x90u, 0x20u},
 570:.\Generated_Source\PSoC4/cyfitter_cfg.c **** 			{0x94u, 0x41u},
 571:.\Generated_Source\PSoC4/cyfitter_cfg.c **** 			{0x95u, 0x73u},
 572:.\Generated_Source\PSoC4/cyfitter_cfg.c **** 			{0x96u, 0x16u},
 573:.\Generated_Source\PSoC4/cyfitter_cfg.c **** 			{0x97u, 0x0Cu},
 574:.\Generated_Source\PSoC4/cyfitter_cfg.c **** 			{0x9Bu, 0x08u},
 575:.\Generated_Source\PSoC4/cyfitter_cfg.c **** 			{0x9Eu, 0x40u},
 576:.\Generated_Source\PSoC4/cyfitter_cfg.c **** 			{0xA1u, 0x73u},
 577:.\Generated_Source\PSoC4/cyfitter_cfg.c **** 			{0xA3u, 0x04u},
 578:.\Generated_Source\PSoC4/cyfitter_cfg.c **** 			{0xA6u, 0x08u},
 579:.\Generated_Source\PSoC4/cyfitter_cfg.c **** 			{0xA9u, 0x2Au},
 580:.\Generated_Source\PSoC4/cyfitter_cfg.c **** 			{0xAAu, 0x43u},
 581:.\Generated_Source\PSoC4/cyfitter_cfg.c **** 			{0xABu, 0x44u},
 582:.\Generated_Source\PSoC4/cyfitter_cfg.c **** 			{0xADu, 0x03u},
 583:.\Generated_Source\PSoC4/cyfitter_cfg.c **** 			{0xAFu, 0x04u},
 584:.\Generated_Source\PSoC4/cyfitter_cfg.c **** 			{0xB0u, 0x1Au},
 585:.\Generated_Source\PSoC4/cyfitter_cfg.c **** 			{0xB1u, 0x30u},
 586:.\Generated_Source\PSoC4/cyfitter_cfg.c **** 			{0xB2u, 0x20u},
 587:.\Generated_Source\PSoC4/cyfitter_cfg.c **** 			{0xB3u, 0x0Fu},
 588:.\Generated_Source\PSoC4/cyfitter_cfg.c **** 			{0xB4u, 0x0Fu},
 589:.\Generated_Source\PSoC4/cyfitter_cfg.c **** 			{0xB5u, 0xC0u},
 590:.\Generated_Source\PSoC4/cyfitter_cfg.c **** 			{0xB6u, 0x40u},
 591:.\Generated_Source\PSoC4/cyfitter_cfg.c **** 			{0xB9u, 0x22u},
 592:.\Generated_Source\PSoC4/cyfitter_cfg.c **** 			{0xBAu, 0x22u},
 593:.\Generated_Source\PSoC4/cyfitter_cfg.c **** 			{0xBBu, 0x08u},
 594:.\Generated_Source\PSoC4/cyfitter_cfg.c **** 			{0xBEu, 0x44u},
 595:.\Generated_Source\PSoC4/cyfitter_cfg.c **** 			{0xBFu, 0x01u},
 596:.\Generated_Source\PSoC4/cyfitter_cfg.c **** 			{0xC0u, 0x05u},
 597:.\Generated_Source\PSoC4/cyfitter_cfg.c **** 			{0xC5u, 0x04u},
 598:.\Generated_Source\PSoC4/cyfitter_cfg.c **** 			{0xC9u, 0xFFu},
 599:.\Generated_Source\PSoC4/cyfitter_cfg.c **** 			{0xCAu, 0x07u},
 600:.\Generated_Source\PSoC4/cyfitter_cfg.c **** 			{0xCBu, 0xFFu},
 601:.\Generated_Source\PSoC4/cyfitter_cfg.c **** 			{0xCCu, 0x40u},
 602:.\Generated_Source\PSoC4/cyfitter_cfg.c **** 			{0xCDu, 0x20u},
 603:.\Generated_Source\PSoC4/cyfitter_cfg.c **** 			{0xCEu, 0xF0u},
 604:.\Generated_Source\PSoC4/cyfitter_cfg.c **** 			{0xCFu, 0x05u},
 605:.\Generated_Source\PSoC4/cyfitter_cfg.c **** 			{0xD0u, 0x08u},
 606:.\Generated_Source\PSoC4/cyfitter_cfg.c **** 			{0xD4u, 0x01u},
 607:.\Generated_Source\PSoC4/cyfitter_cfg.c **** 			{0xD8u, 0x04u},
 608:.\Generated_Source\PSoC4/cyfitter_cfg.c **** 			{0xD9u, 0x04u},
 609:.\Generated_Source\PSoC4/cyfitter_cfg.c **** 			{0xDAu, 0x04u},
 610:.\Generated_Source\PSoC4/cyfitter_cfg.c **** 			{0xDBu, 0x04u},
 611:.\Generated_Source\PSoC4/cyfitter_cfg.c **** 			{0xDCu, 0x33u},
 612:.\Generated_Source\PSoC4/cyfitter_cfg.c **** 			{0xDDu, 0x33u},
 613:.\Generated_Source\PSoC4/cyfitter_cfg.c **** 			{0xDFu, 0x01u},
 614:.\Generated_Source\PSoC4/cyfitter_cfg.c **** 			{0xE0u, 0x40u},
 615:.\Generated_Source\PSoC4/cyfitter_cfg.c **** 			{0xE1u, 0xA8u},
 616:.\Generated_Source\PSoC4/cyfitter_cfg.c **** 			{0xE2u, 0x40u},
 617:.\Generated_Source\PSoC4/cyfitter_cfg.c **** 			{0xE3u, 0x20u},
 618:.\Generated_Source\PSoC4/cyfitter_cfg.c **** 			{0x00u, 0x44u},
 619:.\Generated_Source\PSoC4/cyfitter_cfg.c **** 			{0x01u, 0x20u},
ARM GAS  C:\Users\Jeppe\AppData\Local\Temp\ccmrHzJ3.s 			page 21


 620:.\Generated_Source\PSoC4/cyfitter_cfg.c **** 			{0x04u, 0x44u},
 621:.\Generated_Source\PSoC4/cyfitter_cfg.c **** 			{0x05u, 0x20u},
 622:.\Generated_Source\PSoC4/cyfitter_cfg.c **** 			{0x06u, 0x80u},
 623:.\Generated_Source\PSoC4/cyfitter_cfg.c **** 			{0x09u, 0x48u},
 624:.\Generated_Source\PSoC4/cyfitter_cfg.c **** 			{0x0Au, 0x80u},
 625:.\Generated_Source\PSoC4/cyfitter_cfg.c **** 			{0x0Bu, 0x02u},
 626:.\Generated_Source\PSoC4/cyfitter_cfg.c **** 			{0x0Cu, 0x10u},
 627:.\Generated_Source\PSoC4/cyfitter_cfg.c **** 			{0x0Eu, 0x10u},
 628:.\Generated_Source\PSoC4/cyfitter_cfg.c **** 			{0x0Fu, 0x80u},
 629:.\Generated_Source\PSoC4/cyfitter_cfg.c **** 			{0x10u, 0x28u},
 630:.\Generated_Source\PSoC4/cyfitter_cfg.c **** 			{0x16u, 0x28u},
 631:.\Generated_Source\PSoC4/cyfitter_cfg.c **** 			{0x17u, 0x80u},
 632:.\Generated_Source\PSoC4/cyfitter_cfg.c **** 			{0x18u, 0x40u},
 633:.\Generated_Source\PSoC4/cyfitter_cfg.c **** 			{0x19u, 0x65u},
 634:.\Generated_Source\PSoC4/cyfitter_cfg.c **** 			{0x1Eu, 0x50u},
 635:.\Generated_Source\PSoC4/cyfitter_cfg.c **** 			{0x1Fu, 0x60u},
 636:.\Generated_Source\PSoC4/cyfitter_cfg.c **** 			{0x20u, 0x04u},
 637:.\Generated_Source\PSoC4/cyfitter_cfg.c **** 			{0x21u, 0x08u},
 638:.\Generated_Source\PSoC4/cyfitter_cfg.c **** 			{0x22u, 0x12u},
 639:.\Generated_Source\PSoC4/cyfitter_cfg.c **** 			{0x26u, 0x08u},
 640:.\Generated_Source\PSoC4/cyfitter_cfg.c **** 			{0x28u, 0x80u},
 641:.\Generated_Source\PSoC4/cyfitter_cfg.c **** 			{0x29u, 0x21u},
 642:.\Generated_Source\PSoC4/cyfitter_cfg.c **** 			{0x2Au, 0x40u},
 643:.\Generated_Source\PSoC4/cyfitter_cfg.c **** 			{0x2Eu, 0x80u},
 644:.\Generated_Source\PSoC4/cyfitter_cfg.c **** 			{0x31u, 0x08u},
 645:.\Generated_Source\PSoC4/cyfitter_cfg.c **** 			{0x32u, 0x10u},
 646:.\Generated_Source\PSoC4/cyfitter_cfg.c **** 			{0x38u, 0x08u},
 647:.\Generated_Source\PSoC4/cyfitter_cfg.c **** 			{0x3Fu, 0x80u},
 648:.\Generated_Source\PSoC4/cyfitter_cfg.c **** 			{0x44u, 0x90u},
 649:.\Generated_Source\PSoC4/cyfitter_cfg.c **** 			{0x45u, 0x08u},
 650:.\Generated_Source\PSoC4/cyfitter_cfg.c **** 			{0x46u, 0x04u},
 651:.\Generated_Source\PSoC4/cyfitter_cfg.c **** 			{0x48u, 0x20u},
 652:.\Generated_Source\PSoC4/cyfitter_cfg.c **** 			{0x4Au, 0x02u},
 653:.\Generated_Source\PSoC4/cyfitter_cfg.c **** 			{0x4Du, 0x02u},
 654:.\Generated_Source\PSoC4/cyfitter_cfg.c **** 			{0x4Eu, 0x40u},
 655:.\Generated_Source\PSoC4/cyfitter_cfg.c **** 			{0x50u, 0x0Cu},
 656:.\Generated_Source\PSoC4/cyfitter_cfg.c **** 			{0x52u, 0x04u},
 657:.\Generated_Source\PSoC4/cyfitter_cfg.c **** 			{0x55u, 0x40u},
 658:.\Generated_Source\PSoC4/cyfitter_cfg.c **** 			{0x56u, 0x60u},
 659:.\Generated_Source\PSoC4/cyfitter_cfg.c **** 			{0x59u, 0x56u},
 660:.\Generated_Source\PSoC4/cyfitter_cfg.c **** 			{0x5Du, 0x01u},
 661:.\Generated_Source\PSoC4/cyfitter_cfg.c **** 			{0x5Eu, 0x40u},
 662:.\Generated_Source\PSoC4/cyfitter_cfg.c **** 			{0x5Fu, 0x04u},
 663:.\Generated_Source\PSoC4/cyfitter_cfg.c **** 			{0x76u, 0x80u},
 664:.\Generated_Source\PSoC4/cyfitter_cfg.c **** 			{0x86u, 0x08u},
 665:.\Generated_Source\PSoC4/cyfitter_cfg.c **** 			{0x88u, 0x20u},
 666:.\Generated_Source\PSoC4/cyfitter_cfg.c **** 			{0x8Bu, 0xA0u},
 667:.\Generated_Source\PSoC4/cyfitter_cfg.c **** 			{0x8Du, 0x10u},
 668:.\Generated_Source\PSoC4/cyfitter_cfg.c **** 			{0x8Eu, 0x08u},
 669:.\Generated_Source\PSoC4/cyfitter_cfg.c **** 			{0x8Fu, 0x01u},
 670:.\Generated_Source\PSoC4/cyfitter_cfg.c **** 			{0x91u, 0x01u},
 671:.\Generated_Source\PSoC4/cyfitter_cfg.c **** 			{0x93u, 0x04u},
 672:.\Generated_Source\PSoC4/cyfitter_cfg.c **** 			{0x97u, 0x80u},
 673:.\Generated_Source\PSoC4/cyfitter_cfg.c **** 			{0x9Eu, 0x80u},
 674:.\Generated_Source\PSoC4/cyfitter_cfg.c **** 			{0xA3u, 0x40u},
 675:.\Generated_Source\PSoC4/cyfitter_cfg.c **** 			{0xADu, 0x10u},
 676:.\Generated_Source\PSoC4/cyfitter_cfg.c **** 			{0xAFu, 0x40u},
ARM GAS  C:\Users\Jeppe\AppData\Local\Temp\ccmrHzJ3.s 			page 22


 677:.\Generated_Source\PSoC4/cyfitter_cfg.c **** 			{0xB3u, 0x01u},
 678:.\Generated_Source\PSoC4/cyfitter_cfg.c **** 			{0xC0u, 0xF7u},
 679:.\Generated_Source\PSoC4/cyfitter_cfg.c **** 			{0xC2u, 0x7Du},
 680:.\Generated_Source\PSoC4/cyfitter_cfg.c **** 			{0xC4u, 0xE6u},
 681:.\Generated_Source\PSoC4/cyfitter_cfg.c **** 			{0xCAu, 0x1Du},
 682:.\Generated_Source\PSoC4/cyfitter_cfg.c **** 			{0xCCu, 0x06u},
 683:.\Generated_Source\PSoC4/cyfitter_cfg.c **** 			{0xCEu, 0x12u},
 684:.\Generated_Source\PSoC4/cyfitter_cfg.c **** 			{0xD0u, 0xE0u},
 685:.\Generated_Source\PSoC4/cyfitter_cfg.c **** 			{0xD2u, 0x08u},
 686:.\Generated_Source\PSoC4/cyfitter_cfg.c **** 			{0xD6u, 0xDFu},
 687:.\Generated_Source\PSoC4/cyfitter_cfg.c **** 			{0xE2u, 0x80u},
 688:.\Generated_Source\PSoC4/cyfitter_cfg.c **** 			{0xE6u, 0x40u},
 689:.\Generated_Source\PSoC4/cyfitter_cfg.c **** 			{0xE8u, 0x02u},
 690:.\Generated_Source\PSoC4/cyfitter_cfg.c **** 			{0x6Fu, 0x02u},
 691:.\Generated_Source\PSoC4/cyfitter_cfg.c **** 			{0x73u, 0x08u},
 692:.\Generated_Source\PSoC4/cyfitter_cfg.c **** 			{0xDAu, 0x80u},
 693:.\Generated_Source\PSoC4/cyfitter_cfg.c **** 			{0xDCu, 0x20u},
 694:.\Generated_Source\PSoC4/cyfitter_cfg.c **** 			{0x0Fu, 0x40u},
 695:.\Generated_Source\PSoC4/cyfitter_cfg.c **** 			{0x67u, 0x08u},
 696:.\Generated_Source\PSoC4/cyfitter_cfg.c **** 			{0x87u, 0x40u},
 697:.\Generated_Source\PSoC4/cyfitter_cfg.c **** 			{0x8Bu, 0x04u},
 698:.\Generated_Source\PSoC4/cyfitter_cfg.c **** 			{0x8Fu, 0x08u},
 699:.\Generated_Source\PSoC4/cyfitter_cfg.c **** 			{0x9Fu, 0x08u},
 700:.\Generated_Source\PSoC4/cyfitter_cfg.c **** 			{0xAFu, 0x02u},
 701:.\Generated_Source\PSoC4/cyfitter_cfg.c **** 			{0xC2u, 0x20u},
 702:.\Generated_Source\PSoC4/cyfitter_cfg.c **** 			{0xD8u, 0x80u},
 703:.\Generated_Source\PSoC4/cyfitter_cfg.c **** 			{0xE4u, 0x40u},
 704:.\Generated_Source\PSoC4/cyfitter_cfg.c **** 			{0xEAu, 0x10u},
 705:.\Generated_Source\PSoC4/cyfitter_cfg.c **** 			{0x52u, 0x02u},
 706:.\Generated_Source\PSoC4/cyfitter_cfg.c **** 			{0x54u, 0x01u},
 707:.\Generated_Source\PSoC4/cyfitter_cfg.c **** 			{0xD4u, 0x01u},
 708:.\Generated_Source\PSoC4/cyfitter_cfg.c **** 			{0xD6u, 0x04u},
 709:.\Generated_Source\PSoC4/cyfitter_cfg.c **** 			{0xAEu, 0x02u},
 710:.\Generated_Source\PSoC4/cyfitter_cfg.c **** 			{0xB0u, 0x01u},
 711:.\Generated_Source\PSoC4/cyfitter_cfg.c **** 			{0xE8u, 0x01u},
 712:.\Generated_Source\PSoC4/cyfitter_cfg.c **** 			{0x10u, 0x0Eu},
 713:.\Generated_Source\PSoC4/cyfitter_cfg.c **** 			{0x11u, 0x01u},
 714:.\Generated_Source\PSoC4/cyfitter_cfg.c **** 		};
 715:.\Generated_Source\PSoC4/cyfitter_cfg.c **** 
 716:.\Generated_Source\PSoC4/cyfitter_cfg.c **** 
 717:.\Generated_Source\PSoC4/cyfitter_cfg.c **** 
 718:.\Generated_Source\PSoC4/cyfitter_cfg.c **** 		CYPACKED typedef struct {
 719:.\Generated_Source\PSoC4/cyfitter_cfg.c **** 			void CYFAR *address;
 720:.\Generated_Source\PSoC4/cyfitter_cfg.c **** 			uint16 size;
 721:.\Generated_Source\PSoC4/cyfitter_cfg.c **** 		} CYPACKED_ATTR cfg_memset_t;
 722:.\Generated_Source\PSoC4/cyfitter_cfg.c **** 
 723:.\Generated_Source\PSoC4/cyfitter_cfg.c **** 		static const cfg_memset_t CYCODE cfg_memset_list [] = {
 724:.\Generated_Source\PSoC4/cyfitter_cfg.c **** 			/* address, size */
 725:.\Generated_Source\PSoC4/cyfitter_cfg.c **** 			{(void CYFAR *)(CYDEV_UDB_P0_U0_BASE), 1024u},
 726:.\Generated_Source\PSoC4/cyfitter_cfg.c **** 			{(void CYFAR *)(CYDEV_UDB_DSI0_BASE), 1024u},
 727:.\Generated_Source\PSoC4/cyfitter_cfg.c **** 		};
 728:.\Generated_Source\PSoC4/cyfitter_cfg.c **** 
 729:.\Generated_Source\PSoC4/cyfitter_cfg.c **** 		uint8 CYDATA i;
 730:.\Generated_Source\PSoC4/cyfitter_cfg.c **** 
 731:.\Generated_Source\PSoC4/cyfitter_cfg.c **** 		/* Zero out critical memory blocks before beginning configuration */
 732:.\Generated_Source\PSoC4/cyfitter_cfg.c **** 		for (i = 0u; i < (sizeof(cfg_memset_list)/sizeof(cfg_memset_list[0])); i++)
 516              		.loc 1 732 0
ARM GAS  C:\Users\Jeppe\AppData\Local\Temp\ccmrHzJ3.s 			page 23


 517 019e FB1D     		add	r3, r7, #7
 518 01a0 0022     		mov	r2, #0
 519 01a2 1A70     		strb	r2, [r3]
 520 01a4 23E0     		b	.L20
 521              	.L21:
 522              	.LBB4:
 733:.\Generated_Source\PSoC4/cyfitter_cfg.c **** 		{
 734:.\Generated_Source\PSoC4/cyfitter_cfg.c **** 			const cfg_memset_t CYCODE * CYDATA ms = &cfg_memset_list[i];
 523              		.loc 1 734 0 discriminator 2
 524 01a6 FB1D     		add	r3, r7, #7
 525 01a8 1A78     		ldrb	r2, [r3]
 526 01aa 131C     		mov	r3, r2
 527 01ac 5B00     		lsl	r3, r3, #1
 528 01ae 9B18     		add	r3, r3, r2
 529 01b0 5B00     		lsl	r3, r3, #1
 530 01b2 534A     		ldr	r2, .L22+4
 531 01b4 9B18     		add	r3, r3, r2
 532 01b6 3B60     		str	r3, [r7]
 735:.\Generated_Source\PSoC4/cyfitter_cfg.c **** 			CYMEMZERO(ms->address, (size_t)(uint32)(ms->size));
 533              		.loc 1 735 0 discriminator 2
 534 01b8 3B68     		ldr	r3, [r7]
 535 01ba 1A78     		ldrb	r2, [r3]
 536 01bc 5978     		ldrb	r1, [r3, #1]
 537 01be 0902     		lsl	r1, r1, #8
 538 01c0 0A43     		orr	r2, r1
 539 01c2 9978     		ldrb	r1, [r3, #2]
 540 01c4 0904     		lsl	r1, r1, #16
 541 01c6 0A43     		orr	r2, r1
 542 01c8 DB78     		ldrb	r3, [r3, #3]
 543 01ca 1B06     		lsl	r3, r3, #24
 544 01cc 1343     		orr	r3, r2
 545 01ce 1A1C     		mov	r2, r3
 546 01d0 3B68     		ldr	r3, [r7]
 547 01d2 1979     		ldrb	r1, [r3, #4]
 548 01d4 5B79     		ldrb	r3, [r3, #5]
 549 01d6 1B02     		lsl	r3, r3, #8
 550 01d8 0B43     		orr	r3, r1
 551 01da 9BB2     		uxth	r3, r3
 552 01dc 101C     		mov	r0, r2
 553 01de 191C     		mov	r1, r3
 554 01e0 FFF7FEFF 		bl	CYMEMZERO
 555              	.LBE4:
 732:.\Generated_Source\PSoC4/cyfitter_cfg.c **** 		for (i = 0u; i < (sizeof(cfg_memset_list)/sizeof(cfg_memset_list[0])); i++)
 556              		.loc 1 732 0 discriminator 2
 557 01e4 FB1D     		add	r3, r7, #7
 558 01e6 1A78     		ldrb	r2, [r3]
 559 01e8 FB1D     		add	r3, r7, #7
 560 01ea 0132     		add	r2, r2, #1
 561 01ec 1A70     		strb	r2, [r3]
 562              	.L20:
 732:.\Generated_Source\PSoC4/cyfitter_cfg.c **** 		for (i = 0u; i < (sizeof(cfg_memset_list)/sizeof(cfg_memset_list[0])); i++)
 563              		.loc 1 732 0 is_stmt 0 discriminator 1
 564 01ee FB1D     		add	r3, r7, #7
 565 01f0 1B78     		ldrb	r3, [r3]
 566 01f2 012B     		cmp	r3, #1
 567 01f4 D7D9     		bls	.L21
 736:.\Generated_Source\PSoC4/cyfitter_cfg.c **** 		}
ARM GAS  C:\Users\Jeppe\AppData\Local\Temp\ccmrHzJ3.s 			page 24


 737:.\Generated_Source\PSoC4/cyfitter_cfg.c **** 
 738:.\Generated_Source\PSoC4/cyfitter_cfg.c **** 		cfg_write_bytes32(cy_cfg_addr_table, cy_cfg_data_table);
 568              		.loc 1 738 0 is_stmt 1
 569 01f6 434A     		ldr	r2, .L22+8
 570 01f8 434B     		ldr	r3, .L22+12
 571 01fa 101C     		mov	r0, r2
 572 01fc 191C     		mov	r1, r3
 573 01fe FFF7FEFF 		bl	cfg_write_bytes32
 739:.\Generated_Source\PSoC4/cyfitter_cfg.c **** 
 740:.\Generated_Source\PSoC4/cyfitter_cfg.c **** 		/* Perform normal device configuration. Order is not critical for these items. */
 741:.\Generated_Source\PSoC4/cyfitter_cfg.c **** 		CY_SET_XTND_REG16((void CYFAR *)(CYREG_UDB_BCTL0_DRV), 0x0E00u);
 574              		.loc 1 741 0
 575 0202 424B     		ldr	r3, .L22+16
 576 0204 E022     		mov	r2, #224
 577 0206 1201     		lsl	r2, r2, #4
 578 0208 1A80     		strh	r2, [r3]
 742:.\Generated_Source\PSoC4/cyfitter_cfg.c **** 		CY_SET_XTND_REG8((void CYFAR *)(CYREG_UDB_BCTL0_DRV + 0x2u), 0x01u);
 579              		.loc 1 742 0
 580 020a 414B     		ldr	r3, .L22+20
 581 020c 0122     		mov	r2, #1
 582 020e 1A70     		strb	r2, [r3]
 743:.\Generated_Source\PSoC4/cyfitter_cfg.c **** 
 744:.\Generated_Source\PSoC4/cyfitter_cfg.c **** 		/* HSIOM Starting address: CYDEV_HSIOM_BASE */
 745:.\Generated_Source\PSoC4/cyfitter_cfg.c **** 		CY_SET_XTND_REG32((void CYFAR *)(CYDEV_HSIOM_BASE), 0x00EE0000u);
 583              		.loc 1 745 0
 584 0210 404B     		ldr	r3, .L22+24
 585 0212 EE22     		mov	r2, #238
 586 0214 1204     		lsl	r2, r2, #16
 587 0216 1A60     		str	r2, [r3]
 746:.\Generated_Source\PSoC4/cyfitter_cfg.c **** 		CY_SET_XTND_REG32((void CYFAR *)(CYREG_HSIOM_PORT_SEL1), 0x00030000u);
 588              		.loc 1 746 0
 589 0218 3F4B     		ldr	r3, .L22+28
 590 021a C022     		mov	r2, #192
 591 021c 9202     		lsl	r2, r2, #10
 592 021e 1A60     		str	r2, [r3]
 747:.\Generated_Source\PSoC4/cyfitter_cfg.c **** 		CY_SET_XTND_REG32((void CYFAR *)(CYREG_HSIOM_PORT_SEL2), 0x00000033u);
 593              		.loc 1 747 0
 594 0220 3E4B     		ldr	r3, .L22+32
 595 0222 3322     		mov	r2, #51
 596 0224 1A60     		str	r2, [r3]
 748:.\Generated_Source\PSoC4/cyfitter_cfg.c **** 		CY_SET_XTND_REG32((void CYFAR *)(CYREG_HSIOM_PORT_SEL3), 0x0000EE00u);
 597              		.loc 1 748 0
 598 0226 3E4B     		ldr	r3, .L22+36
 599 0228 EE22     		mov	r2, #238
 600 022a 1202     		lsl	r2, r2, #8
 601 022c 1A60     		str	r2, [r3]
 749:.\Generated_Source\PSoC4/cyfitter_cfg.c **** 		CY_SET_XTND_REG32((void CYFAR *)(CYREG_HSIOM_PORT_SEL4), 0x000000EEu);
 602              		.loc 1 749 0
 603 022e 3D4B     		ldr	r3, .L22+40
 604 0230 EE22     		mov	r2, #238
 605 0232 1A60     		str	r2, [r3]
 750:.\Generated_Source\PSoC4/cyfitter_cfg.c **** 
 751:.\Generated_Source\PSoC4/cyfitter_cfg.c **** 		/* IOPINS0_0 Starting address: CYDEV_PRT0_DR */
 752:.\Generated_Source\PSoC4/cyfitter_cfg.c **** 		CY_SET_XTND_REG32((void CYFAR *)(CYREG_PRT0_DR), 0x00000030u);
 606              		.loc 1 752 0
 607 0234 3C4B     		ldr	r3, .L22+44
 608 0236 3022     		mov	r2, #48
ARM GAS  C:\Users\Jeppe\AppData\Local\Temp\ccmrHzJ3.s 			page 25


 609 0238 1A60     		str	r2, [r3]
 753:.\Generated_Source\PSoC4/cyfitter_cfg.c **** 		CY_SET_XTND_REG32((void CYFAR *)(CYREG_PRT0_PC), 0x00024000u);
 610              		.loc 1 753 0
 611 023a 3C4B     		ldr	r3, .L22+48
 612 023c 9022     		mov	r2, #144
 613 023e 9202     		lsl	r2, r2, #10
 614 0240 1A60     		str	r2, [r3]
 754:.\Generated_Source\PSoC4/cyfitter_cfg.c **** 
 755:.\Generated_Source\PSoC4/cyfitter_cfg.c **** 		/* IOPINS0_1 Starting address: CYDEV_PRT1_DR */
 756:.\Generated_Source\PSoC4/cyfitter_cfg.c **** 		CY_SET_XTND_REG32((void CYFAR *)(CYREG_PRT1_DR), 0x00000030u);
 615              		.loc 1 756 0
 616 0242 3B4B     		ldr	r3, .L22+52
 617 0244 3022     		mov	r2, #48
 618 0246 1A60     		str	r2, [r3]
 757:.\Generated_Source\PSoC4/cyfitter_cfg.c **** 		CY_SET_XTND_REG32((void CYFAR *)(CYREG_PRT1_PC), 0x00016000u);
 619              		.loc 1 757 0
 620 0248 3A4B     		ldr	r3, .L22+56
 621 024a B022     		mov	r2, #176
 622 024c 5202     		lsl	r2, r2, #9
 623 024e 1A60     		str	r2, [r3]
 758:.\Generated_Source\PSoC4/cyfitter_cfg.c **** 
 759:.\Generated_Source\PSoC4/cyfitter_cfg.c **** 		/* IOPINS0_2 Starting address: CYDEV_PRT2_DR */
 760:.\Generated_Source\PSoC4/cyfitter_cfg.c **** 		CY_SET_XTND_REG32((void CYFAR *)(CYREG_PRT2_DR), 0x00000003u);
 624              		.loc 1 760 0
 625 0250 394B     		ldr	r3, .L22+60
 626 0252 0322     		mov	r2, #3
 627 0254 1A60     		str	r2, [r3]
 761:.\Generated_Source\PSoC4/cyfitter_cfg.c **** 		CY_SET_XTND_REG32((void CYFAR *)(CYREG_PRT2_PC), 0x00000036u);
 628              		.loc 1 761 0
 629 0256 394B     		ldr	r3, .L22+64
 630 0258 3622     		mov	r2, #54
 631 025a 1A60     		str	r2, [r3]
 762:.\Generated_Source\PSoC4/cyfitter_cfg.c **** 
 763:.\Generated_Source\PSoC4/cyfitter_cfg.c **** 		/* IOPINS0_3 Starting address: CYDEV_PRT3_DR */
 764:.\Generated_Source\PSoC4/cyfitter_cfg.c **** 		CY_SET_XTND_REG32((void CYFAR *)(CYREG_PRT3_PC), 0x00181D80u);
 632              		.loc 1 764 0
 633 025c 384B     		ldr	r3, .L22+68
 634 025e 394A     		ldr	r2, .L22+72
 635 0260 1A60     		str	r2, [r3]
 765:.\Generated_Source\PSoC4/cyfitter_cfg.c **** 
 766:.\Generated_Source\PSoC4/cyfitter_cfg.c **** 		/* IOPINS0_4 Starting address: CYDEV_PRT4_DR */
 767:.\Generated_Source\PSoC4/cyfitter_cfg.c **** 		CY_SET_XTND_REG32((void CYFAR *)(CYREG_PRT4_DR), 0x00000003u);
 636              		.loc 1 767 0
 637 0262 394B     		ldr	r3, .L22+76
 638 0264 0322     		mov	r2, #3
 639 0266 1A60     		str	r2, [r3]
 768:.\Generated_Source\PSoC4/cyfitter_cfg.c **** 		CY_SET_XTND_REG32((void CYFAR *)(CYREG_PRT4_PC), 0x00000024u);
 640              		.loc 1 768 0
 641 0268 384B     		ldr	r3, .L22+80
 642 026a 2422     		mov	r2, #36
 643 026c 1A60     		str	r2, [r3]
 769:.\Generated_Source\PSoC4/cyfitter_cfg.c **** 
 770:.\Generated_Source\PSoC4/cyfitter_cfg.c **** 		/* UDB_PA_0 Starting address: CYDEV_UDB_PA0_BASE */
 771:.\Generated_Source\PSoC4/cyfitter_cfg.c **** 		CY_SET_XTND_REG32((void CYFAR *)(CYDEV_UDB_PA0_BASE), 0x00990000u);
 644              		.loc 1 771 0
 645 026e 384B     		ldr	r3, .L22+84
 646 0270 9922     		mov	r2, #153
ARM GAS  C:\Users\Jeppe\AppData\Local\Temp\ccmrHzJ3.s 			page 26


 647 0272 1204     		lsl	r2, r2, #16
 648 0274 1A60     		str	r2, [r3]
 772:.\Generated_Source\PSoC4/cyfitter_cfg.c **** 
 773:.\Generated_Source\PSoC4/cyfitter_cfg.c **** 		/* UDB_PA_1 Starting address: CYDEV_UDB_PA1_BASE */
 774:.\Generated_Source\PSoC4/cyfitter_cfg.c **** 		CY_SET_XTND_REG32((void CYFAR *)(CYDEV_UDB_PA1_BASE), 0x00990004u);
 649              		.loc 1 774 0
 650 0276 374B     		ldr	r3, .L22+88
 651 0278 374A     		ldr	r2, .L22+92
 652 027a 1A60     		str	r2, [r3]
 775:.\Generated_Source\PSoC4/cyfitter_cfg.c **** 		CY_SET_XTND_REG32((void CYFAR *)(CYREG_UDB_PA1_CFG4), 0x08000000u);
 653              		.loc 1 775 0
 654 027c 374B     		ldr	r3, .L22+96
 655 027e 8022     		mov	r2, #128
 656 0280 1205     		lsl	r2, r2, #20
 657 0282 1A60     		str	r2, [r3]
 776:.\Generated_Source\PSoC4/cyfitter_cfg.c **** 		CY_SET_XTND_REG32((void CYFAR *)(CYREG_UDB_PA1_CFG8), 0x03000000u);
 658              		.loc 1 776 0
 659 0284 364B     		ldr	r3, .L22+100
 660 0286 C022     		mov	r2, #192
 661 0288 9204     		lsl	r2, r2, #18
 662 028a 1A60     		str	r2, [r3]
 777:.\Generated_Source\PSoC4/cyfitter_cfg.c **** 
 778:.\Generated_Source\PSoC4/cyfitter_cfg.c **** 		/* UDB_PA_2 Starting address: CYDEV_UDB_PA2_BASE */
 779:.\Generated_Source\PSoC4/cyfitter_cfg.c **** 		CY_SET_XTND_REG32((void CYFAR *)(CYDEV_UDB_PA2_BASE), 0x00990000u);
 663              		.loc 1 779 0
 664 028c 354B     		ldr	r3, .L22+104
 665 028e 9922     		mov	r2, #153
 666 0290 1204     		lsl	r2, r2, #16
 667 0292 1A60     		str	r2, [r3]
 780:.\Generated_Source\PSoC4/cyfitter_cfg.c **** 		CY_SET_XTND_REG32((void CYFAR *)(CYREG_UDB_PA2_CFG8), 0x000B0000u);
 668              		.loc 1 780 0
 669 0294 344B     		ldr	r3, .L22+108
 670 0296 B022     		mov	r2, #176
 671 0298 1203     		lsl	r2, r2, #12
 672 029a 1A60     		str	r2, [r3]
 781:.\Generated_Source\PSoC4/cyfitter_cfg.c **** 
 782:.\Generated_Source\PSoC4/cyfitter_cfg.c **** 		/* UDB_PA_3 Starting address: CYDEV_UDB_PA3_BASE */
 783:.\Generated_Source\PSoC4/cyfitter_cfg.c **** 		CY_SET_XTND_REG32((void CYFAR *)(CYDEV_UDB_PA3_BASE), 0x00990000u);
 673              		.loc 1 783 0
 674 029c 334B     		ldr	r3, .L22+112
 675 029e 9922     		mov	r2, #153
 676 02a0 1204     		lsl	r2, r2, #16
 677 02a2 1A60     		str	r2, [r3]
 784:.\Generated_Source\PSoC4/cyfitter_cfg.c **** 		CY_SET_XTND_REG32((void CYFAR *)(CYREG_UDB_PA3_CFG4), 0x02000000u);
 678              		.loc 1 784 0
 679 02a4 324B     		ldr	r3, .L22+116
 680 02a6 8022     		mov	r2, #128
 681 02a8 9204     		lsl	r2, r2, #18
 682 02aa 1A60     		str	r2, [r3]
 785:.\Generated_Source\PSoC4/cyfitter_cfg.c **** 
 786:.\Generated_Source\PSoC4/cyfitter_cfg.c **** 		/* INT_SELECT Starting address: CYDEV_CPUSS_INTR_SELECT */
 787:.\Generated_Source\PSoC4/cyfitter_cfg.c **** 		CY_SET_XTND_REG32((void CYFAR *)(CYREG_CPUSS_INTR_SELECT), 0x00000005u);
 683              		.loc 1 787 0
 684 02ac 314B     		ldr	r3, .L22+120
 685 02ae 0522     		mov	r2, #5
 686 02b0 1A60     		str	r2, [r3]
 788:.\Generated_Source\PSoC4/cyfitter_cfg.c **** 
ARM GAS  C:\Users\Jeppe\AppData\Local\Temp\ccmrHzJ3.s 			page 27


 789:.\Generated_Source\PSoC4/cyfitter_cfg.c **** 		/* INT_CONFIG Starting address: CYDEV_UDB_INT_CFG */
 790:.\Generated_Source\PSoC4/cyfitter_cfg.c **** 		CY_SET_XTND_REG32((void CYFAR *)(CYREG_UDB_INT_CFG), 0x00000006u);
 687              		.loc 1 790 0
 688 02b2 314B     		ldr	r3, .L22+124
 689 02b4 0622     		mov	r2, #6
 690 02b6 1A60     		str	r2, [r3]
 791:.\Generated_Source\PSoC4/cyfitter_cfg.c **** 
 792:.\Generated_Source\PSoC4/cyfitter_cfg.c **** 		/* Enable digital routing */
 793:.\Generated_Source\PSoC4/cyfitter_cfg.c **** 		CY_SET_XTND_REG8((void *)CYREG_UDB_UDBIF_BANK_CTL, CY_GET_XTND_REG8((void *)CYREG_UDB_UDBIF_BANK_
 691              		.loc 1 793 0
 692 02b8 304B     		ldr	r3, .L22+128
 693 02ba 304A     		ldr	r2, .L22+128
 694 02bc 1278     		ldrb	r2, [r2]
 695 02be D2B2     		uxtb	r2, r2
 696 02c0 0221     		mov	r1, #2
 697 02c2 0A43     		orr	r2, r1
 698 02c4 D2B2     		uxtb	r2, r2
 699 02c6 1A70     		strb	r2, [r3]
 794:.\Generated_Source\PSoC4/cyfitter_cfg.c **** 
 795:.\Generated_Source\PSoC4/cyfitter_cfg.c **** 		/* Enable UDB array */
 796:.\Generated_Source\PSoC4/cyfitter_cfg.c **** 		CY_SET_XTND_REG8((void *)CYREG_UDB_UDBIF_WAIT_CFG, (uint8)((CY_GET_XTND_REG8((void *)CYREG_UDB_UD
 700              		.loc 1 796 0
 701 02c8 2D4B     		ldr	r3, .L22+132
 702 02ca 2D4A     		ldr	r2, .L22+132
 703 02cc 1278     		ldrb	r2, [r2]
 704 02ce D2B2     		uxtb	r2, r2
 705 02d0 3C21     		mov	r1, #60
 706 02d2 8A43     		bic	r2, r1
 707 02d4 D2B2     		uxtb	r2, r2
 708 02d6 1421     		mov	r1, #20
 709 02d8 0A43     		orr	r2, r1
 710 02da D2B2     		uxtb	r2, r2
 711 02dc 1A70     		strb	r2, [r3]
 797:.\Generated_Source\PSoC4/cyfitter_cfg.c **** 		CY_SET_XTND_REG8((void *)CYREG_UDB_UDBIF_BANK_CTL, (uint8)(CY_GET_XTND_REG8((void *)CYREG_UDB_UDB
 712              		.loc 1 797 0
 713 02de 274B     		ldr	r3, .L22+128
 714 02e0 264A     		ldr	r2, .L22+128
 715 02e2 1278     		ldrb	r2, [r2]
 716 02e4 D2B2     		uxtb	r2, r2
 717 02e6 1621     		mov	r1, #22
 718 02e8 0A43     		orr	r2, r1
 719 02ea D2B2     		uxtb	r2, r2
 720 02ec 1A70     		strb	r2, [r3]
 721              	.LBE3:
 798:.\Generated_Source\PSoC4/cyfitter_cfg.c **** 	}
 799:.\Generated_Source\PSoC4/cyfitter_cfg.c **** 
 800:.\Generated_Source\PSoC4/cyfitter_cfg.c **** 	/* Setup clocks based on selections from Clock DWR */
 801:.\Generated_Source\PSoC4/cyfitter_cfg.c **** 	ClockSetup();
 722              		.loc 1 801 0
 723 02ee FFF7D9FE 		bl	ClockSetup
 802:.\Generated_Source\PSoC4/cyfitter_cfg.c **** 
 803:.\Generated_Source\PSoC4/cyfitter_cfg.c **** 	/* Perform basic analog initialization to defaults */
 804:.\Generated_Source\PSoC4/cyfitter_cfg.c **** 	AnalogSetDefault();
 724              		.loc 1 804 0
 725 02f2 FFF7FEFF 		bl	AnalogSetDefault
 805:.\Generated_Source\PSoC4/cyfitter_cfg.c **** 
 806:.\Generated_Source\PSoC4/cyfitter_cfg.c **** }
ARM GAS  C:\Users\Jeppe\AppData\Local\Temp\ccmrHzJ3.s 			page 28


 726              		.loc 1 806 0
 727 02f6 BD46     		mov	sp, r7
 728 02f8 02B0     		add	sp, sp, #8
 729              		@ sp needed
 730 02fa 80BD     		pop	{r7, pc}
 731              	.L23:
 732              		.align	2
 733              	.L22:
 734 02fc 1C700F40 		.word	1074753564
 735 0300 04000000 		.word	cfg_memset_list.4735
 736 0304 10000000 		.word	cy_cfg_addr_table.4729
 737 0308 38000000 		.word	cy_cfg_data_table.4730
 738 030c 00600F40 		.word	1074749440
 739 0310 02600F40 		.word	1074749442
 740 0314 00000140 		.word	1073807360
 741 0318 04000140 		.word	1073807364
 742 031c 08000140 		.word	1073807368
 743 0320 0C000140 		.word	1073807372
 744 0324 10000140 		.word	1073807376
 745 0328 00000440 		.word	1074003968
 746 032c 08000440 		.word	1074003976
 747 0330 00010440 		.word	1074004224
 748 0334 08010440 		.word	1074004232
 749 0338 00020440 		.word	1074004480
 750 033c 08020440 		.word	1074004488
 751 0340 08030440 		.word	1074004744
 752 0344 801D1800 		.word	1580416
 753 0348 00040440 		.word	1074004992
 754 034c 08040440 		.word	1074005000
 755 0350 00500F40 		.word	1074745344
 756 0354 10500F40 		.word	1074745360
 757 0358 04009900 		.word	10027012
 758 035c 14500F40 		.word	1074745364
 759 0360 18500F40 		.word	1074745368
 760 0364 20500F40 		.word	1074745376
 761 0368 28500F40 		.word	1074745384
 762 036c 30500F40 		.word	1074745392
 763 0370 34500F40 		.word	1074745396
 764 0374 20000040 		.word	1073741856
 765 0378 00800F40 		.word	1074757632
 766 037c 00700F40 		.word	1074753536
 767 0380 01700F40 		.word	1074753537
 768              		.cfi_endproc
 769              	.LFE7:
 770              		.size	cyfitter_cfg, .-cyfitter_cfg
 771              		.data
 772              		.align	2
 773              		.type	imo_trim_table.4708, %object
 774              		.size	imo_trim_table.4708, 4
 775              	imo_trim_table.4708:
 776 0000 C0F1FF0F 		.word	268431808
 777              		.section	.rodata
 778              		.align	2
 779              		.type	IMO_TRIM_FREQ_TABLE_ENTRIES.4709, %object
 780              		.size	IMO_TRIM_FREQ_TABLE_ENTRIES.4709, 4
 781              	IMO_TRIM_FREQ_TABLE_ENTRIES.4709:
 782 0000 04000000 		.word	4
ARM GAS  C:\Users\Jeppe\AppData\Local\Temp\ccmrHzJ3.s 			page 29


 783              		.align	2
 784              		.type	cfg_memset_list.4735, %object
 785              		.size	cfg_memset_list.4735, 12
 786              	cfg_memset_list.4735:
 787 0004 00300F40 		.word	1074737152
 788 0008 0004     		.short	1024
 789 000a 00400F40 		.4byte	1074741248
 790 000e 0004     		.short	1024
 791              		.align	2
 792              		.type	cy_cfg_addr_table.4729, %object
 793              		.size	cy_cfg_addr_table.4729, 40
 794              	cy_cfg_addr_table.4729:
 795 0010 02000F40 		.word	1074724866
 796 0014 6E300F40 		.word	1074737262
 797 0018 37310F40 		.word	1074737463
 798 001c 66320F40 		.word	1074737766
 799 0020 48330F40 		.word	1074737992
 800 0024 04400F40 		.word	1074741252
 801 0028 0B410F40 		.word	1074741515
 802 002c 04420F40 		.word	1074741764
 803 0030 03430F40 		.word	1074742019
 804 0034 02600F40 		.word	1074749442
 805              		.align	2
 806              		.type	cy_cfg_data_table.4730, %object
 807              		.size	cy_cfg_data_table.4730, 730
 808              	cy_cfg_data_table.4730:
 809 0038 82       		.byte	-126
 810 0039 0D       		.byte	13
 811 003a 83       		.byte	-125
 812 003b 0F       		.byte	15
 813 003c 04       		.byte	4
 814 003d 3F       		.byte	63
 815 003e 05       		.byte	5
 816 003f 44       		.byte	68
 817 0040 07       		.byte	7
 818 0041 82       		.byte	-126
 819 0042 08       		.byte	8
 820 0043 40       		.byte	64
 821 0044 0A       		.byte	10
 822 0045 2A       		.byte	42
 823 0046 0B       		.byte	11
 824 0047 08       		.byte	8
 825 0048 0C       		.byte	12
 826 0049 40       		.byte	64
 827 004a 0D       		.byte	13
 828 004b 08       		.byte	8
 829 004c 0E       		.byte	14
 830 004d 15       		.byte	21
 831 004e 0F       		.byte	15
 832 004f 17       		.byte	23
 833 0050 10       		.byte	16
 834 0051 33       		.byte	51
 835 0052 12       		.byte	18
 836 0053 8C       		.byte	-116
 837 0054 14       		.byte	20
 838 0055 03       		.byte	3
 839 0056 15       		.byte	21
ARM GAS  C:\Users\Jeppe\AppData\Local\Temp\ccmrHzJ3.s 			page 30


 840 0057 21       		.byte	33
 841 0058 16       		.byte	22
 842 0059 8C       		.byte	-116
 843 005a 17       		.byte	23
 844 005b 82       		.byte	-126
 845 005c 18       		.byte	24
 846 005d 30       		.byte	48
 847 005e 19       		.byte	25
 848 005f 07       		.byte	7
 849 0060 1A       		.byte	26
 850 0061 8C       		.byte	-116
 851 0062 1D       		.byte	29
 852 0063 65       		.byte	101
 853 0064 1F       		.byte	31
 854 0065 02       		.byte	2
 855 0066 20       		.byte	32
 856 0067 40       		.byte	64
 857 0068 24       		.byte	36
 858 0069 BF       		.byte	-65
 859 006a 25       		.byte	37
 860 006b 08       		.byte	8
 861 006c 27       		.byte	39
 862 006d 10       		.byte	16
 863 006e 29       		.byte	41
 864 006f 67       		.byte	103
 865 0070 30       		.byte	48
 866 0071 80       		.byte	-128
 867 0072 31       		.byte	49
 868 0073 1F       		.byte	31
 869 0074 32       		.byte	50
 870 0075 7F       		.byte	127
 871 0076 35       		.byte	53
 872 0077 60       		.byte	96
 873 0078 37       		.byte	55
 874 0079 80       		.byte	-128
 875 007a 3A       		.byte	58
 876 007b 0C       		.byte	12
 877 007c 40       		.byte	64
 878 007d 30       		.byte	48
 879 007e 41       		.byte	65
 880 007f 05       		.byte	5
 881 0080 45       		.byte	69
 882 0081 01       		.byte	1
 883 0082 47       		.byte	71
 884 0083 20       		.byte	32
 885 0084 48       		.byte	72
 886 0085 21       		.byte	33
 887 0086 49       		.byte	73
 888 0087 FF       		.byte	-1
 889 0088 4A       		.byte	74
 890 0089 FF       		.byte	-1
 891 008a 4B       		.byte	75
 892 008b FF       		.byte	-1
 893 008c 4D       		.byte	77
 894 008d A0       		.byte	-96
 895 008e 4F       		.byte	79
 896 008f 04       		.byte	4
ARM GAS  C:\Users\Jeppe\AppData\Local\Temp\ccmrHzJ3.s 			page 31


 897 0090 50       		.byte	80
 898 0091 18       		.byte	24
 899 0092 52       		.byte	82
 900 0093 03       		.byte	3
 901 0094 58       		.byte	88
 902 0095 0C       		.byte	12
 903 0096 59       		.byte	89
 904 0097 0C       		.byte	12
 905 0098 5A       		.byte	90
 906 0099 0C       		.byte	12
 907 009a 5B       		.byte	91
 908 009b 0C       		.byte	12
 909 009c 5C       		.byte	92
 910 009d 11       		.byte	17
 911 009e 5D       		.byte	93
 912 009f 11       		.byte	17
 913 00a0 5F       		.byte	95
 914 00a1 01       		.byte	1
 915 00a2 60       		.byte	96
 916 00a3 40       		.byte	64
 917 00a4 62       		.byte	98
 918 00a5 C0       		.byte	-64
 919 00a6 64       		.byte	100
 920 00a7 40       		.byte	64
 921 00a8 65       		.byte	101
 922 00a9 40       		.byte	64
 923 00aa 66       		.byte	102
 924 00ab C0       		.byte	-64
 925 00ac 68       		.byte	104
 926 00ad C0       		.byte	-64
 927 00ae 6A       		.byte	106
 928 00af C0       		.byte	-64
 929 00b0 6C       		.byte	108
 930 00b1 C0       		.byte	-64
 931 00b2 6E       		.byte	110
 932 00b3 C0       		.byte	-64
 933 00b4 80       		.byte	-128
 934 00b5 02       		.byte	2
 935 00b6 82       		.byte	-126
 936 00b7 05       		.byte	5
 937 00b8 86       		.byte	-122
 938 00b9 10       		.byte	16
 939 00ba 89       		.byte	-119
 940 00bb 08       		.byte	8
 941 00bc 8A       		.byte	-118
 942 00bd 1A       		.byte	26
 943 00be 8B       		.byte	-117
 944 00bf 06       		.byte	6
 945 00c0 8D       		.byte	-115
 946 00c1 0D       		.byte	13
 947 00c2 94       		.byte	-108
 948 00c3 01       		.byte	1
 949 00c4 95       		.byte	-107
 950 00c5 02       		.byte	2
 951 00c6 96       		.byte	-106
 952 00c7 02       		.byte	2
 953 00c8 97       		.byte	-105
ARM GAS  C:\Users\Jeppe\AppData\Local\Temp\ccmrHzJ3.s 			page 32


 954 00c9 0D       		.byte	13
 955 00ca 98       		.byte	-104
 956 00cb 04       		.byte	4
 957 00cc 9A       		.byte	-102
 958 00cd 02       		.byte	2
 959 00ce 9D       		.byte	-99
 960 00cf 0B       		.byte	11
 961 00d0 9F       		.byte	-97
 962 00d1 04       		.byte	4
 963 00d2 A2       		.byte	-94
 964 00d3 08       		.byte	8
 965 00d4 A5       		.byte	-91
 966 00d5 0D       		.byte	13
 967 00d6 A9       		.byte	-87
 968 00d7 01       		.byte	1
 969 00d8 AB       		.byte	-85
 970 00d9 06       		.byte	6
 971 00da AE       		.byte	-82
 972 00db 20       		.byte	32
 973 00dc B2       		.byte	-78
 974 00dd 20       		.byte	32
 975 00de B4       		.byte	-76
 976 00df 1F       		.byte	31
 977 00e0 B5       		.byte	-75
 978 00e1 0F       		.byte	15
 979 00e2 BB       		.byte	-69
 980 00e3 20       		.byte	32
 981 00e4 C0       		.byte	-64
 982 00e5 45       		.byte	69
 983 00e6 C5       		.byte	-59
 984 00e7 EC       		.byte	-20
 985 00e8 C6       		.byte	-58
 986 00e9 02       		.byte	2
 987 00ea C8       		.byte	-56
 988 00eb 07       		.byte	7
 989 00ec C9       		.byte	-55
 990 00ed FF       		.byte	-1
 991 00ee CA       		.byte	-54
 992 00ef FF       		.byte	-1
 993 00f0 CB       		.byte	-53
 994 00f1 FF       		.byte	-1
 995 00f2 CF       		.byte	-49
 996 00f3 01       		.byte	1
 997 00f4 D0       		.byte	-48
 998 00f5 18       		.byte	24
 999 00f6 D2       		.byte	-46
 1000 00f7 80       		.byte	-128
 1001 00f8 D8       		.byte	-40
 1002 00f9 0C       		.byte	12
 1003 00fa D9       		.byte	-39
 1004 00fb 0C       		.byte	12
 1005 00fc DA       		.byte	-38
 1006 00fd 04       		.byte	4
 1007 00fe DB       		.byte	-37
 1008 00ff 04       		.byte	4
 1009 0100 DC       		.byte	-36
 1010 0101 11       		.byte	17
ARM GAS  C:\Users\Jeppe\AppData\Local\Temp\ccmrHzJ3.s 			page 33


 1011 0102 DD       		.byte	-35
 1012 0103 12       		.byte	18
 1013 0104 DF       		.byte	-33
 1014 0105 01       		.byte	1
 1015 0106 E0       		.byte	-32
 1016 0107 40       		.byte	64
 1017 0108 E2       		.byte	-30
 1018 0109 40       		.byte	64
 1019 010a E4       		.byte	-28
 1020 010b 40       		.byte	64
 1021 010c E5       		.byte	-27
 1022 010d 40       		.byte	64
 1023 010e E6       		.byte	-26
 1024 010f 80       		.byte	-128
 1025 0110 E8       		.byte	-24
 1026 0111 80       		.byte	-128
 1027 0112 EA       		.byte	-22
 1028 0113 80       		.byte	-128
 1029 0114 EC       		.byte	-20
 1030 0115 80       		.byte	-128
 1031 0116 EE       		.byte	-18
 1032 0117 80       		.byte	-128
 1033 0118 00       		.byte	0
 1034 0119 54       		.byte	84
 1035 011a 04       		.byte	4
 1036 011b 01       		.byte	1
 1037 011c 05       		.byte	5
 1038 011d 18       		.byte	24
 1039 011e 09       		.byte	9
 1040 011f 08       		.byte	8
 1041 0120 0A       		.byte	10
 1042 0121 80       		.byte	-128
 1043 0122 0B       		.byte	11
 1044 0123 08       		.byte	8
 1045 0124 0C       		.byte	12
 1046 0125 20       		.byte	32
 1047 0126 0D       		.byte	13
 1048 0127 08       		.byte	8
 1049 0128 13       		.byte	19
 1050 0129 0A       		.byte	10
 1051 012a 15       		.byte	21
 1052 012b 42       		.byte	66
 1053 012c 17       		.byte	23
 1054 012d 40       		.byte	64
 1055 012e 18       		.byte	24
 1056 012f 10       		.byte	16
 1057 0130 19       		.byte	25
 1058 0131 08       		.byte	8
 1059 0132 1B       		.byte	27
 1060 0133 01       		.byte	1
 1061 0134 1C       		.byte	28
 1062 0135 04       		.byte	4
 1063 0136 1D       		.byte	29
 1064 0137 18       		.byte	24
 1065 0138 1F       		.byte	31
 1066 0139 08       		.byte	8
 1067 013a 20       		.byte	32
ARM GAS  C:\Users\Jeppe\AppData\Local\Temp\ccmrHzJ3.s 			page 34


 1068 013b 41       		.byte	65
 1069 013c 21       		.byte	33
 1070 013d 11       		.byte	17
 1071 013e 22       		.byte	34
 1072 013f C0       		.byte	-64
 1073 0140 25       		.byte	37
 1074 0141 20       		.byte	32
 1075 0142 27       		.byte	39
 1076 0143 08       		.byte	8
 1077 0144 29       		.byte	41
 1078 0145 18       		.byte	24
 1079 0146 2D       		.byte	45
 1080 0147 08       		.byte	8
 1081 0148 2F       		.byte	47
 1082 0149 08       		.byte	8
 1083 014a 31       		.byte	49
 1084 014b 28       		.byte	40
 1085 014c 32       		.byte	50
 1086 014d 40       		.byte	64
 1087 014e 36       		.byte	54
 1088 014f 80       		.byte	-128
 1089 0150 37       		.byte	55
 1090 0151 08       		.byte	8
 1091 0152 38       		.byte	56
 1092 0153 40       		.byte	64
 1093 0154 39       		.byte	57
 1094 0155 10       		.byte	16
 1095 0156 3B       		.byte	59
 1096 0157 08       		.byte	8
 1097 0158 3C       		.byte	60
 1098 0159 60       		.byte	96
 1099 015a 41       		.byte	65
 1100 015b 08       		.byte	8
 1101 015c 46       		.byte	70
 1102 015d 80       		.byte	-128
 1103 015e 48       		.byte	72
 1104 015f 32       		.byte	50
 1105 0160 4B       		.byte	75
 1106 0161 08       		.byte	8
 1107 0162 4D       		.byte	77
 1108 0163 01       		.byte	1
 1109 0164 4F       		.byte	79
 1110 0165 84       		.byte	-124
 1111 0166 50       		.byte	80
 1112 0167 02       		.byte	2
 1113 0168 57       		.byte	87
 1114 0169 40       		.byte	64
 1115 016a 69       		.byte	105
 1116 016b 10       		.byte	16
 1117 016c 6B       		.byte	107
 1118 016d 02       		.byte	2
 1119 016e 77       		.byte	119
 1120 016f 40       		.byte	64
 1121 0170 79       		.byte	121
 1122 0171 40       		.byte	64
 1123 0172 7D       		.byte	125
 1124 0173 40       		.byte	64
ARM GAS  C:\Users\Jeppe\AppData\Local\Temp\ccmrHzJ3.s 			page 35


 1125 0174 C0       		.byte	-64
 1126 0175 77       		.byte	119
 1127 0176 C2       		.byte	-62
 1128 0177 6E       		.byte	110
 1129 0178 C4       		.byte	-60
 1130 0179 9C       		.byte	-100
 1131 017a CA       		.byte	-54
 1132 017b 66       		.byte	102
 1133 017c CC       		.byte	-52
 1134 017d 5E       		.byte	94
 1135 017e CE       		.byte	-50
 1136 017f 3E       		.byte	62
 1137 0180 D0       		.byte	-48
 1138 0181 82       		.byte	-126
 1139 0182 D2       		.byte	-46
 1140 0183 18       		.byte	24
 1141 0184 DE       		.byte	-34
 1142 0185 18       		.byte	24
 1143 0186 02       		.byte	2
 1144 0187 40       		.byte	64
 1145 0188 04       		.byte	4
 1146 0189 09       		.byte	9
 1147 018a 06       		.byte	6
 1148 018b 10       		.byte	16
 1149 018c 08       		.byte	8
 1150 018d 1C       		.byte	28
 1151 018e 0A       		.byte	10
 1152 018f 02       		.byte	2
 1153 0190 0C       		.byte	12
 1154 0191 0C       		.byte	12
 1155 0192 0E       		.byte	14
 1156 0193 11       		.byte	17
 1157 0194 0F       		.byte	15
 1158 0195 01       		.byte	1
 1159 0196 12       		.byte	18
 1160 0197 40       		.byte	64
 1161 0198 14       		.byte	20
 1162 0199 20       		.byte	32
 1163 019a 16       		.byte	22
 1164 019b 03       		.byte	3
 1165 019c 18       		.byte	24
 1166 019d 10       		.byte	16
 1167 019e 1A       		.byte	26
 1168 019f 0C       		.byte	12
 1169 01a0 24       		.byte	36
 1170 01a1 14       		.byte	20
 1171 01a2 28       		.byte	40
 1172 01a3 80       		.byte	-128
 1173 01a4 2C       		.byte	44
 1174 01a5 10       		.byte	16
 1175 01a6 2F       		.byte	47
 1176 01a7 01       		.byte	1
 1177 01a8 30       		.byte	48
 1178 01a9 40       		.byte	64
 1179 01aa 32       		.byte	50
 1180 01ab 1F       		.byte	31
 1181 01ac 33       		.byte	51
ARM GAS  C:\Users\Jeppe\AppData\Local\Temp\ccmrHzJ3.s 			page 36


 1182 01ad 01       		.byte	1
 1183 01ae 34       		.byte	52
 1184 01af 20       		.byte	32
 1185 01b0 36       		.byte	54
 1186 01b1 80       		.byte	-128
 1187 01b2 3E       		.byte	62
 1188 01b3 51       		.byte	81
 1189 01b4 40       		.byte	64
 1190 01b5 32       		.byte	50
 1191 01b6 41       		.byte	65
 1192 01b7 04       		.byte	4
 1193 01b8 45       		.byte	69
 1194 01b9 E0       		.byte	-32
 1195 01ba 46       		.byte	70
 1196 01bb BC       		.byte	-68
 1197 01bc 48       		.byte	72
 1198 01bd 0E       		.byte	14
 1199 01be 49       		.byte	73
 1200 01bf FF       		.byte	-1
 1201 01c0 4A       		.byte	74
 1202 01c1 FF       		.byte	-1
 1203 01c2 4B       		.byte	75
 1204 01c3 FF       		.byte	-1
 1205 01c4 4E       		.byte	78
 1206 01c5 F0       		.byte	-16
 1207 01c6 4F       		.byte	79
 1208 01c7 44       		.byte	68
 1209 01c8 50       		.byte	80
 1210 01c9 0C       		.byte	12
 1211 01ca 52       		.byte	82
 1212 01cb 80       		.byte	-128
 1213 01cc 54       		.byte	84
 1214 01cd 01       		.byte	1
 1215 01ce 58       		.byte	88
 1216 01cf 04       		.byte	4
 1217 01d0 59       		.byte	89
 1218 01d1 04       		.byte	4
 1219 01d2 5A       		.byte	90
 1220 01d3 04       		.byte	4
 1221 01d4 5B       		.byte	91
 1222 01d5 04       		.byte	4
 1223 01d6 5C       		.byte	92
 1224 01d7 23       		.byte	35
 1225 01d8 5D       		.byte	93
 1226 01d9 23       		.byte	35
 1227 01da 5F       		.byte	95
 1228 01db 01       		.byte	1
 1229 01dc 66       		.byte	102
 1230 01dd C0       		.byte	-64
 1231 01de 6A       		.byte	106
 1232 01df 40       		.byte	64
 1233 01e0 6B       		.byte	107
 1234 01e1 02       		.byte	2
 1235 01e2 85       		.byte	-123
 1236 01e3 80       		.byte	-128
 1237 01e4 86       		.byte	-122
 1238 01e5 1C       		.byte	28
ARM GAS  C:\Users\Jeppe\AppData\Local\Temp\ccmrHzJ3.s 			page 37


 1239 01e6 87       		.byte	-121
 1240 01e7 15       		.byte	21
 1241 01e8 88       		.byte	-120
 1242 01e9 1C       		.byte	28
 1243 01ea 8A       		.byte	-118
 1244 01eb 43       		.byte	67
 1245 01ec 8C       		.byte	-116
 1246 01ed 41       		.byte	65
 1247 01ee 8E       		.byte	-114
 1248 01ef 0E       		.byte	14
 1249 01f0 90       		.byte	-112
 1250 01f1 20       		.byte	32
 1251 01f2 94       		.byte	-108
 1252 01f3 41       		.byte	65
 1253 01f4 95       		.byte	-107
 1254 01f5 73       		.byte	115
 1255 01f6 96       		.byte	-106
 1256 01f7 16       		.byte	22
 1257 01f8 97       		.byte	-105
 1258 01f9 0C       		.byte	12
 1259 01fa 9B       		.byte	-101
 1260 01fb 08       		.byte	8
 1261 01fc 9E       		.byte	-98
 1262 01fd 40       		.byte	64
 1263 01fe A1       		.byte	-95
 1264 01ff 73       		.byte	115
 1265 0200 A3       		.byte	-93
 1266 0201 04       		.byte	4
 1267 0202 A6       		.byte	-90
 1268 0203 08       		.byte	8
 1269 0204 A9       		.byte	-87
 1270 0205 2A       		.byte	42
 1271 0206 AA       		.byte	-86
 1272 0207 43       		.byte	67
 1273 0208 AB       		.byte	-85
 1274 0209 44       		.byte	68
 1275 020a AD       		.byte	-83
 1276 020b 03       		.byte	3
 1277 020c AF       		.byte	-81
 1278 020d 04       		.byte	4
 1279 020e B0       		.byte	-80
 1280 020f 1A       		.byte	26
 1281 0210 B1       		.byte	-79
 1282 0211 30       		.byte	48
 1283 0212 B2       		.byte	-78
 1284 0213 20       		.byte	32
 1285 0214 B3       		.byte	-77
 1286 0215 0F       		.byte	15
 1287 0216 B4       		.byte	-76
 1288 0217 0F       		.byte	15
 1289 0218 B5       		.byte	-75
 1290 0219 C0       		.byte	-64
 1291 021a B6       		.byte	-74
 1292 021b 40       		.byte	64
 1293 021c B9       		.byte	-71
 1294 021d 22       		.byte	34
 1295 021e BA       		.byte	-70
ARM GAS  C:\Users\Jeppe\AppData\Local\Temp\ccmrHzJ3.s 			page 38


 1296 021f 22       		.byte	34
 1297 0220 BB       		.byte	-69
 1298 0221 08       		.byte	8
 1299 0222 BE       		.byte	-66
 1300 0223 44       		.byte	68
 1301 0224 BF       		.byte	-65
 1302 0225 01       		.byte	1
 1303 0226 C0       		.byte	-64
 1304 0227 05       		.byte	5
 1305 0228 C5       		.byte	-59
 1306 0229 04       		.byte	4
 1307 022a C9       		.byte	-55
 1308 022b FF       		.byte	-1
 1309 022c CA       		.byte	-54
 1310 022d 07       		.byte	7
 1311 022e CB       		.byte	-53
 1312 022f FF       		.byte	-1
 1313 0230 CC       		.byte	-52
 1314 0231 40       		.byte	64
 1315 0232 CD       		.byte	-51
 1316 0233 20       		.byte	32
 1317 0234 CE       		.byte	-50
 1318 0235 F0       		.byte	-16
 1319 0236 CF       		.byte	-49
 1320 0237 05       		.byte	5
 1321 0238 D0       		.byte	-48
 1322 0239 08       		.byte	8
 1323 023a D4       		.byte	-44
 1324 023b 01       		.byte	1
 1325 023c D8       		.byte	-40
 1326 023d 04       		.byte	4
 1327 023e D9       		.byte	-39
 1328 023f 04       		.byte	4
 1329 0240 DA       		.byte	-38
 1330 0241 04       		.byte	4
 1331 0242 DB       		.byte	-37
 1332 0243 04       		.byte	4
 1333 0244 DC       		.byte	-36
 1334 0245 33       		.byte	51
 1335 0246 DD       		.byte	-35
 1336 0247 33       		.byte	51
 1337 0248 DF       		.byte	-33
 1338 0249 01       		.byte	1
 1339 024a E0       		.byte	-32
 1340 024b 40       		.byte	64
 1341 024c E1       		.byte	-31
 1342 024d A8       		.byte	-88
 1343 024e E2       		.byte	-30
 1344 024f 40       		.byte	64
 1345 0250 E3       		.byte	-29
 1346 0251 20       		.byte	32
 1347 0252 00       		.byte	0
 1348 0253 44       		.byte	68
 1349 0254 01       		.byte	1
 1350 0255 20       		.byte	32
 1351 0256 04       		.byte	4
 1352 0257 44       		.byte	68
ARM GAS  C:\Users\Jeppe\AppData\Local\Temp\ccmrHzJ3.s 			page 39


 1353 0258 05       		.byte	5
 1354 0259 20       		.byte	32
 1355 025a 06       		.byte	6
 1356 025b 80       		.byte	-128
 1357 025c 09       		.byte	9
 1358 025d 48       		.byte	72
 1359 025e 0A       		.byte	10
 1360 025f 80       		.byte	-128
 1361 0260 0B       		.byte	11
 1362 0261 02       		.byte	2
 1363 0262 0C       		.byte	12
 1364 0263 10       		.byte	16
 1365 0264 0E       		.byte	14
 1366 0265 10       		.byte	16
 1367 0266 0F       		.byte	15
 1368 0267 80       		.byte	-128
 1369 0268 10       		.byte	16
 1370 0269 28       		.byte	40
 1371 026a 16       		.byte	22
 1372 026b 28       		.byte	40
 1373 026c 17       		.byte	23
 1374 026d 80       		.byte	-128
 1375 026e 18       		.byte	24
 1376 026f 40       		.byte	64
 1377 0270 19       		.byte	25
 1378 0271 65       		.byte	101
 1379 0272 1E       		.byte	30
 1380 0273 50       		.byte	80
 1381 0274 1F       		.byte	31
 1382 0275 60       		.byte	96
 1383 0276 20       		.byte	32
 1384 0277 04       		.byte	4
 1385 0278 21       		.byte	33
 1386 0279 08       		.byte	8
 1387 027a 22       		.byte	34
 1388 027b 12       		.byte	18
 1389 027c 26       		.byte	38
 1390 027d 08       		.byte	8
 1391 027e 28       		.byte	40
 1392 027f 80       		.byte	-128
 1393 0280 29       		.byte	41
 1394 0281 21       		.byte	33
 1395 0282 2A       		.byte	42
 1396 0283 40       		.byte	64
 1397 0284 2E       		.byte	46
 1398 0285 80       		.byte	-128
 1399 0286 31       		.byte	49
 1400 0287 08       		.byte	8
 1401 0288 32       		.byte	50
 1402 0289 10       		.byte	16
 1403 028a 38       		.byte	56
 1404 028b 08       		.byte	8
 1405 028c 3F       		.byte	63
 1406 028d 80       		.byte	-128
 1407 028e 44       		.byte	68
 1408 028f 90       		.byte	-112
 1409 0290 45       		.byte	69
ARM GAS  C:\Users\Jeppe\AppData\Local\Temp\ccmrHzJ3.s 			page 40


 1410 0291 08       		.byte	8
 1411 0292 46       		.byte	70
 1412 0293 04       		.byte	4
 1413 0294 48       		.byte	72
 1414 0295 20       		.byte	32
 1415 0296 4A       		.byte	74
 1416 0297 02       		.byte	2
 1417 0298 4D       		.byte	77
 1418 0299 02       		.byte	2
 1419 029a 4E       		.byte	78
 1420 029b 40       		.byte	64
 1421 029c 50       		.byte	80
 1422 029d 0C       		.byte	12
 1423 029e 52       		.byte	82
 1424 029f 04       		.byte	4
 1425 02a0 55       		.byte	85
 1426 02a1 40       		.byte	64
 1427 02a2 56       		.byte	86
 1428 02a3 60       		.byte	96
 1429 02a4 59       		.byte	89
 1430 02a5 56       		.byte	86
 1431 02a6 5D       		.byte	93
 1432 02a7 01       		.byte	1
 1433 02a8 5E       		.byte	94
 1434 02a9 40       		.byte	64
 1435 02aa 5F       		.byte	95
 1436 02ab 04       		.byte	4
 1437 02ac 76       		.byte	118
 1438 02ad 80       		.byte	-128
 1439 02ae 86       		.byte	-122
 1440 02af 08       		.byte	8
 1441 02b0 88       		.byte	-120
 1442 02b1 20       		.byte	32
 1443 02b2 8B       		.byte	-117
 1444 02b3 A0       		.byte	-96
 1445 02b4 8D       		.byte	-115
 1446 02b5 10       		.byte	16
 1447 02b6 8E       		.byte	-114
 1448 02b7 08       		.byte	8
 1449 02b8 8F       		.byte	-113
 1450 02b9 01       		.byte	1
 1451 02ba 91       		.byte	-111
 1452 02bb 01       		.byte	1
 1453 02bc 93       		.byte	-109
 1454 02bd 04       		.byte	4
 1455 02be 97       		.byte	-105
 1456 02bf 80       		.byte	-128
 1457 02c0 9E       		.byte	-98
 1458 02c1 80       		.byte	-128
 1459 02c2 A3       		.byte	-93
 1460 02c3 40       		.byte	64
 1461 02c4 AD       		.byte	-83
 1462 02c5 10       		.byte	16
 1463 02c6 AF       		.byte	-81
 1464 02c7 40       		.byte	64
 1465 02c8 B3       		.byte	-77
 1466 02c9 01       		.byte	1
ARM GAS  C:\Users\Jeppe\AppData\Local\Temp\ccmrHzJ3.s 			page 41


 1467 02ca C0       		.byte	-64
 1468 02cb F7       		.byte	-9
 1469 02cc C2       		.byte	-62
 1470 02cd 7D       		.byte	125
 1471 02ce C4       		.byte	-60
 1472 02cf E6       		.byte	-26
 1473 02d0 CA       		.byte	-54
 1474 02d1 1D       		.byte	29
 1475 02d2 CC       		.byte	-52
 1476 02d3 06       		.byte	6
 1477 02d4 CE       		.byte	-50
 1478 02d5 12       		.byte	18
 1479 02d6 D0       		.byte	-48
 1480 02d7 E0       		.byte	-32
 1481 02d8 D2       		.byte	-46
 1482 02d9 08       		.byte	8
 1483 02da D6       		.byte	-42
 1484 02db DF       		.byte	-33
 1485 02dc E2       		.byte	-30
 1486 02dd 80       		.byte	-128
 1487 02de E6       		.byte	-26
 1488 02df 40       		.byte	64
 1489 02e0 E8       		.byte	-24
 1490 02e1 02       		.byte	2
 1491 02e2 6F       		.byte	111
 1492 02e3 02       		.byte	2
 1493 02e4 73       		.byte	115
 1494 02e5 08       		.byte	8
 1495 02e6 DA       		.byte	-38
 1496 02e7 80       		.byte	-128
 1497 02e8 DC       		.byte	-36
 1498 02e9 20       		.byte	32
 1499 02ea 0F       		.byte	15
 1500 02eb 40       		.byte	64
 1501 02ec 67       		.byte	103
 1502 02ed 08       		.byte	8
 1503 02ee 87       		.byte	-121
 1504 02ef 40       		.byte	64
 1505 02f0 8B       		.byte	-117
 1506 02f1 04       		.byte	4
 1507 02f2 8F       		.byte	-113
 1508 02f3 08       		.byte	8
 1509 02f4 9F       		.byte	-97
 1510 02f5 08       		.byte	8
 1511 02f6 AF       		.byte	-81
 1512 02f7 02       		.byte	2
 1513 02f8 C2       		.byte	-62
 1514 02f9 20       		.byte	32
 1515 02fa D8       		.byte	-40
 1516 02fb 80       		.byte	-128
 1517 02fc E4       		.byte	-28
 1518 02fd 40       		.byte	64
 1519 02fe EA       		.byte	-22
 1520 02ff 10       		.byte	16
 1521 0300 52       		.byte	82
 1522 0301 02       		.byte	2
 1523 0302 54       		.byte	84
ARM GAS  C:\Users\Jeppe\AppData\Local\Temp\ccmrHzJ3.s 			page 42


 1524 0303 01       		.byte	1
 1525 0304 D4       		.byte	-44
 1526 0305 01       		.byte	1
 1527 0306 D6       		.byte	-42
 1528 0307 04       		.byte	4
 1529 0308 AE       		.byte	-82
 1530 0309 02       		.byte	2
 1531 030a B0       		.byte	-80
 1532 030b 01       		.byte	1
 1533 030c E8       		.byte	-24
 1534 030d 01       		.byte	1
 1535 030e 10       		.byte	16
 1536 030f 0E       		.byte	14
 1537 0310 11       		.byte	17
 1538 0311 01       		.byte	1
 1539 0312 0000     		.text
 1540              	.Letext0:
 1541              		.file 2 "c:\\program files (x86)\\cypress\\psoc creator\\3.1\\psoc creator\\import\\gnu_cs\\arm\\4
 1542              		.file 3 ".\\Generated_Source\\PSoC4/cytypes.h"