ARM GAS  C:\Users\Jeppe\AppData\Local\Temp\ccGnhrxh.s 			page 1


   1              		.cpu cortex-m0
   2              		.fpu softvfp
   3              		.eabi_attribute 20, 1
   4              		.eabi_attribute 21, 1
   5              		.eabi_attribute 23, 3
   6              		.eabi_attribute 24, 1
   7              		.eabi_attribute 25, 1
   8              		.eabi_attribute 26, 1
   9              		.eabi_attribute 30, 6
  10              		.eabi_attribute 34, 0
  11              		.eabi_attribute 18, 4
  12              		.code	16
  13              		.file	"sensorFortolker.c"
  14              		.text
  15              	.Ltext0:
  16              		.cfi_sections	.debug_frame
  17              		.global	imuInitArray
  18              		.section	.rodata
  19              		.align	2
  20              		.type	imuInitArray, %object
  21              		.size	imuInitArray, 10
  22              	imuInitArray:
  23 0000 19       		.byte	25
  24 0001 04       		.byte	4
  25 0002 1A       		.byte	26
  26 0003 05       		.byte	5
  27 0004 1B       		.byte	27
  28 0005 18       		.byte	24
  29 0006 1C       		.byte	28
  30 0007 08       		.byte	8
  31 0008 6B       		.byte	107
  32 0009 01       		.byte	1
  33              		.global	dataReady
  34 000a 0000     		.bss
  35              		.type	dataReady, %object
  36              		.size	dataReady, 1
  37              	dataReady:
  38 0000 00       		.space	1
  39              		.global	endstop_
  40              		.type	endstop_, %object
  41              		.size	endstop_, 1
  42              	endstop_:
  43 0001 00       		.space	1
  44              		.global	accData
  45 0002 0000     		.align	2
  46              		.type	accData, %object
  47              		.size	accData, 8
  48              	accData:
  49 0004 00000000 		.space	8
  49      00000000 
  50              		.global	gyroData
  51              		.align	2
  52              		.type	gyroData, %object
  53              		.size	gyroData, 4
  54              	gyroData:
  55 000c 00000000 		.space	4
  56              		.global	prevAng
ARM GAS  C:\Users\Jeppe\AppData\Local\Temp\ccGnhrxh.s 			page 2


  57              		.align	2
  58              		.type	prevAng, %object
  59              		.size	prevAng, 4
  60              	prevAng:
  61 0010 00000000 		.space	4
  62              		.global	accAng
  63              		.align	2
  64              		.type	accAng, %object
  65              		.size	accAng, 4
  66              	accAng:
  67 0014 00000000 		.space	4
  68              		.global	estAng
  69              		.align	2
  70              		.type	estAng, %object
  71              		.size	estAng, 4
  72              	estAng:
  73 0018 00000000 		.space	4
  74              		.global	stallCount
  75              		.type	stallCount, %object
  76              		.size	stallCount, 1
  77              	stallCount:
  78 001c 00       		.space	1
  79 001d 000000   		.section	.text.initSensors,"ax",%progbits
  80              		.align	2
  81              		.global	initSensors
  82              		.code	16
  83              		.thumb_func
  84              		.type	initSensors, %function
  85              	initSensors:
  86              	.LFB33:
  87              		.file 1 ".\\sensorFortolker.c"
   1:.\sensorFortolker.c **** /* ========================================
   2:.\sensorFortolker.c ****  *
   3:.\sensorFortolker.c ****  * Copyright Baby Watch, 2015
   4:.\sensorFortolker.c ****  * All Rights Reserved
   5:.\sensorFortolker.c ****  * UNPUBLISHED, LICENSED SOFTWARE.
   6:.\sensorFortolker.c ****  *
   7:.\sensorFortolker.c ****  * CONFIDENTIAL AND PROPRIETARY INFORMATION
   8:.\sensorFortolker.c ****  * WHICH IS THE PROPERTY OF Baby Watch.
   9:.\sensorFortolker.c ****  *
  10:.\sensorFortolker.c ****  * ========================================
  11:.\sensorFortolker.c **** */
  12:.\sensorFortolker.c **** //========================================================================
  13:.\sensorFortolker.c **** // FILENAME : sensorFortolker.c
  14:.\sensorFortolker.c **** // CREATED : 03-03-2015
  15:.\sensorFortolker.c **** // AUTHOR  : Jeppe Hofni
  16:.\sensorFortolker.c **** // DESCR.  : c file for PSoC4
  17:.\sensorFortolker.c **** //
  18:.\sensorFortolker.c **** //------------------------------------------------------------------------
  19:.\sensorFortolker.c **** //
  20:.\sensorFortolker.c **** // REV.  DATE/AUTHOR  CHANGE DESCRIPTION
  21:.\sensorFortolker.c **** // 0.1  03-03-2015 - Jeppe - First writeup of vuggeControl.c
  22:.\sensorFortolker.c **** // 0.2	30-04-2015 - Jeppe - getEndstopGPIO implemented
  23:.\sensorFortolker.c **** // 0.3	23-05-2015 - Felix Blix - Proper implemented
  24:.\sensorFortolker.c **** //------------------------------------------------------------------------
  25:.\sensorFortolker.c **** // KNOWN ISSUES:
  26:.\sensorFortolker.c **** // REV. - ISSUE(S)
ARM GAS  C:\Users\Jeppe\AppData\Local\Temp\ccGnhrxh.s 			page 3


  27:.\sensorFortolker.c **** // 0.1 - Needs to be sorted proper
  28:.\sensorFortolker.c **** // 0.2 - SensorFortolker needs finished implementation
  29:.\sensorFortolker.c **** // 0.3 - Motor positionssensor not implemented
  30:.\sensorFortolker.c **** //========================================================================
  31:.\sensorFortolker.c **** 
  32:.\sensorFortolker.c **** //includes
  33:.\sensorFortolker.c **** #include "sensorFortolker.h"
  34:.\sensorFortolker.c **** #include <stdio.h>
  35:.\sensorFortolker.c **** #include <fixedMath.h>
  36:.\sensorFortolker.c **** #include "globals.h"
  37:.\sensorFortolker.c **** 
  38:.\sensorFortolker.c **** /*        -------------------        MACROS       --------------------          */
  39:.\sensorFortolker.c **** //sample rate and sample period
  40:.\sensorFortolker.c **** #define FS 200
  41:.\sensorFortolker.c **** #define DT 328 // 65536/FS //dt defined as a 16.16 fixed point number
  42:.\sensorFortolker.c **** 
  43:.\sensorFortolker.c **** /* The scale factor of the mpu6050 gyroscope is 16.4 Lsb per    *
  44:.\sensorFortolker.c ****  * deg/s, converted to 16.16 fixed point. (2^16/16.4  )         */
  45:.\sensorFortolker.c **** #define GYRO_SCALE_FACTOR 3996
  46:.\sensorFortolker.c **** 
  47:.\sensorFortolker.c **** /* The accelerometer scale factor of the mpu6050 accelerometer  *
  48:.\sensorFortolker.c ****  * in the +- 4g range is 8192 Lsb/g, converted to 16.16 fixed   *
  49:.\sensorFortolker.c ****  * point. (2^16/8192)                                           */
  50:.\sensorFortolker.c **** #define ACC_SCALE_FACTOR 8
  51:.\sensorFortolker.c **** 
  52:.\sensorFortolker.c **** #define GYRO_WEIGHT 58982 //0.90 * 2^16
  53:.\sensorFortolker.c **** #define ACC_WEIGHT 6554 // (1 - gyro_weight) * 2^16
  54:.\sensorFortolker.c **** 
  55:.\sensorFortolker.c **** //I2C defines
  56:.\sensorFortolker.c **** #define IMU_ADDRESS 0b1101000 //+1 for alt
  57:.\sensorFortolker.c **** 
  58:.\sensorFortolker.c **** #define GYRO_FIRST_DATA 0x43 //this is X_H which will be followed by X_L
  59:.\sensorFortolker.c **** #define ACC_FIRST_DATA 0x3D //first in seq. Y_H, Y_L, Z_H, Z_L
  60:.\sensorFortolker.c **** 
  61:.\sensorFortolker.c **** #define IMU_INIT_LEN 5
  62:.\sensorFortolker.c **** const uint8_t imuInitArray[IMU_INIT_LEN][2] = {
  63:.\sensorFortolker.c ****     {0x19, 4},              //set the datarate to 200Hz (1kHz/1+4)
  64:.\sensorFortolker.c ****     {0x1A, 5},              //set dlpf freq to 44 and 42 for acc and gyro respectively
  65:.\sensorFortolker.c ****     {0x1B, 24},             //gyro range = +/-2000 deg/s
  66:.\sensorFortolker.c ****     {0x1C, 8},              //acc range = +/-4g
  67:.\sensorFortolker.c ****     {0x6B, 1}               //set clk source to x gyro
  68:.\sensorFortolker.c **** };
  69:.\sensorFortolker.c **** 
  70:.\sensorFortolker.c **** /*        -------------------        END MACROS       --------------------          */
  71:.\sensorFortolker.c **** 
  72:.\sensorFortolker.c **** //flags
  73:.\sensorFortolker.c **** volatile BOOL dataReady = FALSE, endstop_ = FALSE;
  74:.\sensorFortolker.c **** //raw data
  75:.\sensorFortolker.c **** fix16_t accData[2] = {0, 0}, gyroData = 0;
  76:.\sensorFortolker.c **** //calculated angles
  77:.\sensorFortolker.c **** fix16_t prevAng = 0, accAng = 0, estAng = 0;
  78:.\sensorFortolker.c **** uint8_t stallCount = 0;
  79:.\sensorFortolker.c **** 
  80:.\sensorFortolker.c **** 
  81:.\sensorFortolker.c **** 
  82:.\sensorFortolker.c **** /*        --------------        FUNCTION DEFINITIONS       ---------------          */ 
  83:.\sensorFortolker.c **** 
ARM GAS  C:\Users\Jeppe\AppData\Local\Temp\ccGnhrxh.s 			page 4


  84:.\sensorFortolker.c **** /* Function initSensor         *
  85:.\sensorFortolker.c ****  * Summary:                    *
  86:.\sensorFortolker.c ****  * Initialtes sensorFortolker  *
  87:.\sensorFortolker.c ****  * to operation status         */
  88:.\sensorFortolker.c **** void initSensors()
  89:.\sensorFortolker.c **** {
  88              		.loc 1 89 0
  89              		.cfi_startproc
  90 0000 80B5     		push	{r7, lr}
  91              		.cfi_def_cfa_offset 8
  92              		.cfi_offset 7, -8
  93              		.cfi_offset 14, -4
  94 0002 82B0     		sub	sp, sp, #8
  95              		.cfi_def_cfa_offset 16
  96 0004 00AF     		add	r7, sp, #0
  97              		.cfi_def_cfa_register 7
  90:.\sensorFortolker.c ****     /* Start the Components */
  91:.\sensorFortolker.c ****     sensorI2C_Start();
  98              		.loc 1 91 0
  99 0006 FFF7FEFF 		bl	sensorI2C_Start
  92:.\sensorFortolker.c ****     //GYRO_DR_INT_StartEx(gyroDataReadyInterrupt);    
  93:.\sensorFortolker.c ****     Endstop_isr_StartEx(EndstopGPIO);
 100              		.loc 1 93 0
 101 000a 0C4B     		ldr	r3, .L4
 102 000c 181C     		mov	r0, r3
 103 000e FFF7FEFF 		bl	Endstop_isr_StartEx
  94:.\sensorFortolker.c ****     
  95:.\sensorFortolker.c ****     /* Setup the accelerometer and gyro */
  96:.\sensorFortolker.c ****     int i;
  97:.\sensorFortolker.c ****     for(i = 0; i < 10; i++){
 104              		.loc 1 97 0
 105 0012 0023     		mov	r3, #0
 106 0014 7B60     		str	r3, [r7, #4]
 107 0016 08E0     		b	.L2
 108              	.L3:
  98:.\sensorFortolker.c ****         setupI2CDevice(IMU_ADDRESS, imuInitArray, IMU_INIT_LEN);
 109              		.loc 1 98 0 discriminator 2
 110 0018 094B     		ldr	r3, .L4+4
 111 001a 6820     		mov	r0, #104
 112 001c 191C     		mov	r1, r3
 113 001e 0522     		mov	r2, #5
 114 0020 FFF7FEFF 		bl	setupI2CDevice
  97:.\sensorFortolker.c ****     for(i = 0; i < 10; i++){
 115              		.loc 1 97 0 discriminator 2
 116 0024 7B68     		ldr	r3, [r7, #4]
 117 0026 0133     		add	r3, r3, #1
 118 0028 7B60     		str	r3, [r7, #4]
 119              	.L2:
  97:.\sensorFortolker.c ****     for(i = 0; i < 10; i++){
 120              		.loc 1 97 0 is_stmt 0 discriminator 1
 121 002a 7B68     		ldr	r3, [r7, #4]
 122 002c 092B     		cmp	r3, #9
 123 002e F3DD     		ble	.L3
  99:.\sensorFortolker.c ****     };
 100:.\sensorFortolker.c ****     
 101:.\sensorFortolker.c ****     endstop_ = 0;
 124              		.loc 1 101 0 is_stmt 1
ARM GAS  C:\Users\Jeppe\AppData\Local\Temp\ccGnhrxh.s 			page 5


 125 0030 044B     		ldr	r3, .L4+8
 126 0032 0022     		mov	r2, #0
 127 0034 1A70     		strb	r2, [r3]
 102:.\sensorFortolker.c ****     
 103:.\sensorFortolker.c **** }
 128              		.loc 1 103 0
 129 0036 BD46     		mov	sp, r7
 130 0038 02B0     		add	sp, sp, #8
 131              		@ sp needed
 132 003a 80BD     		pop	{r7, pc}
 133              	.L5:
 134              		.align	2
 135              	.L4:
 136 003c 00000000 		.word	EndstopGPIO
 137 0040 00000000 		.word	imuInitArray
 138 0044 00000000 		.word	endstop_
 139              		.cfi_endproc
 140              	.LFE33:
 141              		.size	initSensors, .-initSensors
 142              		.section	.text.getVuggeUdsvingSens,"ax",%progbits
 143              		.align	2
 144              		.global	getVuggeUdsvingSens
 145              		.code	16
 146              		.thumb_func
 147              		.type	getVuggeUdsvingSens, %function
 148              	getVuggeUdsvingSens:
 149              	.LFB34:
 104:.\sensorFortolker.c **** 
 105:.\sensorFortolker.c **** ///* Function getMotorPosSens
 106:.\sensorFortolker.c **** //   Summary:
 107:.\sensorFortolker.c **** //    ??
 108:.\sensorFortolker.c **** //*/
 109:.\sensorFortolker.c **** //fix16_t getMotorPosSens()
 110:.\sensorFortolker.c **** //{
 111:.\sensorFortolker.c **** //
 112:.\sensorFortolker.c **** //}
 113:.\sensorFortolker.c **** 
 114:.\sensorFortolker.c **** /* Function getVuggeUdsvingSens
 115:.\sensorFortolker.c ****    Summary:
 116:.\sensorFortolker.c ****     ??
 117:.\sensorFortolker.c **** */
 118:.\sensorFortolker.c **** fix16_t getVuggeUdsvingSens()
 119:.\sensorFortolker.c **** {
 150              		.loc 1 119 0
 151              		.cfi_startproc
 152 0000 90B5     		push	{r4, r7, lr}
 153              		.cfi_def_cfa_offset 12
 154              		.cfi_offset 4, -12
 155              		.cfi_offset 7, -8
 156              		.cfi_offset 14, -4
 157 0002 83B0     		sub	sp, sp, #12
 158              		.cfi_def_cfa_offset 24
 159 0004 00AF     		add	r7, sp, #0
 160              		.cfi_def_cfa_register 7
 120:.\sensorFortolker.c ****      //read sensor data
 121:.\sensorFortolker.c ****     readGyroData(&gyroData);
 161              		.loc 1 121 0
ARM GAS  C:\Users\Jeppe\AppData\Local\Temp\ccGnhrxh.s 			page 6


 162 0006 3A4B     		ldr	r3, .L11
 163 0008 181C     		mov	r0, r3
 164 000a FFF7FEFF 		bl	readGyroData
 122:.\sensorFortolker.c ****     readAccData(accData);
 165              		.loc 1 122 0
 166 000e 394B     		ldr	r3, .L11+4
 167 0010 181C     		mov	r0, r3
 168 0012 FFF7FEFF 		bl	readAccData
 123:.\sensorFortolker.c ****     
 124:.\sensorFortolker.c ****     //save prev ang
 125:.\sensorFortolker.c ****     prevAng = estAng;
 169              		.loc 1 125 0
 170 0016 384B     		ldr	r3, .L11+8
 171 0018 1A68     		ldr	r2, [r3]
 172 001a 384B     		ldr	r3, .L11+12
 173 001c 1A60     		str	r2, [r3]
 126:.\sensorFortolker.c ****     
 127:.\sensorFortolker.c ****     // Integrate gyro data over last sample period, and calculate new angle from gyro              
 128:.\sensorFortolker.c ****     estAng += fix16mul(gyroData, DT);
 174              		.loc 1 128 0
 175 001e 344B     		ldr	r3, .L11
 176 0020 1A68     		ldr	r2, [r3]
 177 0022 A423     		mov	r3, #164
 178 0024 5B00     		lsl	r3, r3, #1
 179 0026 101C     		mov	r0, r2
 180 0028 191C     		mov	r1, r3
 181 002a FFF7FEFF 		bl	fix16mul
 182 002e 021C     		mov	r2, r0
 183 0030 314B     		ldr	r3, .L11+8
 184 0032 1B68     		ldr	r3, [r3]
 185 0034 D218     		add	r2, r2, r3
 186 0036 304B     		ldr	r3, .L11+8
 187 0038 1A60     		str	r2, [r3]
 129:.\sensorFortolker.c ****     
 130:.\sensorFortolker.c ****     // wrap angle if outside +/- 180 area
 131:.\sensorFortolker.c ****     if(estAng < -FIXED_DEG_180) estAng += FIXED_DEG_360; 
 188              		.loc 1 131 0
 189 003a 2F4B     		ldr	r3, .L11+8
 190 003c 1A68     		ldr	r2, [r3]
 191 003e 304B     		ldr	r3, .L11+16
 192 0040 9A42     		cmp	r2, r3
 193 0042 06DA     		bge	.L7
 194              		.loc 1 131 0 is_stmt 0 discriminator 1
 195 0044 2C4B     		ldr	r3, .L11+8
 196 0046 1B68     		ldr	r3, [r3]
 197 0048 B421     		mov	r1, #180
 198 004a 4904     		lsl	r1, r1, #17
 199 004c 5A18     		add	r2, r3, r1
 200 004e 2A4B     		ldr	r3, .L11+8
 201 0050 1A60     		str	r2, [r3]
 202              	.L7:
 132:.\sensorFortolker.c ****     if(estAng > FIXED_DEG_180) estAng -= FIXED_DEG_360; 
 203              		.loc 1 132 0 is_stmt 1
 204 0052 294B     		ldr	r3, .L11+8
 205 0054 1A68     		ldr	r2, [r3]
 206 0056 B423     		mov	r3, #180
 207 0058 1B04     		lsl	r3, r3, #16
ARM GAS  C:\Users\Jeppe\AppData\Local\Temp\ccGnhrxh.s 			page 7


 208 005a 9A42     		cmp	r2, r3
 209 005c 05DD     		ble	.L8
 210              		.loc 1 132 0 is_stmt 0 discriminator 1
 211 005e 264B     		ldr	r3, .L11+8
 212 0060 1B68     		ldr	r3, [r3]
 213 0062 2849     		ldr	r1, .L11+20
 214 0064 5A18     		add	r2, r3, r1
 215 0066 244B     		ldr	r3, .L11+8
 216 0068 1A60     		str	r2, [r3]
 217              	.L8:
 133:.\sensorFortolker.c ****     
 134:.\sensorFortolker.c ****     /* Correct angle estimate using accelerometer data if it is estimated valid. *
 135:.\sensorFortolker.c ****      * The acc input can be used if the accelleration vector has a length close  *
 136:.\sensorFortolker.c ****      * to 1g (no force other than gravity), which is estimated by the sum of the *
 137:.\sensorFortolker.c ****      * components for computational efficiency.                                  */
 138:.\sensorFortolker.c ****     fix16_t forceMagEst = fix16abs(accData[0]) + fix16abs(accData[1]);
 218              		.loc 1 138 0 is_stmt 1
 219 006a 224B     		ldr	r3, .L11+4
 220 006c 1B68     		ldr	r3, [r3]
 221 006e 181C     		mov	r0, r3
 222 0070 FFF7FEFF 		bl	fix16abs
 223 0074 041C     		mov	r4, r0
 224 0076 1F4B     		ldr	r3, .L11+4
 225 0078 5B68     		ldr	r3, [r3, #4]
 226 007a 181C     		mov	r0, r3
 227 007c FFF7FEFF 		bl	fix16abs
 228 0080 031C     		mov	r3, r0
 229 0082 E318     		add	r3, r4, r3
 230 0084 7B60     		str	r3, [r7, #4]
 139:.\sensorFortolker.c ****     
 140:.\sensorFortolker.c ****     // Use if forcemag is between 0.90*(2^16) and 1.4*(2^16)
 141:.\sensorFortolker.c ****     fix16_t accAng = 0;
 231              		.loc 1 141 0
 232 0086 0023     		mov	r3, #0
 233 0088 3B60     		str	r3, [r7]
 142:.\sensorFortolker.c ****     if(58982 < forceMagEst && forceMagEst < 91750) 
 234              		.loc 1 142 0
 235 008a 7A68     		ldr	r2, [r7, #4]
 236 008c 1E4B     		ldr	r3, .L11+24
 237 008e 9A42     		cmp	r2, r3
 238 0090 25DD     		ble	.L9
 239              		.loc 1 142 0 is_stmt 0 discriminator 1
 240 0092 7A68     		ldr	r2, [r7, #4]
 241 0094 1D4B     		ldr	r3, .L11+28
 242 0096 9A42     		cmp	r2, r3
 243 0098 21DC     		bgt	.L9
 143:.\sensorFortolker.c ****     {
 144:.\sensorFortolker.c ****         accAng = fix16rad2deg(FIXED_HALF_PI + fix16atan2(accData[1], accData[0]));
 244              		.loc 1 144 0 is_stmt 1
 245 009a 164B     		ldr	r3, .L11+4
 246 009c 5A68     		ldr	r2, [r3, #4]
 247 009e 154B     		ldr	r3, .L11+4
 248 00a0 1B68     		ldr	r3, [r3]
 249 00a2 101C     		mov	r0, r2
 250 00a4 191C     		mov	r1, r3
 251 00a6 FFF7FEFF 		bl	fix16atan2
 252 00aa 031C     		mov	r3, r0
ARM GAS  C:\Users\Jeppe\AppData\Local\Temp\ccGnhrxh.s 			page 8


 253 00ac 184A     		ldr	r2, .L11+32
 254 00ae 9B18     		add	r3, r3, r2
 255 00b0 181C     		mov	r0, r3
 256 00b2 FFF7FEFF 		bl	fix16rad2deg
 257 00b6 031C     		mov	r3, r0
 258 00b8 3B60     		str	r3, [r7]
 145:.\sensorFortolker.c ****         //take part of gyro estimate and add complementary part of acc estimate
 146:.\sensorFortolker.c ****         estAng = fix16mul(GYRO_WEIGHT, estAng) 
 259              		.loc 1 146 0
 260 00ba 0F4B     		ldr	r3, .L11+8
 261 00bc 1B68     		ldr	r3, [r3]
 262 00be 124A     		ldr	r2, .L11+24
 263 00c0 101C     		mov	r0, r2
 264 00c2 191C     		mov	r1, r3
 265 00c4 FFF7FEFF 		bl	fix16mul
 266 00c8 041C     		mov	r4, r0
 147:.\sensorFortolker.c ****                  + fix16mul(ACC_WEIGHT, accAng);
 267              		.loc 1 147 0
 268 00ca 124A     		ldr	r2, .L11+36
 269 00cc 3B68     		ldr	r3, [r7]
 270 00ce 101C     		mov	r0, r2
 271 00d0 191C     		mov	r1, r3
 272 00d2 FFF7FEFF 		bl	fix16mul
 273 00d6 031C     		mov	r3, r0
 274 00d8 E218     		add	r2, r4, r3
 146:.\sensorFortolker.c ****         estAng = fix16mul(GYRO_WEIGHT, estAng) 
 275              		.loc 1 146 0
 276 00da 074B     		ldr	r3, .L11+8
 277 00dc 1A60     		str	r2, [r3]
 278              	.L9:
 148:.\sensorFortolker.c ****     }   
 149:.\sensorFortolker.c ****     
 150:.\sensorFortolker.c **** //    if(estAng == prevAng) 
 151:.\sensorFortolker.c **** //    {
 152:.\sensorFortolker.c **** //        stallCount++;
 153:.\sensorFortolker.c **** //    } else {
 154:.\sensorFortolker.c **** //        stallCount = 0;
 155:.\sensorFortolker.c **** //    }
 156:.\sensorFortolker.c **** //    if(stallCount >= 10) setupI2CDevice(IMU_ADDRESS, imuInitArray, IMU_INIT_LEN);
 157:.\sensorFortolker.c **** //    char str[20];
 158:.\sensorFortolker.c **** //    sprintf(str, "%d, ", estang);
 159:.\sensorFortolker.c **** //    debugout_putstring(str);
 160:.\sensorFortolker.c ****     return estAng - 327680;
 279              		.loc 1 160 0
 280 00de 064B     		ldr	r3, .L11+8
 281 00e0 1B68     		ldr	r3, [r3]
 282 00e2 0D49     		ldr	r1, .L11+40
 283 00e4 5B18     		add	r3, r3, r1
 161:.\sensorFortolker.c **** }
 284              		.loc 1 161 0
 285 00e6 181C     		mov	r0, r3
 286 00e8 BD46     		mov	sp, r7
 287 00ea 03B0     		add	sp, sp, #12
 288              		@ sp needed
 289 00ec 90BD     		pop	{r4, r7, pc}
 290              	.L12:
 291 00ee C046     		.align	2
ARM GAS  C:\Users\Jeppe\AppData\Local\Temp\ccGnhrxh.s 			page 9


 292              	.L11:
 293 00f0 00000000 		.word	gyroData
 294 00f4 00000000 		.word	accData
 295 00f8 00000000 		.word	estAng
 296 00fc 00000000 		.word	prevAng
 297 0100 00004CFF 		.word	-11796480
 298 0104 000098FE 		.word	-23592960
 299 0108 66E60000 		.word	58982
 300 010c 65660100 		.word	91749
 301 0110 20920100 		.word	102944
 302 0114 9A190000 		.word	6554
 303 0118 0000FBFF 		.word	-327680
 304              		.cfi_endproc
 305              	.LFE34:
 306              		.size	getVuggeUdsvingSens, .-getVuggeUdsvingSens
 307              		.section	.text.getEndstopGPIO,"ax",%progbits
 308              		.align	2
 309              		.global	getEndstopGPIO
 310              		.code	16
 311              		.thumb_func
 312              		.type	getEndstopGPIO, %function
 313              	getEndstopGPIO:
 314              	.LFB35:
 162:.\sensorFortolker.c **** 
 163:.\sensorFortolker.c **** /* Function getEndstopGPIO
 164:.\sensorFortolker.c ****    Summary:
 165:.\sensorFortolker.c ****     Returns a ptr pointing at enstop_ adress
 166:.\sensorFortolker.c **** */
 167:.\sensorFortolker.c **** BOOL getEndstopGPIO()
 168:.\sensorFortolker.c **** {
 315              		.loc 1 168 0
 316              		.cfi_startproc
 317 0000 80B5     		push	{r7, lr}
 318              		.cfi_def_cfa_offset 8
 319              		.cfi_offset 7, -8
 320              		.cfi_offset 14, -4
 321 0002 00AF     		add	r7, sp, #0
 322              		.cfi_def_cfa_register 7
 169:.\sensorFortolker.c ****     return endstop_;
 323              		.loc 1 169 0
 324 0004 024B     		ldr	r3, .L15
 325 0006 1B78     		ldrb	r3, [r3]
 326 0008 DBB2     		uxtb	r3, r3
 170:.\sensorFortolker.c **** }
 327              		.loc 1 170 0
 328 000a 181C     		mov	r0, r3
 329 000c BD46     		mov	sp, r7
 330              		@ sp needed
 331 000e 80BD     		pop	{r7, pc}
 332              	.L16:
 333              		.align	2
 334              	.L15:
 335 0010 00000000 		.word	endstop_
 336              		.cfi_endproc
 337              	.LFE35:
 338              		.size	getEndstopGPIO, .-getEndstopGPIO
 339              		.section	.text.setupI2CDevice,"ax",%progbits
ARM GAS  C:\Users\Jeppe\AppData\Local\Temp\ccGnhrxh.s 			page 10


 340              		.align	2
 341              		.global	setupI2CDevice
 342              		.code	16
 343              		.thumb_func
 344              		.type	setupI2CDevice, %function
 345              	setupI2CDevice:
 346              	.LFB36:
 171:.\sensorFortolker.c **** 
 172:.\sensorFortolker.c **** void setupI2CDevice(uint8_t addr, const uint8_t initArray[][2] , uint8_t arrayLen){
 347              		.loc 1 172 0
 348              		.cfi_startproc
 349 0000 80B5     		push	{r7, lr}
 350              		.cfi_def_cfa_offset 8
 351              		.cfi_offset 7, -8
 352              		.cfi_offset 14, -4
 353 0002 84B0     		sub	sp, sp, #16
 354              		.cfi_def_cfa_offset 24
 355 0004 00AF     		add	r7, sp, #0
 356              		.cfi_def_cfa_register 7
 357 0006 3960     		str	r1, [r7]
 358 0008 FB1D     		add	r3, r7, #7
 359 000a 011C     		add	r1, r0, #0
 360 000c 1970     		strb	r1, [r3]
 361 000e BB1D     		add	r3, r7, #6
 362 0010 1A70     		strb	r2, [r3]
 173:.\sensorFortolker.c ****     int i;
 174:.\sensorFortolker.c ****     for(i = 0; i < arrayLen; i++){
 363              		.loc 1 174 0
 364 0012 0023     		mov	r3, #0
 365 0014 FB60     		str	r3, [r7, #12]
 366 0016 13E0     		b	.L18
 367              	.L19:
 175:.\sensorFortolker.c ****         writeI2CReg(addr, initArray[i][0], initArray[i][1]);
 368              		.loc 1 175 0 discriminator 2
 369 0018 FB68     		ldr	r3, [r7, #12]
 370 001a 5B00     		lsl	r3, r3, #1
 371 001c 3A68     		ldr	r2, [r7]
 372 001e D318     		add	r3, r2, r3
 373 0020 1A78     		ldrb	r2, [r3]
 374 0022 FB68     		ldr	r3, [r7, #12]
 375 0024 5B00     		lsl	r3, r3, #1
 376 0026 3968     		ldr	r1, [r7]
 377 0028 CB18     		add	r3, r1, r3
 378 002a 5B78     		ldrb	r3, [r3, #1]
 379 002c F91D     		add	r1, r7, #7
 380 002e 0978     		ldrb	r1, [r1]
 381 0030 081C     		mov	r0, r1
 382 0032 111C     		mov	r1, r2
 383 0034 1A1C     		mov	r2, r3
 384 0036 FFF7FEFF 		bl	writeI2CReg
 174:.\sensorFortolker.c ****     for(i = 0; i < arrayLen; i++){
 385              		.loc 1 174 0 discriminator 2
 386 003a FB68     		ldr	r3, [r7, #12]
 387 003c 0133     		add	r3, r3, #1
 388 003e FB60     		str	r3, [r7, #12]
 389              	.L18:
 174:.\sensorFortolker.c ****     for(i = 0; i < arrayLen; i++){
ARM GAS  C:\Users\Jeppe\AppData\Local\Temp\ccGnhrxh.s 			page 11


 390              		.loc 1 174 0 is_stmt 0 discriminator 1
 391 0040 BB1D     		add	r3, r7, #6
 392 0042 1A78     		ldrb	r2, [r3]
 393 0044 FB68     		ldr	r3, [r7, #12]
 394 0046 9A42     		cmp	r2, r3
 395 0048 E6DC     		bgt	.L19
 176:.\sensorFortolker.c ****     }
 177:.\sensorFortolker.c **** }
 396              		.loc 1 177 0 is_stmt 1
 397 004a BD46     		mov	sp, r7
 398 004c 04B0     		add	sp, sp, #16
 399              		@ sp needed
 400 004e 80BD     		pop	{r7, pc}
 401              		.cfi_endproc
 402              	.LFE36:
 403              		.size	setupI2CDevice, .-setupI2CDevice
 404              		.section	.text.readI2CReg,"ax",%progbits
 405              		.align	2
 406              		.global	readI2CReg
 407              		.code	16
 408              		.thumb_func
 409              		.type	readI2CReg, %function
 410              	readI2CReg:
 411              	.LFB37:
 178:.\sensorFortolker.c ****     
 179:.\sensorFortolker.c **** uint8_t readI2CReg(uint8_t addr, uint8_t reg)
 180:.\sensorFortolker.c **** {
 412              		.loc 1 180 0
 413              		.cfi_startproc
 414 0000 80B5     		push	{r7, lr}
 415              		.cfi_def_cfa_offset 8
 416              		.cfi_offset 7, -8
 417              		.cfi_offset 14, -4
 418 0002 84B0     		sub	sp, sp, #16
 419              		.cfi_def_cfa_offset 24
 420 0004 00AF     		add	r7, sp, #0
 421              		.cfi_def_cfa_register 7
 422 0006 0A1C     		mov	r2, r1
 423 0008 FB1D     		add	r3, r7, #7
 424 000a 011C     		add	r1, r0, #0
 425 000c 1970     		strb	r1, [r3]
 426 000e BB1D     		add	r3, r7, #6
 427 0010 1A70     		strb	r2, [r3]
 181:.\sensorFortolker.c ****     
 182:.\sensorFortolker.c ****     uint8_t result; 
 183:.\sensorFortolker.c ****     
 184:.\sensorFortolker.c **** 	if (sensorI2C_I2CMasterSendStart(addr, 0) == sensorI2C_I2C_MSTR_NO_ERROR) /* Check if transfer com
 428              		.loc 1 184 0
 429 0012 FB1D     		add	r3, r7, #7
 430 0014 1B78     		ldrb	r3, [r3]
 431 0016 181C     		mov	r0, r3
 432 0018 0021     		mov	r1, #0
 433 001a FFF7FEFF 		bl	sensorI2C_I2CMasterSendStart
 434 001e 031C     		mov	r3, r0
 435 0020 002B     		cmp	r3, #0
 436 0022 19D1     		bne	.L21
 185:.\sensorFortolker.c ****     { 
ARM GAS  C:\Users\Jeppe\AppData\Local\Temp\ccGnhrxh.s 			page 12


 186:.\sensorFortolker.c ****         if(sensorI2C_I2CMasterWriteByte(reg) == sensorI2C_I2C_MSTR_NO_ERROR)
 437              		.loc 1 186 0
 438 0024 BB1D     		add	r3, r7, #6
 439 0026 1B78     		ldrb	r3, [r3]
 440 0028 181C     		mov	r0, r3
 441 002a FFF7FEFF 		bl	sensorI2C_I2CMasterWriteByte
 442 002e 031C     		mov	r3, r0
 443 0030 002B     		cmp	r3, #0
 444 0032 11D1     		bne	.L21
 187:.\sensorFortolker.c **** 		{
 188:.\sensorFortolker.c ****             if(sensorI2C_I2CMasterSendRestart(addr, 1) == sensorI2C_I2C_MSTR_NO_ERROR)
 445              		.loc 1 188 0
 446 0034 FB1D     		add	r3, r7, #7
 447 0036 1B78     		ldrb	r3, [r3]
 448 0038 181C     		mov	r0, r3
 449 003a 0121     		mov	r1, #1
 450 003c FFF7FEFF 		bl	sensorI2C_I2CMasterSendRestart
 451 0040 031C     		mov	r3, r0
 452 0042 002B     		cmp	r3, #0
 453 0044 08D1     		bne	.L21
 189:.\sensorFortolker.c **** 			{
 190:.\sensorFortolker.c ****                 result = sensorI2C_I2CMasterReadByte(sensorI2C_I2C_NAK_DATA);
 454              		.loc 1 190 0
 455 0046 0120     		mov	r0, #1
 456 0048 FFF7FEFF 		bl	sensorI2C_I2CMasterReadByte
 457 004c 021C     		mov	r2, r0
 458 004e 3B1C     		mov	r3, r7
 459 0050 0F33     		add	r3, r3, #15
 460 0052 1A70     		strb	r2, [r3]
 191:.\sensorFortolker.c ****                 sensorI2C_I2CMasterSendStop();
 461              		.loc 1 191 0
 462 0054 FFF7FEFF 		bl	sensorI2C_I2CMasterSendStop
 463              	.L21:
 192:.\sensorFortolker.c **** 				
 193:.\sensorFortolker.c **** 			}
 194:.\sensorFortolker.c **** 		}
 195:.\sensorFortolker.c **** 	}
 196:.\sensorFortolker.c **** 	return result;		
 464              		.loc 1 196 0
 465 0058 3B1C     		mov	r3, r7
 466 005a 0F33     		add	r3, r3, #15
 467 005c 1B78     		ldrb	r3, [r3]
 197:.\sensorFortolker.c ****     
 198:.\sensorFortolker.c **** }
 468              		.loc 1 198 0
 469 005e 181C     		mov	r0, r3
 470 0060 BD46     		mov	sp, r7
 471 0062 04B0     		add	sp, sp, #16
 472              		@ sp needed
 473 0064 80BD     		pop	{r7, pc}
 474              		.cfi_endproc
 475              	.LFE37:
 476              		.size	readI2CReg, .-readI2CReg
 477 0066 C046     		.section	.text.writeI2CReg,"ax",%progbits
 478              		.align	2
 479              		.global	writeI2CReg
 480              		.code	16
ARM GAS  C:\Users\Jeppe\AppData\Local\Temp\ccGnhrxh.s 			page 13


 481              		.thumb_func
 482              		.type	writeI2CReg, %function
 483              	writeI2CReg:
 484              	.LFB38:
 199:.\sensorFortolker.c **** 
 200:.\sensorFortolker.c **** void writeI2CReg(uint8_t addr, uint8_t reg, uint8_t val){    
 485              		.loc 1 200 0
 486              		.cfi_startproc
 487 0000 80B5     		push	{r7, lr}
 488              		.cfi_def_cfa_offset 8
 489              		.cfi_offset 7, -8
 490              		.cfi_offset 14, -4
 491 0002 82B0     		sub	sp, sp, #8
 492              		.cfi_def_cfa_offset 16
 493 0004 00AF     		add	r7, sp, #0
 494              		.cfi_def_cfa_register 7
 495 0006 FB1D     		add	r3, r7, #7
 496 0008 1870     		strb	r0, [r3]
 497 000a BB1D     		add	r3, r7, #6
 498 000c 1970     		strb	r1, [r3]
 499 000e 7B1D     		add	r3, r7, #5
 500 0010 1A70     		strb	r2, [r3]
 201:.\sensorFortolker.c **** 	if (sensorI2C_I2CMasterSendStart(addr, 0) == sensorI2C_I2C_MSTR_NO_ERROR) /* Check if transfer com
 501              		.loc 1 201 0
 502 0012 FB1D     		add	r3, r7, #7
 503 0014 1B78     		ldrb	r3, [r3]
 504 0016 181C     		mov	r0, r3
 505 0018 0021     		mov	r1, #0
 506 001a FFF7FEFF 		bl	sensorI2C_I2CMasterSendStart
 507 001e 031C     		mov	r3, r0
 508 0020 002B     		cmp	r3, #0
 509 0022 11D1     		bne	.L23
 202:.\sensorFortolker.c ****     { 
 203:.\sensorFortolker.c ****         if(sensorI2C_I2CMasterWriteByte(reg) == sensorI2C_I2C_MSTR_NO_ERROR)
 510              		.loc 1 203 0
 511 0024 BB1D     		add	r3, r7, #6
 512 0026 1B78     		ldrb	r3, [r3]
 513 0028 181C     		mov	r0, r3
 514 002a FFF7FEFF 		bl	sensorI2C_I2CMasterWriteByte
 515 002e 031C     		mov	r3, r0
 516 0030 002B     		cmp	r3, #0
 517 0032 09D1     		bne	.L23
 204:.\sensorFortolker.c **** 		{
 205:.\sensorFortolker.c ****               if(sensorI2C_I2CMasterWriteByte(val) == sensorI2C_I2C_MSTR_NO_ERROR)   
 518              		.loc 1 205 0
 519 0034 7B1D     		add	r3, r7, #5
 520 0036 1B78     		ldrb	r3, [r3]
 521 0038 181C     		mov	r0, r3
 522 003a FFF7FEFF 		bl	sensorI2C_I2CMasterWriteByte
 523 003e 031C     		mov	r3, r0
 524 0040 002B     		cmp	r3, #0
 525 0042 01D1     		bne	.L23
 206:.\sensorFortolker.c ****                 {      
 207:.\sensorFortolker.c ****                     sensorI2C_I2CMasterSendStop();
 526              		.loc 1 207 0
 527 0044 FFF7FEFF 		bl	sensorI2C_I2CMasterSendStop
 528              	.L23:
ARM GAS  C:\Users\Jeppe\AppData\Local\Temp\ccGnhrxh.s 			page 14


 208:.\sensorFortolker.c ****     		    }
 209:.\sensorFortolker.c **** 		}
 210:.\sensorFortolker.c **** 	}
 211:.\sensorFortolker.c **** 	
 212:.\sensorFortolker.c ****     
 213:.\sensorFortolker.c ****     
 214:.\sensorFortolker.c **** }
 529              		.loc 1 214 0
 530 0048 BD46     		mov	sp, r7
 531 004a 02B0     		add	sp, sp, #8
 532              		@ sp needed
 533 004c 80BD     		pop	{r7, pc}
 534              		.cfi_endproc
 535              	.LFE38:
 536              		.size	writeI2CReg, .-writeI2CReg
 537 004e C046     		.section	.text.readGyroData,"ax",%progbits
 538              		.align	2
 539              		.global	readGyroData
 540              		.code	16
 541              		.thumb_func
 542              		.type	readGyroData, %function
 543              	readGyroData:
 544              	.LFB39:
 215:.\sensorFortolker.c **** 
 216:.\sensorFortolker.c **** void readGyroData(fix16_t* gyroData)
 217:.\sensorFortolker.c **** {
 545              		.loc 1 217 0
 546              		.cfi_startproc
 547 0000 90B5     		push	{r4, r7, lr}
 548              		.cfi_def_cfa_offset 12
 549              		.cfi_offset 4, -12
 550              		.cfi_offset 7, -8
 551              		.cfi_offset 14, -4
 552 0002 85B0     		sub	sp, sp, #20
 553              		.cfi_def_cfa_offset 32
 554 0004 00AF     		add	r7, sp, #0
 555              		.cfi_def_cfa_register 7
 556 0006 7860     		str	r0, [r7, #4]
 218:.\sensorFortolker.c ****     //read the acc data from the accellerometer
 219:.\sensorFortolker.c ****     int16_t rawGyroX = readI2CReg(IMU_ADDRESS, GYRO_FIRST_DATA + 1) 
 557              		.loc 1 219 0
 558 0008 6820     		mov	r0, #104
 559 000a 4421     		mov	r1, #68
 560 000c FFF7FEFF 		bl	readI2CReg
 561 0010 031C     		mov	r3, r0
 562 0012 1C1C     		mov	r4, r3
 220:.\sensorFortolker.c ****             + ((int16_t) readI2CReg(IMU_ADDRESS, GYRO_FIRST_DATA) << 8);
 563              		.loc 1 220 0
 564 0014 6820     		mov	r0, #104
 565 0016 4321     		mov	r1, #67
 566 0018 FFF7FEFF 		bl	readI2CReg
 567 001c 031C     		mov	r3, r0
 219:.\sensorFortolker.c ****     int16_t rawGyroX = readI2CReg(IMU_ADDRESS, GYRO_FIRST_DATA + 1) 
 568              		.loc 1 219 0
 569 001e 1B02     		lsl	r3, r3, #8
 570 0020 9BB2     		uxth	r3, r3
 571 0022 E318     		add	r3, r4, r3
ARM GAS  C:\Users\Jeppe\AppData\Local\Temp\ccGnhrxh.s 			page 15


 572 0024 9AB2     		uxth	r2, r3
 573 0026 3B1C     		mov	r3, r7
 574 0028 0E33     		add	r3, r3, #14
 575 002a 1A80     		strh	r2, [r3]
 221:.\sensorFortolker.c ****     //scale data and return it
 222:.\sensorFortolker.c ****     *gyroData = (fix16_t) rawGyroX * GYRO_SCALE_FACTOR;
 576              		.loc 1 222 0
 577 002c 3B1C     		mov	r3, r7
 578 002e 0E33     		add	r3, r3, #14
 579 0030 0022     		mov	r2, #0
 580 0032 9B5E     		ldrsh	r3, [r3, r2]
 581 0034 034A     		ldr	r2, .L26
 582 0036 5A43     		mul	r2, r3
 583 0038 7B68     		ldr	r3, [r7, #4]
 584 003a 1A60     		str	r2, [r3]
 223:.\sensorFortolker.c **** }
 585              		.loc 1 223 0
 586 003c BD46     		mov	sp, r7
 587 003e 05B0     		add	sp, sp, #20
 588              		@ sp needed
 589 0040 90BD     		pop	{r4, r7, pc}
 590              	.L27:
 591 0042 C046     		.align	2
 592              	.L26:
 593 0044 9C0F0000 		.word	3996
 594              		.cfi_endproc
 595              	.LFE39:
 596              		.size	readGyroData, .-readGyroData
 597              		.section	.text.readAccData,"ax",%progbits
 598              		.align	2
 599              		.global	readAccData
 600              		.code	16
 601              		.thumb_func
 602              		.type	readAccData, %function
 603              	readAccData:
 604              	.LFB40:
 224:.\sensorFortolker.c **** 
 225:.\sensorFortolker.c **** void readAccData(fix16_t* accData)
 226:.\sensorFortolker.c **** {
 605              		.loc 1 226 0
 606              		.cfi_startproc
 607 0000 90B5     		push	{r4, r7, lr}
 608              		.cfi_def_cfa_offset 12
 609              		.cfi_offset 4, -12
 610              		.cfi_offset 7, -8
 611              		.cfi_offset 14, -4
 612 0002 85B0     		sub	sp, sp, #20
 613              		.cfi_def_cfa_offset 32
 614 0004 00AF     		add	r7, sp, #0
 615              		.cfi_def_cfa_register 7
 616 0006 7860     		str	r0, [r7, #4]
 227:.\sensorFortolker.c ****     //read the raw data from the accellerometer
 228:.\sensorFortolker.c ****     int16 rawAccY = readI2CReg(IMU_ADDRESS, ACC_FIRST_DATA+1) 
 617              		.loc 1 228 0
 618 0008 6820     		mov	r0, #104
 619 000a 3E21     		mov	r1, #62
 620 000c FFF7FEFF 		bl	readI2CReg
ARM GAS  C:\Users\Jeppe\AppData\Local\Temp\ccGnhrxh.s 			page 16


 621 0010 031C     		mov	r3, r0
 622 0012 1C1C     		mov	r4, r3
 229:.\sensorFortolker.c ****             + ((int16_t) readI2CReg(IMU_ADDRESS, ACC_FIRST_DATA)<<8);
 623              		.loc 1 229 0
 624 0014 6820     		mov	r0, #104
 625 0016 3D21     		mov	r1, #61
 626 0018 FFF7FEFF 		bl	readI2CReg
 627 001c 031C     		mov	r3, r0
 228:.\sensorFortolker.c ****     int16 rawAccY = readI2CReg(IMU_ADDRESS, ACC_FIRST_DATA+1) 
 628              		.loc 1 228 0
 629 001e 1B02     		lsl	r3, r3, #8
 630 0020 9BB2     		uxth	r3, r3
 631 0022 E318     		add	r3, r4, r3
 632 0024 9AB2     		uxth	r2, r3
 633 0026 3B1C     		mov	r3, r7
 634 0028 0E33     		add	r3, r3, #14
 635 002a 1A80     		strh	r2, [r3]
 230:.\sensorFortolker.c ****     int16 rawAccZ = readI2CReg(IMU_ADDRESS, ACC_FIRST_DATA+3) 
 636              		.loc 1 230 0
 637 002c 6820     		mov	r0, #104
 638 002e 4021     		mov	r1, #64
 639 0030 FFF7FEFF 		bl	readI2CReg
 640 0034 031C     		mov	r3, r0
 641 0036 1C1C     		mov	r4, r3
 231:.\sensorFortolker.c ****             + ((int16_t) readI2CReg(IMU_ADDRESS, ACC_FIRST_DATA + 2)<<8);
 642              		.loc 1 231 0
 643 0038 6820     		mov	r0, #104
 644 003a 3F21     		mov	r1, #63
 645 003c FFF7FEFF 		bl	readI2CReg
 646 0040 031C     		mov	r3, r0
 230:.\sensorFortolker.c ****     int16 rawAccZ = readI2CReg(IMU_ADDRESS, ACC_FIRST_DATA+3) 
 647              		.loc 1 230 0
 648 0042 1B02     		lsl	r3, r3, #8
 649 0044 9BB2     		uxth	r3, r3
 650 0046 E318     		add	r3, r4, r3
 651 0048 9AB2     		uxth	r2, r3
 652 004a 3B1C     		mov	r3, r7
 653 004c 0C33     		add	r3, r3, #12
 654 004e 1A80     		strh	r2, [r3]
 232:.\sensorFortolker.c ****     //scale data and return it
 233:.\sensorFortolker.c ****     accData[0] = (fix16_t) rawAccY * ACC_SCALE_FACTOR; 
 655              		.loc 1 233 0
 656 0050 3B1C     		mov	r3, r7
 657 0052 0E33     		add	r3, r3, #14
 658 0054 0021     		mov	r1, #0
 659 0056 5B5E     		ldrsh	r3, [r3, r1]
 660 0058 DA00     		lsl	r2, r3, #3
 661 005a 7B68     		ldr	r3, [r7, #4]
 662 005c 1A60     		str	r2, [r3]
 234:.\sensorFortolker.c ****     accData[1] = (fix16_t) rawAccZ * ACC_SCALE_FACTOR;
 663              		.loc 1 234 0
 664 005e 7B68     		ldr	r3, [r7, #4]
 665 0060 0433     		add	r3, r3, #4
 666 0062 3A1C     		mov	r2, r7
 667 0064 0C32     		add	r2, r2, #12
 668 0066 0021     		mov	r1, #0
 669 0068 525E     		ldrsh	r2, [r2, r1]
ARM GAS  C:\Users\Jeppe\AppData\Local\Temp\ccGnhrxh.s 			page 17


 670 006a D200     		lsl	r2, r2, #3
 671 006c 1A60     		str	r2, [r3]
 235:.\sensorFortolker.c **** }
 672              		.loc 1 235 0
 673 006e BD46     		mov	sp, r7
 674 0070 05B0     		add	sp, sp, #20
 675              		@ sp needed
 676 0072 90BD     		pop	{r4, r7, pc}
 677              		.cfi_endproc
 678              	.LFE40:
 679              		.size	readAccData, .-readAccData
 680              		.section	.text.gyroDataReadyInterrupt,"ax",%progbits
 681              		.align	2
 682              		.global	gyroDataReadyInterrupt
 683              		.code	16
 684              		.thumb_func
 685              		.type	gyroDataReadyInterrupt, %function
 686              	gyroDataReadyInterrupt:
 687              	.LFB41:
 236:.\sensorFortolker.c **** 
 237:.\sensorFortolker.c **** /* interrupt definitions */
 238:.\sensorFortolker.c **** 
 239:.\sensorFortolker.c **** //Data ready interrupt from sensor
 240:.\sensorFortolker.c **** CY_ISR(gyroDataReadyInterrupt)
 241:.\sensorFortolker.c **** {
 688              		.loc 1 241 0
 689              		.cfi_startproc
 690 0000 80B5     		push	{r7, lr}
 691              		.cfi_def_cfa_offset 8
 692              		.cfi_offset 7, -8
 693              		.cfi_offset 14, -4
 694 0002 00AF     		add	r7, sp, #0
 695              		.cfi_def_cfa_register 7
 242:.\sensorFortolker.c ****    //TODO: insert data interrupt code to improve data collection
 243:.\sensorFortolker.c **** }
 696              		.loc 1 243 0
 697 0004 BD46     		mov	sp, r7
 698              		@ sp needed
 699 0006 80BD     		pop	{r7, pc}
 700              		.cfi_endproc
 701              	.LFE41:
 702              		.size	gyroDataReadyInterrupt, .-gyroDataReadyInterrupt
 703              		.section	.text.EndstopGPIO,"ax",%progbits
 704              		.align	2
 705              		.global	EndstopGPIO
 706              		.code	16
 707              		.thumb_func
 708              		.type	EndstopGPIO, %function
 709              	EndstopGPIO:
 710              	.LFB42:
 244:.\sensorFortolker.c **** 
 245:.\sensorFortolker.c **** 
 246:.\sensorFortolker.c **** /* ISR Function EndstopGPIO
 247:.\sensorFortolker.c ****    Summary:
 248:.\sensorFortolker.c ****     ISR triggers on Endstop activation and sets endstop_ flag high
 249:.\sensorFortolker.c **** */
 250:.\sensorFortolker.c **** CY_ISR(EndstopGPIO)
ARM GAS  C:\Users\Jeppe\AppData\Local\Temp\ccGnhrxh.s 			page 18


 251:.\sensorFortolker.c **** {   
 711              		.loc 1 251 0
 712              		.cfi_startproc
 713 0000 80B5     		push	{r7, lr}
 714              		.cfi_def_cfa_offset 8
 715              		.cfi_offset 7, -8
 716              		.cfi_offset 14, -4
 717 0002 00AF     		add	r7, sp, #0
 718              		.cfi_def_cfa_register 7
 252:.\sensorFortolker.c ****     endstop_ = 1;  
 719              		.loc 1 252 0
 720 0004 024B     		ldr	r3, .L31
 721 0006 0122     		mov	r2, #1
 722 0008 1A70     		strb	r2, [r3]
 253:.\sensorFortolker.c **** }
 723              		.loc 1 253 0
 724 000a BD46     		mov	sp, r7
 725              		@ sp needed
 726 000c 80BD     		pop	{r7, pc}
 727              	.L32:
 728 000e C046     		.align	2
 729              	.L31:
 730 0010 00000000 		.word	endstop_
 731              		.cfi_endproc
 732              	.LFE42:
 733              		.size	EndstopGPIO, .-EndstopGPIO
 734              		.text
 735              	.Letext0:
 736              		.file 2 "c:\\program files (x86)\\cypress\\psoc creator\\3.1\\psoc creator\\import\\gnu_cs\\arm\\4
 737              		.file 3 "c:\\program files (x86)\\cypress\\psoc creator\\3.1\\psoc creator\\import\\gnu_cs\\arm\\4
 738              		.file 4 ".\\Generated_Source\\PSoC4/cytypes.h"
 739              		.file 5 ".\\globals.h"
 740              		.file 6 ".\\fixedMath.h"