ARM GAS  C:\Users\Felix\AppData\Local\Temp\cciLKkiE.s 			page 1


   1              		.cpu cortex-m0
   2              		.fpu softvfp
   3              		.eabi_attribute 20, 1
   4              		.eabi_attribute 21, 1
   5              		.eabi_attribute 23, 3
   6              		.eabi_attribute 24, 1
   7              		.eabi_attribute 25, 1
   8              		.eabi_attribute 26, 1
   9              		.eabi_attribute 30, 6
  10              		.eabi_attribute 34, 0
  11              		.eabi_attribute 18, 4
  12              		.code	16
  13              		.file	"main.c"
  14              		.text
  15              	.Ltext0:
  16              		.cfi_sections	.debug_frame
  17              		.global	I2CRegPtr
  18              		.bss
  19              		.type	I2CRegPtr, %object
  20              		.size	I2CRegPtr, 1
  21              	I2CRegPtr:
  22 0000 00       		.space	1
  23              		.global	I2CRegisters
  24              		.data
  25              		.align	2
  26              		.type	I2CRegisters, %object
  27              		.size	I2CRegisters, 5
  28              	I2CRegisters:
  29 0000 FB       		.byte	-5
  30 0001 00       		.byte	0
  31 0002 FF       		.byte	-1
  32 0003 00       		.byte	0
  33 0004 00       		.byte	0
  34              		.comm	I2CRxBuf,5,4
  35 0005 000000   		.section	.rodata
  36              		.align	2
  37              	.LC0:
  38 0000 48656C6C 		.ascii	"Hello World\012\000"
  38      6F20576F 
  38      726C640A 
  38      00
  39 000d 000000   		.section	.text.main,"ax",%progbits
  40              		.align	2
  41              		.global	main
  42              		.code	16
  43              		.thumb_func
  44              		.type	main, %function
  45              	main:
  46              	.LFB33:
  47              		.file 1 ".\\main.c"
   1:.\main.c      **** /*******************************************************************************
   2:.\main.c      **** * File Name: main.c
   3:.\main.c      **** *
   4:.\main.c      **** * Version: 1.00
   5:.\main.c      **** *
   6:.\main.c      **** * Description:
   7:.\main.c      **** *  
ARM GAS  C:\Users\Felix\AppData\Local\Temp\cciLKkiE.s 			page 2


   8:.\main.c      **** *
   9:.\main.c      **** ********************************************************************************
  10:.\main.c      **** * 
  11:.\main.c      **** *******************************************************************************/
  12:.\main.c      **** 
  13:.\main.c      **** #include <device.h>
  14:.\main.c      **** #include <stdio.h>
  15:.\main.c      **** 
  16:.\main.c      **** /* Macro definitions */
  17:.\main.c      **** #define I2C_ID_REG 0x00
  18:.\main.c      **** #define I2C_STAT_REG 0x01
  19:.\main.c      **** #define I2C_ONOFF_REG 0x02
  20:.\main.c      **** #define I2C_FREK_REG 0x03
  21:.\main.c      **** #define I2C_VINK_REG 0x04 
  22:.\main.c      **** #define I2C_BUF_SIZE 5
  23:.\main.c      **** #define DEBUG 1
  24:.\main.c      **** 
  25:.\main.c      **** /* Global variables */
  26:.\main.c      **** volatile uint8 I2CRegPtr = 0;
  27:.\main.c      **** volatile uint8 I2CRegisters[] = {0xFB, 0x00, 0xFF, 0x00, 0x00};
  28:.\main.c      **** uint8 I2CRxBuf[I2C_BUF_SIZE];
  29:.\main.c      **** 
  30:.\main.c      **** /* Function prototypes */
  31:.\main.c      **** void SetupI2C();
  32:.\main.c      **** void I2C_isr();
  33:.\main.c      **** 
  34:.\main.c      **** 
  35:.\main.c      **** /*******************************************************************************
  36:.\main.c      **** * Function Name: main
  37:.\main.c      **** ********************************************************************************
  38:.\main.c      **** *
  39:.\main.c      **** * Summary:
  40:.\main.c      **** *  Performs the following tasks:
  41:.\main.c      **** *
  42:.\main.c      **** *******************************************************************************/
  43:.\main.c      **** int main()
  44:.\main.c      **** {
  48              		.loc 1 44 0
  49              		.cfi_startproc
  50 0000 80B5     		push	{r7, lr}
  51              	.LCFI0:
  52              		.cfi_def_cfa_offset 8
  53              		.cfi_offset 7, -8
  54              		.cfi_offset 14, -4
  55 0002 00AF     		add	r7, sp, #0
  56              	.LCFI1:
  57              		.cfi_def_cfa_register 7
  45:.\main.c      ****     /* Start the Components */
  46:.\main.c      ****     UART_Start();
  58              		.loc 1 46 0
  59 0004 FFF7FEFF 		bl	UART_Start
  47:.\main.c      ****     SetupI2C();
  60              		.loc 1 47 0
  61 0008 FFF7FEFF 		bl	SetupI2C
  48:.\main.c      ****     
  49:.\main.c      ****     /* Enable global interrupts */
  50:.\main.c      ****     CyGlobalIntEnable;
ARM GAS  C:\Users\Felix\AppData\Local\Temp\cciLKkiE.s 			page 3


  62              		.loc 1 50 0
  63              	@ 50 ".\main.c" 1
  64 000c 62B6     		CPSIE   i
  65              	@ 0 "" 2
  51:.\main.c      ****     UART_UartPutString("Hello World\n");
  66              		.loc 1 51 0
  67              		.code	16
  68 000e 024B     		ldr	r3, .L3
  69 0010 181C     		mov	r0, r3
  70 0012 FFF7FEFF 		bl	UART_UartPutString
  71              	.L2:
  52:.\main.c      ****     while(1);
  72              		.loc 1 52 0 discriminator 1
  73 0016 FEE7     		b	.L2
  74              	.L4:
  75              		.align	2
  76              	.L3:
  77 0018 00000000 		.word	.LC0
  78              		.cfi_endproc
  79              	.LFE33:
  80              		.size	main, .-main
  81              		.section	.text.SetupI2C,"ax",%progbits
  82              		.align	2
  83              		.global	SetupI2C
  84              		.code	16
  85              		.thumb_func
  86              		.type	SetupI2C, %function
  87              	SetupI2C:
  88              	.LFB34:
  53:.\main.c      ****     return 0;
  54:.\main.c      **** }
  55:.\main.c      **** 
  56:.\main.c      **** /******************************************************************************
  57:.\main.c      **** * Function Name: SetupI2C
  58:.\main.c      **** *******************************************************************************
  59:.\main.c      **** *
  60:.\main.c      **** * Summary:
  61:.\main.c      **** *  Sets up the I2C bus, and enables it.
  62:.\main.c      **** * 
  63:.\main.c      **** ******************************************************************************/
  64:.\main.c      **** 
  65:.\main.c      **** void SetupI2C()
  66:.\main.c      **** {
  89              		.loc 1 66 0
  90              		.cfi_startproc
  91 0000 80B5     		push	{r7, lr}
  92              	.LCFI2:
  93              		.cfi_def_cfa_offset 8
  94              		.cfi_offset 7, -8
  95              		.cfi_offset 14, -4
  96 0002 00AF     		add	r7, sp, #0
  97              	.LCFI3:
  98              		.cfi_def_cfa_register 7
  67:.\main.c      ****     I2C_Start();
  99              		.loc 1 67 0
 100 0004 FFF7FEFF 		bl	I2C_Start
  68:.\main.c      **** }
ARM GAS  C:\Users\Felix\AppData\Local\Temp\cciLKkiE.s 			page 4


 101              		.loc 1 68 0
 102 0008 BD46     		mov	sp, r7
 103              		@ sp needed for prologue
 104 000a 80BD     		pop	{r7, pc}
 105              		.cfi_endproc
 106              	.LFE34:
 107              		.size	SetupI2C, .-SetupI2C
 108              		.section	.text.accDataReadyInterrupt,"ax",%progbits
 109              		.align	2
 110              		.global	accDataReadyInterrupt
 111              		.code	16
 112              		.thumb_func
 113              		.type	accDataReadyInterrupt, %function
 114              	accDataReadyInterrupt:
 115              	.LFB35:
  69:.\main.c      **** 
  70:.\main.c      **** CY_ISR(accDataReadyInterrupt)
  71:.\main.c      **** {
 116              		.loc 1 71 0
 117              		.cfi_startproc
 118 0000 80B5     		push	{r7, lr}
 119              	.LCFI4:
 120              		.cfi_def_cfa_offset 8
 121              		.cfi_offset 7, -8
 122              		.cfi_offset 14, -4
 123 0002 00AF     		add	r7, sp, #0
 124              	.LCFI5:
 125              		.cfi_def_cfa_register 7
  72:.\main.c      ****     //make necessary i2c reads from accellerometer.
  73:.\main.c      **** }
 126              		.loc 1 73 0
 127 0004 BD46     		mov	sp, r7
 128              		@ sp needed for prologue
 129 0006 80BD     		pop	{r7, pc}
 130              		.cfi_endproc
 131              	.LFE35:
 132              		.size	accDataReadyInterrupt, .-accDataReadyInterrupt
 133              		.section	.text.gyroDataReadyInterrupt,"ax",%progbits
 134              		.align	2
 135              		.global	gyroDataReadyInterrupt
 136              		.code	16
 137              		.thumb_func
 138              		.type	gyroDataReadyInterrupt, %function
 139              	gyroDataReadyInterrupt:
 140              	.LFB36:
  74:.\main.c      **** 
  75:.\main.c      **** CY_ISR(gyroDataReadyInterrupt)
  76:.\main.c      **** {
 141              		.loc 1 76 0
 142              		.cfi_startproc
 143 0000 80B5     		push	{r7, lr}
 144              	.LCFI6:
 145              		.cfi_def_cfa_offset 8
 146              		.cfi_offset 7, -8
 147              		.cfi_offset 14, -4
 148 0002 00AF     		add	r7, sp, #0
 149              	.LCFI7:
ARM GAS  C:\Users\Felix\AppData\Local\Temp\cciLKkiE.s 			page 5


 150              		.cfi_def_cfa_register 7
  77:.\main.c      ****     //make necessary i2c reads from accellerometer.
  78:.\main.c      **** }
 151              		.loc 1 78 0
 152 0004 BD46     		mov	sp, r7
 153              		@ sp needed for prologue
 154 0006 80BD     		pop	{r7, pc}
 155              		.cfi_endproc
 156              	.LFE36:
 157              		.size	gyroDataReadyInterrupt, .-gyroDataReadyInterrupt
 158              		.text
 159              	.Letext0:
 160              		.file 2 "./Generated_Source/PSoC4/cytypes.h"