ARM GAS  C:\Users\Jeppe\AppData\Local\Temp\ccuYjIE3.s 			page 1


   1              		.cpu cortex-m0
   2              		.fpu softvfp
   3              		.eabi_attribute 20, 1
   4              		.eabi_attribute 21, 1
   5              		.eabi_attribute 23, 3
   6              		.eabi_attribute 24, 1
   7              		.eabi_attribute 25, 1
   8              		.eabi_attribute 26, 1
   9              		.eabi_attribute 30, 6
  10              		.eabi_attribute 34, 0
  11              		.eabi_attribute 18, 4
  12              		.code	16
  13              		.file	"debugOut_PM.c"
  14              		.text
  15              	.Ltext0:
  16              		.cfi_sections	.debug_frame
  17              		.bss
  18              		.align	2
  19              	debugOut_backup:
  20 0000 00       		.space	1
  21 0001 000000   		.section	.text.debugOut_SaveConfig,"ax",%progbits
  22              		.align	2
  23              		.global	debugOut_SaveConfig
  24              		.code	16
  25              		.thumb_func
  26              		.type	debugOut_SaveConfig, %function
  27              	debugOut_SaveConfig:
  28              	.LFB0:
  29              		.file 1 ".\\Generated_Source\\PSoC4\\debugOut_PM.c"
   1:.\Generated_Source\PSoC4/debugOut_PM.c **** /*******************************************************************************
   2:.\Generated_Source\PSoC4/debugOut_PM.c **** * File Name: debugOut_PM.c
   3:.\Generated_Source\PSoC4/debugOut_PM.c **** * Version 2.40
   4:.\Generated_Source\PSoC4/debugOut_PM.c **** *
   5:.\Generated_Source\PSoC4/debugOut_PM.c **** * Description:
   6:.\Generated_Source\PSoC4/debugOut_PM.c **** *  This file provides Sleep/WakeUp APIs functionality.
   7:.\Generated_Source\PSoC4/debugOut_PM.c **** *
   8:.\Generated_Source\PSoC4/debugOut_PM.c **** * Note:
   9:.\Generated_Source\PSoC4/debugOut_PM.c **** *
  10:.\Generated_Source\PSoC4/debugOut_PM.c **** ********************************************************************************
  11:.\Generated_Source\PSoC4/debugOut_PM.c **** * Copyright 2008-2015, Cypress Semiconductor Corporation.  All rights reserved.
  12:.\Generated_Source\PSoC4/debugOut_PM.c **** * You may use this file only in accordance with the license, terms, conditions,
  13:.\Generated_Source\PSoC4/debugOut_PM.c **** * disclaimers, and limitations in the end user license agreement accompanying
  14:.\Generated_Source\PSoC4/debugOut_PM.c **** * the software package with which this file was provided.
  15:.\Generated_Source\PSoC4/debugOut_PM.c **** *******************************************************************************/
  16:.\Generated_Source\PSoC4/debugOut_PM.c **** 
  17:.\Generated_Source\PSoC4/debugOut_PM.c **** #include "debugOut.h"
  18:.\Generated_Source\PSoC4/debugOut_PM.c **** 
  19:.\Generated_Source\PSoC4/debugOut_PM.c **** 
  20:.\Generated_Source\PSoC4/debugOut_PM.c **** /***************************************
  21:.\Generated_Source\PSoC4/debugOut_PM.c **** * Local data allocation
  22:.\Generated_Source\PSoC4/debugOut_PM.c **** ***************************************/
  23:.\Generated_Source\PSoC4/debugOut_PM.c **** 
  24:.\Generated_Source\PSoC4/debugOut_PM.c **** static debugOut_BACKUP_STRUCT  debugOut_backup =
  25:.\Generated_Source\PSoC4/debugOut_PM.c **** {
  26:.\Generated_Source\PSoC4/debugOut_PM.c ****     /* enableState - disabled */
  27:.\Generated_Source\PSoC4/debugOut_PM.c ****     0u,
  28:.\Generated_Source\PSoC4/debugOut_PM.c **** };
ARM GAS  C:\Users\Jeppe\AppData\Local\Temp\ccuYjIE3.s 			page 2


  29:.\Generated_Source\PSoC4/debugOut_PM.c **** 
  30:.\Generated_Source\PSoC4/debugOut_PM.c **** 
  31:.\Generated_Source\PSoC4/debugOut_PM.c **** 
  32:.\Generated_Source\PSoC4/debugOut_PM.c **** /*******************************************************************************
  33:.\Generated_Source\PSoC4/debugOut_PM.c **** * Function Name: debugOut_SaveConfig
  34:.\Generated_Source\PSoC4/debugOut_PM.c **** ********************************************************************************
  35:.\Generated_Source\PSoC4/debugOut_PM.c **** *
  36:.\Generated_Source\PSoC4/debugOut_PM.c **** * Summary:
  37:.\Generated_Source\PSoC4/debugOut_PM.c **** *  This function saves the component configuration and nonretention registers.
  38:.\Generated_Source\PSoC4/debugOut_PM.c **** *  It also saves the current component parameter values, as defined in the
  39:.\Generated_Source\PSoC4/debugOut_PM.c **** *  Configure dialog or as modified by appropriate APIs. This function is called
  40:.\Generated_Source\PSoC4/debugOut_PM.c **** *  by the debugOut_Sleep() function.
  41:.\Generated_Source\PSoC4/debugOut_PM.c **** *
  42:.\Generated_Source\PSoC4/debugOut_PM.c **** * Parameters:
  43:.\Generated_Source\PSoC4/debugOut_PM.c **** *  None.
  44:.\Generated_Source\PSoC4/debugOut_PM.c **** *
  45:.\Generated_Source\PSoC4/debugOut_PM.c **** * Return:
  46:.\Generated_Source\PSoC4/debugOut_PM.c **** *  None.
  47:.\Generated_Source\PSoC4/debugOut_PM.c **** *
  48:.\Generated_Source\PSoC4/debugOut_PM.c **** * Global Variables:
  49:.\Generated_Source\PSoC4/debugOut_PM.c **** *  debugOut_backup - modified when non-retention registers are saved.
  50:.\Generated_Source\PSoC4/debugOut_PM.c **** *
  51:.\Generated_Source\PSoC4/debugOut_PM.c **** * Reentrant:
  52:.\Generated_Source\PSoC4/debugOut_PM.c **** *  No.
  53:.\Generated_Source\PSoC4/debugOut_PM.c **** *
  54:.\Generated_Source\PSoC4/debugOut_PM.c **** * Side Effects:
  55:.\Generated_Source\PSoC4/debugOut_PM.c **** *  All nonretention registers except FIFO are saved to RAM
  56:.\Generated_Source\PSoC4/debugOut_PM.c **** *
  57:.\Generated_Source\PSoC4/debugOut_PM.c **** *******************************************************************************/
  58:.\Generated_Source\PSoC4/debugOut_PM.c **** void debugOut_SaveConfig(void)
  59:.\Generated_Source\PSoC4/debugOut_PM.c **** {
  30              		.loc 1 59 0
  31              		.cfi_startproc
  32 0000 80B5     		push	{r7, lr}
  33              		.cfi_def_cfa_offset 8
  34              		.cfi_offset 7, -8
  35              		.cfi_offset 14, -4
  36 0002 00AF     		add	r7, sp, #0
  37              		.cfi_def_cfa_register 7
  60:.\Generated_Source\PSoC4/debugOut_PM.c ****     #if(debugOut_CONTROL_REG_REMOVED == 0u)
  61:.\Generated_Source\PSoC4/debugOut_PM.c ****         debugOut_backup.cr = debugOut_CONTROL_REG;
  62:.\Generated_Source\PSoC4/debugOut_PM.c ****     #endif /* End debugOut_CONTROL_REG_REMOVED */
  63:.\Generated_Source\PSoC4/debugOut_PM.c **** }
  38              		.loc 1 63 0
  39 0004 BD46     		mov	sp, r7
  40              		@ sp needed
  41 0006 80BD     		pop	{r7, pc}
  42              		.cfi_endproc
  43              	.LFE0:
  44              		.size	debugOut_SaveConfig, .-debugOut_SaveConfig
  45              		.section	.text.debugOut_RestoreConfig,"ax",%progbits
  46              		.align	2
  47              		.global	debugOut_RestoreConfig
  48              		.code	16
  49              		.thumb_func
  50              		.type	debugOut_RestoreConfig, %function
  51              	debugOut_RestoreConfig:
ARM GAS  C:\Users\Jeppe\AppData\Local\Temp\ccuYjIE3.s 			page 3


  52              	.LFB1:
  64:.\Generated_Source\PSoC4/debugOut_PM.c **** 
  65:.\Generated_Source\PSoC4/debugOut_PM.c **** 
  66:.\Generated_Source\PSoC4/debugOut_PM.c **** /*******************************************************************************
  67:.\Generated_Source\PSoC4/debugOut_PM.c **** * Function Name: debugOut_RestoreConfig
  68:.\Generated_Source\PSoC4/debugOut_PM.c **** ********************************************************************************
  69:.\Generated_Source\PSoC4/debugOut_PM.c **** *
  70:.\Generated_Source\PSoC4/debugOut_PM.c **** * Summary:
  71:.\Generated_Source\PSoC4/debugOut_PM.c **** *  Restores the user configuration of nonretention registers.
  72:.\Generated_Source\PSoC4/debugOut_PM.c **** *
  73:.\Generated_Source\PSoC4/debugOut_PM.c **** * Parameters:
  74:.\Generated_Source\PSoC4/debugOut_PM.c **** *  None.
  75:.\Generated_Source\PSoC4/debugOut_PM.c **** *
  76:.\Generated_Source\PSoC4/debugOut_PM.c **** * Return:
  77:.\Generated_Source\PSoC4/debugOut_PM.c **** *  None.
  78:.\Generated_Source\PSoC4/debugOut_PM.c **** *
  79:.\Generated_Source\PSoC4/debugOut_PM.c **** * Global Variables:
  80:.\Generated_Source\PSoC4/debugOut_PM.c **** *  debugOut_backup - used when non-retention registers are restored.
  81:.\Generated_Source\PSoC4/debugOut_PM.c **** *
  82:.\Generated_Source\PSoC4/debugOut_PM.c **** * Reentrant:
  83:.\Generated_Source\PSoC4/debugOut_PM.c **** *  No.
  84:.\Generated_Source\PSoC4/debugOut_PM.c **** *
  85:.\Generated_Source\PSoC4/debugOut_PM.c **** * Side Effects:
  86:.\Generated_Source\PSoC4/debugOut_PM.c **** *  All nonretention registers except FIFO loaded from RAM. This function should
  87:.\Generated_Source\PSoC4/debugOut_PM.c **** *  be called only after debugOut_SaveConfig() is called, otherwise
  88:.\Generated_Source\PSoC4/debugOut_PM.c **** *  incorrect data will be loaded into the registers.
  89:.\Generated_Source\PSoC4/debugOut_PM.c **** *
  90:.\Generated_Source\PSoC4/debugOut_PM.c **** *******************************************************************************/
  91:.\Generated_Source\PSoC4/debugOut_PM.c **** void debugOut_RestoreConfig(void)
  92:.\Generated_Source\PSoC4/debugOut_PM.c **** {
  53              		.loc 1 92 0
  54              		.cfi_startproc
  55 0000 80B5     		push	{r7, lr}
  56              		.cfi_def_cfa_offset 8
  57              		.cfi_offset 7, -8
  58              		.cfi_offset 14, -4
  59 0002 00AF     		add	r7, sp, #0
  60              		.cfi_def_cfa_register 7
  93:.\Generated_Source\PSoC4/debugOut_PM.c ****     #if(debugOut_CONTROL_REG_REMOVED == 0u)
  94:.\Generated_Source\PSoC4/debugOut_PM.c ****         debugOut_CONTROL_REG = debugOut_backup.cr;
  95:.\Generated_Source\PSoC4/debugOut_PM.c ****     #endif /* End debugOut_CONTROL_REG_REMOVED */
  96:.\Generated_Source\PSoC4/debugOut_PM.c **** }
  61              		.loc 1 96 0
  62 0004 BD46     		mov	sp, r7
  63              		@ sp needed
  64 0006 80BD     		pop	{r7, pc}
  65              		.cfi_endproc
  66              	.LFE1:
  67              		.size	debugOut_RestoreConfig, .-debugOut_RestoreConfig
  68              		.section	.text.debugOut_Sleep,"ax",%progbits
  69              		.align	2
  70              		.global	debugOut_Sleep
  71              		.code	16
  72              		.thumb_func
  73              		.type	debugOut_Sleep, %function
  74              	debugOut_Sleep:
  75              	.LFB2:
ARM GAS  C:\Users\Jeppe\AppData\Local\Temp\ccuYjIE3.s 			page 4


  97:.\Generated_Source\PSoC4/debugOut_PM.c **** 
  98:.\Generated_Source\PSoC4/debugOut_PM.c **** 
  99:.\Generated_Source\PSoC4/debugOut_PM.c **** /*******************************************************************************
 100:.\Generated_Source\PSoC4/debugOut_PM.c **** * Function Name: debugOut_Sleep
 101:.\Generated_Source\PSoC4/debugOut_PM.c **** ********************************************************************************
 102:.\Generated_Source\PSoC4/debugOut_PM.c **** *
 103:.\Generated_Source\PSoC4/debugOut_PM.c **** * Summary:
 104:.\Generated_Source\PSoC4/debugOut_PM.c **** *  This is the preferred API to prepare the component for sleep. 
 105:.\Generated_Source\PSoC4/debugOut_PM.c **** *  The debugOut_Sleep() API saves the current component state. Then it
 106:.\Generated_Source\PSoC4/debugOut_PM.c **** *  calls the debugOut_Stop() function and calls 
 107:.\Generated_Source\PSoC4/debugOut_PM.c **** *  debugOut_SaveConfig() to save the hardware configuration.
 108:.\Generated_Source\PSoC4/debugOut_PM.c **** *  Call the debugOut_Sleep() function before calling the CyPmSleep() 
 109:.\Generated_Source\PSoC4/debugOut_PM.c **** *  or the CyPmHibernate() function. 
 110:.\Generated_Source\PSoC4/debugOut_PM.c **** *
 111:.\Generated_Source\PSoC4/debugOut_PM.c **** * Parameters:
 112:.\Generated_Source\PSoC4/debugOut_PM.c **** *  None.
 113:.\Generated_Source\PSoC4/debugOut_PM.c **** *
 114:.\Generated_Source\PSoC4/debugOut_PM.c **** * Return:
 115:.\Generated_Source\PSoC4/debugOut_PM.c **** *  None.
 116:.\Generated_Source\PSoC4/debugOut_PM.c **** *
 117:.\Generated_Source\PSoC4/debugOut_PM.c **** * Global Variables:
 118:.\Generated_Source\PSoC4/debugOut_PM.c **** *  debugOut_backup - modified when non-retention registers are saved.
 119:.\Generated_Source\PSoC4/debugOut_PM.c **** *
 120:.\Generated_Source\PSoC4/debugOut_PM.c **** * Reentrant:
 121:.\Generated_Source\PSoC4/debugOut_PM.c **** *  No.
 122:.\Generated_Source\PSoC4/debugOut_PM.c **** *
 123:.\Generated_Source\PSoC4/debugOut_PM.c **** *******************************************************************************/
 124:.\Generated_Source\PSoC4/debugOut_PM.c **** void debugOut_Sleep(void)
 125:.\Generated_Source\PSoC4/debugOut_PM.c **** {
  76              		.loc 1 125 0
  77              		.cfi_startproc
  78 0000 80B5     		push	{r7, lr}
  79              		.cfi_def_cfa_offset 8
  80              		.cfi_offset 7, -8
  81              		.cfi_offset 14, -4
  82 0002 00AF     		add	r7, sp, #0
  83              		.cfi_def_cfa_register 7
 126:.\Generated_Source\PSoC4/debugOut_PM.c ****     #if(debugOut_RX_ENABLED || debugOut_HD_ENABLED)
 127:.\Generated_Source\PSoC4/debugOut_PM.c ****         if((debugOut_RXSTATUS_ACTL_REG  & debugOut_INT_ENABLE) != 0u)
 128:.\Generated_Source\PSoC4/debugOut_PM.c ****         {
 129:.\Generated_Source\PSoC4/debugOut_PM.c ****             debugOut_backup.enableState = 1u;
 130:.\Generated_Source\PSoC4/debugOut_PM.c ****         }
 131:.\Generated_Source\PSoC4/debugOut_PM.c ****         else
 132:.\Generated_Source\PSoC4/debugOut_PM.c ****         {
 133:.\Generated_Source\PSoC4/debugOut_PM.c ****             debugOut_backup.enableState = 0u;
 134:.\Generated_Source\PSoC4/debugOut_PM.c ****         }
 135:.\Generated_Source\PSoC4/debugOut_PM.c ****     #else
 136:.\Generated_Source\PSoC4/debugOut_PM.c ****         if((debugOut_TXSTATUS_ACTL_REG  & debugOut_INT_ENABLE) !=0u)
  84              		.loc 1 136 0
  85 0004 094B     		ldr	r3, .L6
  86 0006 1B78     		ldrb	r3, [r3]
  87 0008 DBB2     		uxtb	r3, r3
  88 000a 1A1C     		mov	r2, r3
  89 000c 1023     		mov	r3, #16
  90 000e 1340     		and	r3, r2
  91 0010 03D0     		beq	.L4
 137:.\Generated_Source\PSoC4/debugOut_PM.c ****         {
ARM GAS  C:\Users\Jeppe\AppData\Local\Temp\ccuYjIE3.s 			page 5


 138:.\Generated_Source\PSoC4/debugOut_PM.c ****             debugOut_backup.enableState = 1u;
  92              		.loc 1 138 0
  93 0012 074B     		ldr	r3, .L6+4
  94 0014 0122     		mov	r2, #1
  95 0016 1A70     		strb	r2, [r3]
  96 0018 02E0     		b	.L5
  97              	.L4:
 139:.\Generated_Source\PSoC4/debugOut_PM.c ****         }
 140:.\Generated_Source\PSoC4/debugOut_PM.c ****         else
 141:.\Generated_Source\PSoC4/debugOut_PM.c ****         {
 142:.\Generated_Source\PSoC4/debugOut_PM.c ****             debugOut_backup.enableState = 0u;
  98              		.loc 1 142 0
  99 001a 054B     		ldr	r3, .L6+4
 100 001c 0022     		mov	r2, #0
 101 001e 1A70     		strb	r2, [r3]
 102              	.L5:
 143:.\Generated_Source\PSoC4/debugOut_PM.c ****         }
 144:.\Generated_Source\PSoC4/debugOut_PM.c ****     #endif /* End debugOut_RX_ENABLED || debugOut_HD_ENABLED*/
 145:.\Generated_Source\PSoC4/debugOut_PM.c **** 
 146:.\Generated_Source\PSoC4/debugOut_PM.c ****     debugOut_Stop();
 103              		.loc 1 146 0
 104 0020 FFF7FEFF 		bl	debugOut_Stop
 147:.\Generated_Source\PSoC4/debugOut_PM.c ****     debugOut_SaveConfig();
 105              		.loc 1 147 0
 106 0024 FFF7FEFF 		bl	debugOut_SaveConfig
 148:.\Generated_Source\PSoC4/debugOut_PM.c **** }
 107              		.loc 1 148 0
 108 0028 BD46     		mov	sp, r7
 109              		@ sp needed
 110 002a 80BD     		pop	{r7, pc}
 111              	.L7:
 112              		.align	2
 113              	.L6:
 114 002c 92000F40 		.word	1074725010
 115 0030 00000000 		.word	debugOut_backup
 116              		.cfi_endproc
 117              	.LFE2:
 118              		.size	debugOut_Sleep, .-debugOut_Sleep
 119              		.section	.text.debugOut_Wakeup,"ax",%progbits
 120              		.align	2
 121              		.global	debugOut_Wakeup
 122              		.code	16
 123              		.thumb_func
 124              		.type	debugOut_Wakeup, %function
 125              	debugOut_Wakeup:
 126              	.LFB3:
 149:.\Generated_Source\PSoC4/debugOut_PM.c **** 
 150:.\Generated_Source\PSoC4/debugOut_PM.c **** 
 151:.\Generated_Source\PSoC4/debugOut_PM.c **** /*******************************************************************************
 152:.\Generated_Source\PSoC4/debugOut_PM.c **** * Function Name: debugOut_Wakeup
 153:.\Generated_Source\PSoC4/debugOut_PM.c **** ********************************************************************************
 154:.\Generated_Source\PSoC4/debugOut_PM.c **** *
 155:.\Generated_Source\PSoC4/debugOut_PM.c **** * Summary:
 156:.\Generated_Source\PSoC4/debugOut_PM.c **** *  This is the preferred API to restore the component to the state when 
 157:.\Generated_Source\PSoC4/debugOut_PM.c **** *  debugOut_Sleep() was called. The debugOut_Wakeup() function
 158:.\Generated_Source\PSoC4/debugOut_PM.c **** *  calls the debugOut_RestoreConfig() function to restore the 
 159:.\Generated_Source\PSoC4/debugOut_PM.c **** *  configuration. If the component was enabled before the 
ARM GAS  C:\Users\Jeppe\AppData\Local\Temp\ccuYjIE3.s 			page 6


 160:.\Generated_Source\PSoC4/debugOut_PM.c **** *  debugOut_Sleep() function was called, the debugOut_Wakeup()
 161:.\Generated_Source\PSoC4/debugOut_PM.c **** *  function will also re-enable the component.
 162:.\Generated_Source\PSoC4/debugOut_PM.c **** *
 163:.\Generated_Source\PSoC4/debugOut_PM.c **** * Parameters:
 164:.\Generated_Source\PSoC4/debugOut_PM.c **** *  None.
 165:.\Generated_Source\PSoC4/debugOut_PM.c **** *
 166:.\Generated_Source\PSoC4/debugOut_PM.c **** * Return:
 167:.\Generated_Source\PSoC4/debugOut_PM.c **** *  None.
 168:.\Generated_Source\PSoC4/debugOut_PM.c **** *
 169:.\Generated_Source\PSoC4/debugOut_PM.c **** * Global Variables:
 170:.\Generated_Source\PSoC4/debugOut_PM.c **** *  debugOut_backup - used when non-retention registers are restored.
 171:.\Generated_Source\PSoC4/debugOut_PM.c **** *
 172:.\Generated_Source\PSoC4/debugOut_PM.c **** * Reentrant:
 173:.\Generated_Source\PSoC4/debugOut_PM.c **** *  No.
 174:.\Generated_Source\PSoC4/debugOut_PM.c **** *
 175:.\Generated_Source\PSoC4/debugOut_PM.c **** *******************************************************************************/
 176:.\Generated_Source\PSoC4/debugOut_PM.c **** void debugOut_Wakeup(void)
 177:.\Generated_Source\PSoC4/debugOut_PM.c **** {
 127              		.loc 1 177 0
 128              		.cfi_startproc
 129 0000 80B5     		push	{r7, lr}
 130              		.cfi_def_cfa_offset 8
 131              		.cfi_offset 7, -8
 132              		.cfi_offset 14, -4
 133 0002 00AF     		add	r7, sp, #0
 134              		.cfi_def_cfa_register 7
 178:.\Generated_Source\PSoC4/debugOut_PM.c ****     debugOut_RestoreConfig();
 135              		.loc 1 178 0
 136 0004 FFF7FEFF 		bl	debugOut_RestoreConfig
 179:.\Generated_Source\PSoC4/debugOut_PM.c ****     #if( (debugOut_RX_ENABLED) || (debugOut_HD_ENABLED) )
 180:.\Generated_Source\PSoC4/debugOut_PM.c ****         debugOut_ClearRxBuffer();
 181:.\Generated_Source\PSoC4/debugOut_PM.c ****     #endif /* End (debugOut_RX_ENABLED) || (debugOut_HD_ENABLED) */
 182:.\Generated_Source\PSoC4/debugOut_PM.c ****     #if(debugOut_TX_ENABLED || debugOut_HD_ENABLED)
 183:.\Generated_Source\PSoC4/debugOut_PM.c ****         debugOut_ClearTxBuffer();
 137              		.loc 1 183 0
 138 0008 FFF7FEFF 		bl	debugOut_ClearTxBuffer
 184:.\Generated_Source\PSoC4/debugOut_PM.c ****     #endif /* End debugOut_TX_ENABLED || debugOut_HD_ENABLED */
 185:.\Generated_Source\PSoC4/debugOut_PM.c **** 
 186:.\Generated_Source\PSoC4/debugOut_PM.c ****     if(debugOut_backup.enableState != 0u)
 139              		.loc 1 186 0
 140 000c 034B     		ldr	r3, .L10
 141 000e 1B78     		ldrb	r3, [r3]
 142 0010 002B     		cmp	r3, #0
 143 0012 01D0     		beq	.L8
 187:.\Generated_Source\PSoC4/debugOut_PM.c ****     {
 188:.\Generated_Source\PSoC4/debugOut_PM.c ****         debugOut_Enable();
 144              		.loc 1 188 0
 145 0014 FFF7FEFF 		bl	debugOut_Enable
 146              	.L8:
 189:.\Generated_Source\PSoC4/debugOut_PM.c ****     }
 190:.\Generated_Source\PSoC4/debugOut_PM.c **** }
 147              		.loc 1 190 0
 148 0018 BD46     		mov	sp, r7
 149              		@ sp needed
 150 001a 80BD     		pop	{r7, pc}
 151              	.L11:
 152              		.align	2
ARM GAS  C:\Users\Jeppe\AppData\Local\Temp\ccuYjIE3.s 			page 7


 153              	.L10:
 154 001c 00000000 		.word	debugOut_backup
 155              		.cfi_endproc
 156              	.LFE3:
 157              		.size	debugOut_Wakeup, .-debugOut_Wakeup
 158              		.text
 159              	.Letext0:
 160              		.file 2 ".\\Generated_Source\\PSoC4\\cytypes.h"
 161              		.file 3 ".\\Generated_Source\\PSoC4\\debugOut.h"