ARM GAS  C:\Users\Jeppe\AppData\Local\Temp\ccAuc0tw.s 			page 1


   1              		.cpu cortex-m0
   2              		.fpu softvfp
   3              		.eabi_attribute 20, 1
   4              		.eabi_attribute 21, 1
   5              		.eabi_attribute 23, 3
   6              		.eabi_attribute 24, 1
   7              		.eabi_attribute 25, 1
   8              		.eabi_attribute 26, 1
   9              		.eabi_attribute 30, 6
  10              		.eabi_attribute 34, 0
  11              		.eabi_attribute 18, 4
  12              		.code	16
  13              		.file	"debugOut.c"
  14              		.text
  15              	.Ltext0:
  16              		.cfi_sections	.debug_frame
  17              		.global	debugOut_initVar
  18              		.bss
  19              		.type	debugOut_initVar, %object
  20              		.size	debugOut_initVar, 1
  21              	debugOut_initVar:
  22 0000 00       		.space	1
  23              		.section	.text.debugOut_Start,"ax",%progbits
  24              		.align	2
  25              		.global	debugOut_Start
  26              		.code	16
  27              		.thumb_func
  28              		.type	debugOut_Start, %function
  29              	debugOut_Start:
  30              	.LFB0:
  31              		.file 1 ".\\Generated_Source\\PSoC4\\debugOut.c"
   1:.\Generated_Source\PSoC4/debugOut.c **** /*******************************************************************************
   2:.\Generated_Source\PSoC4/debugOut.c **** * File Name: debugOut.c
   3:.\Generated_Source\PSoC4/debugOut.c **** * Version 2.40
   4:.\Generated_Source\PSoC4/debugOut.c **** *
   5:.\Generated_Source\PSoC4/debugOut.c **** * Description:
   6:.\Generated_Source\PSoC4/debugOut.c **** *  This file provides all API functionality of the UART component
   7:.\Generated_Source\PSoC4/debugOut.c **** *
   8:.\Generated_Source\PSoC4/debugOut.c **** * Note:
   9:.\Generated_Source\PSoC4/debugOut.c **** *
  10:.\Generated_Source\PSoC4/debugOut.c **** ********************************************************************************
  11:.\Generated_Source\PSoC4/debugOut.c **** * Copyright 2008-2015, Cypress Semiconductor Corporation.  All rights reserved.
  12:.\Generated_Source\PSoC4/debugOut.c **** * You may use this file only in accordance with the license, terms, conditions,
  13:.\Generated_Source\PSoC4/debugOut.c **** * disclaimers, and limitations in the end user license agreement accompanying
  14:.\Generated_Source\PSoC4/debugOut.c **** * the software package with which this file was provided.
  15:.\Generated_Source\PSoC4/debugOut.c **** *******************************************************************************/
  16:.\Generated_Source\PSoC4/debugOut.c **** 
  17:.\Generated_Source\PSoC4/debugOut.c **** #include "debugOut.h"
  18:.\Generated_Source\PSoC4/debugOut.c **** #if (debugOut_INTERNAL_CLOCK_USED)
  19:.\Generated_Source\PSoC4/debugOut.c ****     #include "debugOut_IntClock.h"
  20:.\Generated_Source\PSoC4/debugOut.c **** #endif /* End debugOut_INTERNAL_CLOCK_USED */
  21:.\Generated_Source\PSoC4/debugOut.c **** 
  22:.\Generated_Source\PSoC4/debugOut.c **** 
  23:.\Generated_Source\PSoC4/debugOut.c **** /***************************************
  24:.\Generated_Source\PSoC4/debugOut.c **** * Global data allocation
  25:.\Generated_Source\PSoC4/debugOut.c **** ***************************************/
  26:.\Generated_Source\PSoC4/debugOut.c **** 
ARM GAS  C:\Users\Jeppe\AppData\Local\Temp\ccAuc0tw.s 			page 2


  27:.\Generated_Source\PSoC4/debugOut.c **** uint8 debugOut_initVar = 0u;
  28:.\Generated_Source\PSoC4/debugOut.c **** 
  29:.\Generated_Source\PSoC4/debugOut.c **** #if (debugOut_TX_INTERRUPT_ENABLED && debugOut_TX_ENABLED)
  30:.\Generated_Source\PSoC4/debugOut.c ****     volatile uint8 debugOut_txBuffer[debugOut_TX_BUFFER_SIZE];
  31:.\Generated_Source\PSoC4/debugOut.c ****     volatile uint8 debugOut_txBufferRead = 0u;
  32:.\Generated_Source\PSoC4/debugOut.c ****     uint8 debugOut_txBufferWrite = 0u;
  33:.\Generated_Source\PSoC4/debugOut.c **** #endif /* (debugOut_TX_INTERRUPT_ENABLED && debugOut_TX_ENABLED) */
  34:.\Generated_Source\PSoC4/debugOut.c **** 
  35:.\Generated_Source\PSoC4/debugOut.c **** #if (debugOut_RX_INTERRUPT_ENABLED && (debugOut_RX_ENABLED || debugOut_HD_ENABLED))
  36:.\Generated_Source\PSoC4/debugOut.c ****     uint8 debugOut_errorStatus = 0u;
  37:.\Generated_Source\PSoC4/debugOut.c ****     volatile uint8 debugOut_rxBuffer[debugOut_RX_BUFFER_SIZE];
  38:.\Generated_Source\PSoC4/debugOut.c ****     volatile uint8 debugOut_rxBufferRead  = 0u;
  39:.\Generated_Source\PSoC4/debugOut.c ****     volatile uint8 debugOut_rxBufferWrite = 0u;
  40:.\Generated_Source\PSoC4/debugOut.c ****     volatile uint8 debugOut_rxBufferLoopDetect = 0u;
  41:.\Generated_Source\PSoC4/debugOut.c ****     volatile uint8 debugOut_rxBufferOverflow   = 0u;
  42:.\Generated_Source\PSoC4/debugOut.c ****     #if (debugOut_RXHW_ADDRESS_ENABLED)
  43:.\Generated_Source\PSoC4/debugOut.c ****         volatile uint8 debugOut_rxAddressMode = debugOut_RX_ADDRESS_MODE;
  44:.\Generated_Source\PSoC4/debugOut.c ****         volatile uint8 debugOut_rxAddressDetected = 0u;
  45:.\Generated_Source\PSoC4/debugOut.c ****     #endif /* (debugOut_RXHW_ADDRESS_ENABLED) */
  46:.\Generated_Source\PSoC4/debugOut.c **** #endif /* (debugOut_RX_INTERRUPT_ENABLED && (debugOut_RX_ENABLED || debugOut_HD_ENABLED)) */
  47:.\Generated_Source\PSoC4/debugOut.c **** 
  48:.\Generated_Source\PSoC4/debugOut.c **** 
  49:.\Generated_Source\PSoC4/debugOut.c **** /*******************************************************************************
  50:.\Generated_Source\PSoC4/debugOut.c **** * Function Name: debugOut_Start
  51:.\Generated_Source\PSoC4/debugOut.c **** ********************************************************************************
  52:.\Generated_Source\PSoC4/debugOut.c **** *
  53:.\Generated_Source\PSoC4/debugOut.c **** * Summary:
  54:.\Generated_Source\PSoC4/debugOut.c **** *  This is the preferred method to begin component operation.
  55:.\Generated_Source\PSoC4/debugOut.c **** *  debugOut_Start() sets the initVar variable, calls the
  56:.\Generated_Source\PSoC4/debugOut.c **** *  debugOut_Init() function, and then calls the
  57:.\Generated_Source\PSoC4/debugOut.c **** *  debugOut_Enable() function.
  58:.\Generated_Source\PSoC4/debugOut.c **** *
  59:.\Generated_Source\PSoC4/debugOut.c **** * Parameters:
  60:.\Generated_Source\PSoC4/debugOut.c **** *  None.
  61:.\Generated_Source\PSoC4/debugOut.c **** *
  62:.\Generated_Source\PSoC4/debugOut.c **** * Return:
  63:.\Generated_Source\PSoC4/debugOut.c **** *  None.
  64:.\Generated_Source\PSoC4/debugOut.c **** *
  65:.\Generated_Source\PSoC4/debugOut.c **** * Global variables:
  66:.\Generated_Source\PSoC4/debugOut.c **** *  The debugOut_intiVar variable is used to indicate initial
  67:.\Generated_Source\PSoC4/debugOut.c **** *  configuration of this component. The variable is initialized to zero (0u)
  68:.\Generated_Source\PSoC4/debugOut.c **** *  and set to one (1u) the first time debugOut_Start() is called. This
  69:.\Generated_Source\PSoC4/debugOut.c **** *  allows for component initialization without re-initialization in all
  70:.\Generated_Source\PSoC4/debugOut.c **** *  subsequent calls to the debugOut_Start() routine.
  71:.\Generated_Source\PSoC4/debugOut.c **** *
  72:.\Generated_Source\PSoC4/debugOut.c **** * Reentrant:
  73:.\Generated_Source\PSoC4/debugOut.c **** *  No.
  74:.\Generated_Source\PSoC4/debugOut.c **** *
  75:.\Generated_Source\PSoC4/debugOut.c **** *******************************************************************************/
  76:.\Generated_Source\PSoC4/debugOut.c **** void debugOut_Start(void) 
  77:.\Generated_Source\PSoC4/debugOut.c **** {
  32              		.loc 1 77 0
  33              		.cfi_startproc
  34 0000 80B5     		push	{r7, lr}
  35              		.cfi_def_cfa_offset 8
  36              		.cfi_offset 7, -8
  37              		.cfi_offset 14, -4
ARM GAS  C:\Users\Jeppe\AppData\Local\Temp\ccAuc0tw.s 			page 3


  38 0002 00AF     		add	r7, sp, #0
  39              		.cfi_def_cfa_register 7
  78:.\Generated_Source\PSoC4/debugOut.c ****     /* If not initialized then initialize all required hardware and software */
  79:.\Generated_Source\PSoC4/debugOut.c ****     if(debugOut_initVar == 0u)
  40              		.loc 1 79 0
  41 0004 064B     		ldr	r3, .L3
  42 0006 1B78     		ldrb	r3, [r3]
  43 0008 002B     		cmp	r3, #0
  44 000a 04D1     		bne	.L2
  80:.\Generated_Source\PSoC4/debugOut.c ****     {
  81:.\Generated_Source\PSoC4/debugOut.c ****         debugOut_Init();
  45              		.loc 1 81 0
  46 000c FFF7FEFF 		bl	debugOut_Init
  82:.\Generated_Source\PSoC4/debugOut.c ****         debugOut_initVar = 1u;
  47              		.loc 1 82 0
  48 0010 034B     		ldr	r3, .L3
  49 0012 0122     		mov	r2, #1
  50 0014 1A70     		strb	r2, [r3]
  51              	.L2:
  83:.\Generated_Source\PSoC4/debugOut.c ****     }
  84:.\Generated_Source\PSoC4/debugOut.c **** 
  85:.\Generated_Source\PSoC4/debugOut.c ****     debugOut_Enable();
  52              		.loc 1 85 0
  53 0016 FFF7FEFF 		bl	debugOut_Enable
  86:.\Generated_Source\PSoC4/debugOut.c **** }
  54              		.loc 1 86 0
  55 001a BD46     		mov	sp, r7
  56              		@ sp needed
  57 001c 80BD     		pop	{r7, pc}
  58              	.L4:
  59 001e C046     		.align	2
  60              	.L3:
  61 0020 00000000 		.word	debugOut_initVar
  62              		.cfi_endproc
  63              	.LFE0:
  64              		.size	debugOut_Start, .-debugOut_Start
  65              		.section	.text.debugOut_Init,"ax",%progbits
  66              		.align	2
  67              		.global	debugOut_Init
  68              		.code	16
  69              		.thumb_func
  70              		.type	debugOut_Init, %function
  71              	debugOut_Init:
  72              	.LFB1:
  87:.\Generated_Source\PSoC4/debugOut.c **** 
  88:.\Generated_Source\PSoC4/debugOut.c **** 
  89:.\Generated_Source\PSoC4/debugOut.c **** /*******************************************************************************
  90:.\Generated_Source\PSoC4/debugOut.c **** * Function Name: debugOut_Init
  91:.\Generated_Source\PSoC4/debugOut.c **** ********************************************************************************
  92:.\Generated_Source\PSoC4/debugOut.c **** *
  93:.\Generated_Source\PSoC4/debugOut.c **** * Summary:
  94:.\Generated_Source\PSoC4/debugOut.c **** *  Initializes or restores the component according to the customizer Configure
  95:.\Generated_Source\PSoC4/debugOut.c **** *  dialog settings. It is not necessary to call debugOut_Init() because
  96:.\Generated_Source\PSoC4/debugOut.c **** *  the debugOut_Start() API calls this function and is the preferred
  97:.\Generated_Source\PSoC4/debugOut.c **** *  method to begin component operation.
  98:.\Generated_Source\PSoC4/debugOut.c **** *
  99:.\Generated_Source\PSoC4/debugOut.c **** * Parameters:
ARM GAS  C:\Users\Jeppe\AppData\Local\Temp\ccAuc0tw.s 			page 4


 100:.\Generated_Source\PSoC4/debugOut.c **** *  None.
 101:.\Generated_Source\PSoC4/debugOut.c **** *
 102:.\Generated_Source\PSoC4/debugOut.c **** * Return:
 103:.\Generated_Source\PSoC4/debugOut.c **** *  None.
 104:.\Generated_Source\PSoC4/debugOut.c **** *
 105:.\Generated_Source\PSoC4/debugOut.c **** *******************************************************************************/
 106:.\Generated_Source\PSoC4/debugOut.c **** void debugOut_Init(void) 
 107:.\Generated_Source\PSoC4/debugOut.c **** {
  73              		.loc 1 107 0
  74              		.cfi_startproc
  75 0000 80B5     		push	{r7, lr}
  76              		.cfi_def_cfa_offset 8
  77              		.cfi_offset 7, -8
  78              		.cfi_offset 14, -4
  79 0002 00AF     		add	r7, sp, #0
  80              		.cfi_def_cfa_register 7
 108:.\Generated_Source\PSoC4/debugOut.c ****     #if(debugOut_RX_ENABLED || debugOut_HD_ENABLED)
 109:.\Generated_Source\PSoC4/debugOut.c **** 
 110:.\Generated_Source\PSoC4/debugOut.c ****         #if (debugOut_RX_INTERRUPT_ENABLED)
 111:.\Generated_Source\PSoC4/debugOut.c ****             /* Set RX interrupt vector and priority */
 112:.\Generated_Source\PSoC4/debugOut.c ****             (void) CyIntSetVector(debugOut_RX_VECT_NUM, &debugOut_RXISR);
 113:.\Generated_Source\PSoC4/debugOut.c ****             CyIntSetPriority(debugOut_RX_VECT_NUM, debugOut_RX_PRIOR_NUM);
 114:.\Generated_Source\PSoC4/debugOut.c ****             debugOut_errorStatus = 0u;
 115:.\Generated_Source\PSoC4/debugOut.c ****         #endif /* (debugOut_RX_INTERRUPT_ENABLED) */
 116:.\Generated_Source\PSoC4/debugOut.c **** 
 117:.\Generated_Source\PSoC4/debugOut.c ****         #if (debugOut_RXHW_ADDRESS_ENABLED)
 118:.\Generated_Source\PSoC4/debugOut.c ****             debugOut_SetRxAddressMode(debugOut_RX_ADDRESS_MODE);
 119:.\Generated_Source\PSoC4/debugOut.c ****             debugOut_SetRxAddress1(debugOut_RX_HW_ADDRESS1);
 120:.\Generated_Source\PSoC4/debugOut.c ****             debugOut_SetRxAddress2(debugOut_RX_HW_ADDRESS2);
 121:.\Generated_Source\PSoC4/debugOut.c ****         #endif /* End debugOut_RXHW_ADDRESS_ENABLED */
 122:.\Generated_Source\PSoC4/debugOut.c **** 
 123:.\Generated_Source\PSoC4/debugOut.c ****         /* Init Count7 period */
 124:.\Generated_Source\PSoC4/debugOut.c ****         debugOut_RXBITCTR_PERIOD_REG = debugOut_RXBITCTR_INIT;
 125:.\Generated_Source\PSoC4/debugOut.c ****         /* Configure the Initial RX interrupt mask */
 126:.\Generated_Source\PSoC4/debugOut.c ****         debugOut_RXSTATUS_MASK_REG  = debugOut_INIT_RX_INTERRUPTS_MASK;
 127:.\Generated_Source\PSoC4/debugOut.c ****     #endif /* End debugOut_RX_ENABLED || debugOut_HD_ENABLED*/
 128:.\Generated_Source\PSoC4/debugOut.c **** 
 129:.\Generated_Source\PSoC4/debugOut.c ****     #if(debugOut_TX_ENABLED)
 130:.\Generated_Source\PSoC4/debugOut.c ****         #if (debugOut_TX_INTERRUPT_ENABLED)
 131:.\Generated_Source\PSoC4/debugOut.c ****             /* Set TX interrupt vector and priority */
 132:.\Generated_Source\PSoC4/debugOut.c ****             (void) CyIntSetVector(debugOut_TX_VECT_NUM, &debugOut_TXISR);
 133:.\Generated_Source\PSoC4/debugOut.c ****             CyIntSetPriority(debugOut_TX_VECT_NUM, debugOut_TX_PRIOR_NUM);
 134:.\Generated_Source\PSoC4/debugOut.c ****         #endif /* (debugOut_TX_INTERRUPT_ENABLED) */
 135:.\Generated_Source\PSoC4/debugOut.c **** 
 136:.\Generated_Source\PSoC4/debugOut.c ****         /* Write Counter Value for TX Bit Clk Generator*/
 137:.\Generated_Source\PSoC4/debugOut.c ****         #if (debugOut_TXCLKGEN_DP)
 138:.\Generated_Source\PSoC4/debugOut.c ****             debugOut_TXBITCLKGEN_CTR_REG = debugOut_BIT_CENTER;
  81              		.loc 1 138 0
  82 0004 054B     		ldr	r3, .L6
  83 0006 0622     		mov	r2, #6
  84 0008 1A70     		strb	r2, [r3]
 139:.\Generated_Source\PSoC4/debugOut.c ****             debugOut_TXBITCLKTX_COMPLETE_REG = ((debugOut_NUMBER_OF_DATA_BITS +
  85              		.loc 1 139 0
  86 000a 054B     		ldr	r3, .L6+4
  87 000c 4722     		mov	r2, #71
  88 000e 1A70     		strb	r2, [r3]
 140:.\Generated_Source\PSoC4/debugOut.c ****                         debugOut_NUMBER_OF_START_BIT) * debugOut_OVER_SAMPLE_COUNT) - 1u;
ARM GAS  C:\Users\Jeppe\AppData\Local\Temp\ccAuc0tw.s 			page 5


 141:.\Generated_Source\PSoC4/debugOut.c ****         #else
 142:.\Generated_Source\PSoC4/debugOut.c ****             debugOut_TXBITCTR_PERIOD_REG = ((debugOut_NUMBER_OF_DATA_BITS +
 143:.\Generated_Source\PSoC4/debugOut.c ****                         debugOut_NUMBER_OF_START_BIT) * debugOut_OVER_SAMPLE_8) - 1u;
 144:.\Generated_Source\PSoC4/debugOut.c ****         #endif /* End debugOut_TXCLKGEN_DP */
 145:.\Generated_Source\PSoC4/debugOut.c **** 
 146:.\Generated_Source\PSoC4/debugOut.c ****         /* Configure the Initial TX interrupt mask */
 147:.\Generated_Source\PSoC4/debugOut.c ****         #if (debugOut_TX_INTERRUPT_ENABLED)
 148:.\Generated_Source\PSoC4/debugOut.c ****             debugOut_TXSTATUS_MASK_REG = debugOut_TX_STS_FIFO_EMPTY;
 149:.\Generated_Source\PSoC4/debugOut.c ****         #else
 150:.\Generated_Source\PSoC4/debugOut.c ****             debugOut_TXSTATUS_MASK_REG = debugOut_INIT_TX_INTERRUPTS_MASK;
  89              		.loc 1 150 0
  90 0010 044B     		ldr	r3, .L6+8
  91 0012 0022     		mov	r2, #0
  92 0014 1A70     		strb	r2, [r3]
 151:.\Generated_Source\PSoC4/debugOut.c ****         #endif /*End debugOut_TX_INTERRUPT_ENABLED*/
 152:.\Generated_Source\PSoC4/debugOut.c **** 
 153:.\Generated_Source\PSoC4/debugOut.c ****     #endif /* End debugOut_TX_ENABLED */
 154:.\Generated_Source\PSoC4/debugOut.c **** 
 155:.\Generated_Source\PSoC4/debugOut.c ****     #if(debugOut_PARITY_TYPE_SW)  /* Write Parity to Control Register */
 156:.\Generated_Source\PSoC4/debugOut.c ****         debugOut_WriteControlRegister( \
 157:.\Generated_Source\PSoC4/debugOut.c ****             (debugOut_ReadControlRegister() & (uint8)~debugOut_CTRL_PARITY_TYPE_MASK) | \
 158:.\Generated_Source\PSoC4/debugOut.c ****             (uint8)(debugOut_PARITY_TYPE << debugOut_CTRL_PARITY_TYPE0_SHIFT) );
 159:.\Generated_Source\PSoC4/debugOut.c ****     #endif /* End debugOut_PARITY_TYPE_SW */
 160:.\Generated_Source\PSoC4/debugOut.c **** }
  93              		.loc 1 160 0
  94 0016 BD46     		mov	sp, r7
  95              		@ sp needed
  96 0018 80BD     		pop	{r7, pc}
  97              	.L7:
  98 001a C046     		.align	2
  99              	.L6:
 100 001c 21000F40 		.word	1074724897
 101 0020 31000F40 		.word	1074724913
 102 0024 82000F40 		.word	1074724994
 103              		.cfi_endproc
 104              	.LFE1:
 105              		.size	debugOut_Init, .-debugOut_Init
 106              		.section	.text.debugOut_Enable,"ax",%progbits
 107              		.align	2
 108              		.global	debugOut_Enable
 109              		.code	16
 110              		.thumb_func
 111              		.type	debugOut_Enable, %function
 112              	debugOut_Enable:
 113              	.LFB2:
 161:.\Generated_Source\PSoC4/debugOut.c **** 
 162:.\Generated_Source\PSoC4/debugOut.c **** 
 163:.\Generated_Source\PSoC4/debugOut.c **** /*******************************************************************************
 164:.\Generated_Source\PSoC4/debugOut.c **** * Function Name: debugOut_Enable
 165:.\Generated_Source\PSoC4/debugOut.c **** ********************************************************************************
 166:.\Generated_Source\PSoC4/debugOut.c **** *
 167:.\Generated_Source\PSoC4/debugOut.c **** * Summary:
 168:.\Generated_Source\PSoC4/debugOut.c **** *  Activates the hardware and begins component operation. It is not necessary
 169:.\Generated_Source\PSoC4/debugOut.c **** *  to call debugOut_Enable() because the debugOut_Start() API
 170:.\Generated_Source\PSoC4/debugOut.c **** *  calls this function, which is the preferred method to begin component
 171:.\Generated_Source\PSoC4/debugOut.c **** *  operation.
 172:.\Generated_Source\PSoC4/debugOut.c **** 
ARM GAS  C:\Users\Jeppe\AppData\Local\Temp\ccAuc0tw.s 			page 6


 173:.\Generated_Source\PSoC4/debugOut.c **** * Parameters:
 174:.\Generated_Source\PSoC4/debugOut.c **** *  None.
 175:.\Generated_Source\PSoC4/debugOut.c **** *
 176:.\Generated_Source\PSoC4/debugOut.c **** * Return:
 177:.\Generated_Source\PSoC4/debugOut.c **** *  None.
 178:.\Generated_Source\PSoC4/debugOut.c **** *
 179:.\Generated_Source\PSoC4/debugOut.c **** * Global Variables:
 180:.\Generated_Source\PSoC4/debugOut.c **** *  debugOut_rxAddressDetected - set to initial state (0).
 181:.\Generated_Source\PSoC4/debugOut.c **** *
 182:.\Generated_Source\PSoC4/debugOut.c **** *******************************************************************************/
 183:.\Generated_Source\PSoC4/debugOut.c **** void debugOut_Enable(void) 
 184:.\Generated_Source\PSoC4/debugOut.c **** {
 114              		.loc 1 184 0
 115              		.cfi_startproc
 116 0000 90B5     		push	{r4, r7, lr}
 117              		.cfi_def_cfa_offset 12
 118              		.cfi_offset 4, -12
 119              		.cfi_offset 7, -8
 120              		.cfi_offset 14, -4
 121 0002 83B0     		sub	sp, sp, #12
 122              		.cfi_def_cfa_offset 24
 123 0004 00AF     		add	r7, sp, #0
 124              		.cfi_def_cfa_register 7
 185:.\Generated_Source\PSoC4/debugOut.c ****     uint8 enableInterrupts;
 186:.\Generated_Source\PSoC4/debugOut.c ****     enableInterrupts = CyEnterCriticalSection();
 125              		.loc 1 186 0
 126 0006 FC1D     		add	r4, r7, #7
 127 0008 FFF7FEFF 		bl	CyEnterCriticalSection
 128 000c 031C     		mov	r3, r0
 129 000e 2370     		strb	r3, [r4]
 187:.\Generated_Source\PSoC4/debugOut.c **** 
 188:.\Generated_Source\PSoC4/debugOut.c ****     #if (debugOut_RX_ENABLED || debugOut_HD_ENABLED)
 189:.\Generated_Source\PSoC4/debugOut.c ****         /* RX Counter (Count7) Enable */
 190:.\Generated_Source\PSoC4/debugOut.c ****         debugOut_RXBITCTR_CONTROL_REG |= debugOut_CNTR_ENABLE;
 191:.\Generated_Source\PSoC4/debugOut.c **** 
 192:.\Generated_Source\PSoC4/debugOut.c ****         /* Enable the RX Interrupt */
 193:.\Generated_Source\PSoC4/debugOut.c ****         debugOut_RXSTATUS_ACTL_REG  |= debugOut_INT_ENABLE;
 194:.\Generated_Source\PSoC4/debugOut.c **** 
 195:.\Generated_Source\PSoC4/debugOut.c ****         #if (debugOut_RX_INTERRUPT_ENABLED)
 196:.\Generated_Source\PSoC4/debugOut.c ****             debugOut_EnableRxInt();
 197:.\Generated_Source\PSoC4/debugOut.c **** 
 198:.\Generated_Source\PSoC4/debugOut.c ****             #if (debugOut_RXHW_ADDRESS_ENABLED)
 199:.\Generated_Source\PSoC4/debugOut.c ****                 debugOut_rxAddressDetected = 0u;
 200:.\Generated_Source\PSoC4/debugOut.c ****             #endif /* (debugOut_RXHW_ADDRESS_ENABLED) */
 201:.\Generated_Source\PSoC4/debugOut.c ****         #endif /* (debugOut_RX_INTERRUPT_ENABLED) */
 202:.\Generated_Source\PSoC4/debugOut.c ****     #endif /* (debugOut_RX_ENABLED || debugOut_HD_ENABLED) */
 203:.\Generated_Source\PSoC4/debugOut.c **** 
 204:.\Generated_Source\PSoC4/debugOut.c ****     #if(debugOut_TX_ENABLED)
 205:.\Generated_Source\PSoC4/debugOut.c ****         /* TX Counter (DP/Count7) Enable */
 206:.\Generated_Source\PSoC4/debugOut.c ****         #if(!debugOut_TXCLKGEN_DP)
 207:.\Generated_Source\PSoC4/debugOut.c ****             debugOut_TXBITCTR_CONTROL_REG |= debugOut_CNTR_ENABLE;
 208:.\Generated_Source\PSoC4/debugOut.c ****         #endif /* End debugOut_TXCLKGEN_DP */
 209:.\Generated_Source\PSoC4/debugOut.c **** 
 210:.\Generated_Source\PSoC4/debugOut.c ****         /* Enable the TX Interrupt */
 211:.\Generated_Source\PSoC4/debugOut.c ****         debugOut_TXSTATUS_ACTL_REG |= debugOut_INT_ENABLE;
 130              		.loc 1 211 0
 131 0010 084B     		ldr	r3, .L9
ARM GAS  C:\Users\Jeppe\AppData\Local\Temp\ccAuc0tw.s 			page 7


 132 0012 084A     		ldr	r2, .L9
 133 0014 1278     		ldrb	r2, [r2]
 134 0016 D2B2     		uxtb	r2, r2
 135 0018 1021     		mov	r1, #16
 136 001a 0A43     		orr	r2, r1
 137 001c D2B2     		uxtb	r2, r2
 138 001e 1A70     		strb	r2, [r3]
 212:.\Generated_Source\PSoC4/debugOut.c ****         #if (debugOut_TX_INTERRUPT_ENABLED)
 213:.\Generated_Source\PSoC4/debugOut.c ****             debugOut_ClearPendingTxInt(); /* Clear history of TX_NOT_EMPTY */
 214:.\Generated_Source\PSoC4/debugOut.c ****             debugOut_EnableTxInt();
 215:.\Generated_Source\PSoC4/debugOut.c ****         #endif /* (debugOut_TX_INTERRUPT_ENABLED) */
 216:.\Generated_Source\PSoC4/debugOut.c ****      #endif /* (debugOut_TX_INTERRUPT_ENABLED) */
 217:.\Generated_Source\PSoC4/debugOut.c **** 
 218:.\Generated_Source\PSoC4/debugOut.c ****     #if (debugOut_INTERNAL_CLOCK_USED)
 219:.\Generated_Source\PSoC4/debugOut.c ****         debugOut_IntClock_Start();  /* Enable the clock */
 139              		.loc 1 219 0
 140 0020 FFF7FEFF 		bl	debugOut_IntClock_Start
 220:.\Generated_Source\PSoC4/debugOut.c ****     #endif /* (debugOut_INTERNAL_CLOCK_USED) */
 221:.\Generated_Source\PSoC4/debugOut.c **** 
 222:.\Generated_Source\PSoC4/debugOut.c ****     CyExitCriticalSection(enableInterrupts);
 141              		.loc 1 222 0
 142 0024 FB1D     		add	r3, r7, #7
 143 0026 1B78     		ldrb	r3, [r3]
 144 0028 181C     		mov	r0, r3
 145 002a FFF7FEFF 		bl	CyExitCriticalSection
 223:.\Generated_Source\PSoC4/debugOut.c **** }
 146              		.loc 1 223 0
 147 002e BD46     		mov	sp, r7
 148 0030 03B0     		add	sp, sp, #12
 149              		@ sp needed
 150 0032 90BD     		pop	{r4, r7, pc}
 151              	.L10:
 152              		.align	2
 153              	.L9:
 154 0034 92000F40 		.word	1074725010
 155              		.cfi_endproc
 156              	.LFE2:
 157              		.size	debugOut_Enable, .-debugOut_Enable
 158              		.section	.text.debugOut_Stop,"ax",%progbits
 159              		.align	2
 160              		.global	debugOut_Stop
 161              		.code	16
 162              		.thumb_func
 163              		.type	debugOut_Stop, %function
 164              	debugOut_Stop:
 165              	.LFB3:
 224:.\Generated_Source\PSoC4/debugOut.c **** 
 225:.\Generated_Source\PSoC4/debugOut.c **** 
 226:.\Generated_Source\PSoC4/debugOut.c **** /*******************************************************************************
 227:.\Generated_Source\PSoC4/debugOut.c **** * Function Name: debugOut_Stop
 228:.\Generated_Source\PSoC4/debugOut.c **** ********************************************************************************
 229:.\Generated_Source\PSoC4/debugOut.c **** *
 230:.\Generated_Source\PSoC4/debugOut.c **** * Summary:
 231:.\Generated_Source\PSoC4/debugOut.c **** *  Disables the UART operation.
 232:.\Generated_Source\PSoC4/debugOut.c **** *
 233:.\Generated_Source\PSoC4/debugOut.c **** * Parameters:
 234:.\Generated_Source\PSoC4/debugOut.c **** *  None.
ARM GAS  C:\Users\Jeppe\AppData\Local\Temp\ccAuc0tw.s 			page 8


 235:.\Generated_Source\PSoC4/debugOut.c **** *
 236:.\Generated_Source\PSoC4/debugOut.c **** * Return:
 237:.\Generated_Source\PSoC4/debugOut.c **** *  None.
 238:.\Generated_Source\PSoC4/debugOut.c **** *
 239:.\Generated_Source\PSoC4/debugOut.c **** *******************************************************************************/
 240:.\Generated_Source\PSoC4/debugOut.c **** void debugOut_Stop(void) 
 241:.\Generated_Source\PSoC4/debugOut.c **** {
 166              		.loc 1 241 0
 167              		.cfi_startproc
 168 0000 90B5     		push	{r4, r7, lr}
 169              		.cfi_def_cfa_offset 12
 170              		.cfi_offset 4, -12
 171              		.cfi_offset 7, -8
 172              		.cfi_offset 14, -4
 173 0002 83B0     		sub	sp, sp, #12
 174              		.cfi_def_cfa_offset 24
 175 0004 00AF     		add	r7, sp, #0
 176              		.cfi_def_cfa_register 7
 242:.\Generated_Source\PSoC4/debugOut.c ****     uint8 enableInterrupts;
 243:.\Generated_Source\PSoC4/debugOut.c ****     enableInterrupts = CyEnterCriticalSection();
 177              		.loc 1 243 0
 178 0006 FC1D     		add	r4, r7, #7
 179 0008 FFF7FEFF 		bl	CyEnterCriticalSection
 180 000c 031C     		mov	r3, r0
 181 000e 2370     		strb	r3, [r4]
 244:.\Generated_Source\PSoC4/debugOut.c **** 
 245:.\Generated_Source\PSoC4/debugOut.c ****     /* Write Bit Counter Disable */
 246:.\Generated_Source\PSoC4/debugOut.c ****     #if (debugOut_RX_ENABLED || debugOut_HD_ENABLED)
 247:.\Generated_Source\PSoC4/debugOut.c ****         debugOut_RXBITCTR_CONTROL_REG &= (uint8) ~debugOut_CNTR_ENABLE;
 248:.\Generated_Source\PSoC4/debugOut.c ****     #endif /* (debugOut_RX_ENABLED || debugOut_HD_ENABLED) */
 249:.\Generated_Source\PSoC4/debugOut.c **** 
 250:.\Generated_Source\PSoC4/debugOut.c ****     #if (debugOut_TX_ENABLED)
 251:.\Generated_Source\PSoC4/debugOut.c ****         #if(!debugOut_TXCLKGEN_DP)
 252:.\Generated_Source\PSoC4/debugOut.c ****             debugOut_TXBITCTR_CONTROL_REG &= (uint8) ~debugOut_CNTR_ENABLE;
 253:.\Generated_Source\PSoC4/debugOut.c ****         #endif /* (!debugOut_TXCLKGEN_DP) */
 254:.\Generated_Source\PSoC4/debugOut.c ****     #endif /* (debugOut_TX_ENABLED) */
 255:.\Generated_Source\PSoC4/debugOut.c **** 
 256:.\Generated_Source\PSoC4/debugOut.c ****     #if (debugOut_INTERNAL_CLOCK_USED)
 257:.\Generated_Source\PSoC4/debugOut.c ****         debugOut_IntClock_Stop();   /* Disable the clock */
 182              		.loc 1 257 0
 183 0010 FFF7FEFF 		bl	debugOut_IntClock_Stop
 258:.\Generated_Source\PSoC4/debugOut.c ****     #endif /* (debugOut_INTERNAL_CLOCK_USED) */
 259:.\Generated_Source\PSoC4/debugOut.c **** 
 260:.\Generated_Source\PSoC4/debugOut.c ****     /* Disable internal interrupt component */
 261:.\Generated_Source\PSoC4/debugOut.c ****     #if (debugOut_RX_ENABLED || debugOut_HD_ENABLED)
 262:.\Generated_Source\PSoC4/debugOut.c ****         debugOut_RXSTATUS_ACTL_REG  &= (uint8) ~debugOut_INT_ENABLE;
 263:.\Generated_Source\PSoC4/debugOut.c **** 
 264:.\Generated_Source\PSoC4/debugOut.c ****         #if (debugOut_RX_INTERRUPT_ENABLED)
 265:.\Generated_Source\PSoC4/debugOut.c ****             debugOut_DisableRxInt();
 266:.\Generated_Source\PSoC4/debugOut.c ****         #endif /* (debugOut_RX_INTERRUPT_ENABLED) */
 267:.\Generated_Source\PSoC4/debugOut.c ****     #endif /* (debugOut_RX_ENABLED || debugOut_HD_ENABLED) */
 268:.\Generated_Source\PSoC4/debugOut.c **** 
 269:.\Generated_Source\PSoC4/debugOut.c ****     #if (debugOut_TX_ENABLED)
 270:.\Generated_Source\PSoC4/debugOut.c ****         debugOut_TXSTATUS_ACTL_REG &= (uint8) ~debugOut_INT_ENABLE;
 184              		.loc 1 270 0
 185 0014 074B     		ldr	r3, .L12
 186 0016 074A     		ldr	r2, .L12
ARM GAS  C:\Users\Jeppe\AppData\Local\Temp\ccAuc0tw.s 			page 9


 187 0018 1278     		ldrb	r2, [r2]
 188 001a D2B2     		uxtb	r2, r2
 189 001c 1021     		mov	r1, #16
 190 001e 8A43     		bic	r2, r1
 191 0020 D2B2     		uxtb	r2, r2
 192 0022 1A70     		strb	r2, [r3]
 271:.\Generated_Source\PSoC4/debugOut.c **** 
 272:.\Generated_Source\PSoC4/debugOut.c ****         #if (debugOut_TX_INTERRUPT_ENABLED)
 273:.\Generated_Source\PSoC4/debugOut.c ****             debugOut_DisableTxInt();
 274:.\Generated_Source\PSoC4/debugOut.c ****         #endif /* (debugOut_TX_INTERRUPT_ENABLED) */
 275:.\Generated_Source\PSoC4/debugOut.c ****     #endif /* (debugOut_TX_ENABLED) */
 276:.\Generated_Source\PSoC4/debugOut.c **** 
 277:.\Generated_Source\PSoC4/debugOut.c ****     CyExitCriticalSection(enableInterrupts);
 193              		.loc 1 277 0
 194 0024 FB1D     		add	r3, r7, #7
 195 0026 1B78     		ldrb	r3, [r3]
 196 0028 181C     		mov	r0, r3
 197 002a FFF7FEFF 		bl	CyExitCriticalSection
 278:.\Generated_Source\PSoC4/debugOut.c **** }
 198              		.loc 1 278 0
 199 002e BD46     		mov	sp, r7
 200 0030 03B0     		add	sp, sp, #12
 201              		@ sp needed
 202 0032 90BD     		pop	{r4, r7, pc}
 203              	.L13:
 204              		.align	2
 205              	.L12:
 206 0034 92000F40 		.word	1074725010
 207              		.cfi_endproc
 208              	.LFE3:
 209              		.size	debugOut_Stop, .-debugOut_Stop
 210              		.section	.text.debugOut_ReadControlRegister,"ax",%progbits
 211              		.align	2
 212              		.global	debugOut_ReadControlRegister
 213              		.code	16
 214              		.thumb_func
 215              		.type	debugOut_ReadControlRegister, %function
 216              	debugOut_ReadControlRegister:
 217              	.LFB4:
 279:.\Generated_Source\PSoC4/debugOut.c **** 
 280:.\Generated_Source\PSoC4/debugOut.c **** 
 281:.\Generated_Source\PSoC4/debugOut.c **** /*******************************************************************************
 282:.\Generated_Source\PSoC4/debugOut.c **** * Function Name: debugOut_ReadControlRegister
 283:.\Generated_Source\PSoC4/debugOut.c **** ********************************************************************************
 284:.\Generated_Source\PSoC4/debugOut.c **** *
 285:.\Generated_Source\PSoC4/debugOut.c **** * Summary:
 286:.\Generated_Source\PSoC4/debugOut.c **** *  Returns the current value of the control register.
 287:.\Generated_Source\PSoC4/debugOut.c **** *
 288:.\Generated_Source\PSoC4/debugOut.c **** * Parameters:
 289:.\Generated_Source\PSoC4/debugOut.c **** *  None.
 290:.\Generated_Source\PSoC4/debugOut.c **** *
 291:.\Generated_Source\PSoC4/debugOut.c **** * Return:
 292:.\Generated_Source\PSoC4/debugOut.c **** *  Contents of the control register.
 293:.\Generated_Source\PSoC4/debugOut.c **** *
 294:.\Generated_Source\PSoC4/debugOut.c **** *******************************************************************************/
 295:.\Generated_Source\PSoC4/debugOut.c **** uint8 debugOut_ReadControlRegister(void) 
 296:.\Generated_Source\PSoC4/debugOut.c **** {
ARM GAS  C:\Users\Jeppe\AppData\Local\Temp\ccAuc0tw.s 			page 10


 218              		.loc 1 296 0
 219              		.cfi_startproc
 220 0000 80B5     		push	{r7, lr}
 221              		.cfi_def_cfa_offset 8
 222              		.cfi_offset 7, -8
 223              		.cfi_offset 14, -4
 224 0002 00AF     		add	r7, sp, #0
 225              		.cfi_def_cfa_register 7
 297:.\Generated_Source\PSoC4/debugOut.c ****     #if (debugOut_CONTROL_REG_REMOVED)
 298:.\Generated_Source\PSoC4/debugOut.c ****         return(0u);
 226              		.loc 1 298 0
 227 0004 0023     		mov	r3, #0
 299:.\Generated_Source\PSoC4/debugOut.c ****     #else
 300:.\Generated_Source\PSoC4/debugOut.c ****         return(debugOut_CONTROL_REG);
 301:.\Generated_Source\PSoC4/debugOut.c ****     #endif /* (debugOut_CONTROL_REG_REMOVED) */
 302:.\Generated_Source\PSoC4/debugOut.c **** }
 228              		.loc 1 302 0
 229 0006 181C     		mov	r0, r3
 230 0008 BD46     		mov	sp, r7
 231              		@ sp needed
 232 000a 80BD     		pop	{r7, pc}
 233              		.cfi_endproc
 234              	.LFE4:
 235              		.size	debugOut_ReadControlRegister, .-debugOut_ReadControlRegister
 236              		.section	.text.debugOut_WriteControlRegister,"ax",%progbits
 237              		.align	2
 238              		.global	debugOut_WriteControlRegister
 239              		.code	16
 240              		.thumb_func
 241              		.type	debugOut_WriteControlRegister, %function
 242              	debugOut_WriteControlRegister:
 243              	.LFB5:
 303:.\Generated_Source\PSoC4/debugOut.c **** 
 304:.\Generated_Source\PSoC4/debugOut.c **** 
 305:.\Generated_Source\PSoC4/debugOut.c **** /*******************************************************************************
 306:.\Generated_Source\PSoC4/debugOut.c **** * Function Name: debugOut_WriteControlRegister
 307:.\Generated_Source\PSoC4/debugOut.c **** ********************************************************************************
 308:.\Generated_Source\PSoC4/debugOut.c **** *
 309:.\Generated_Source\PSoC4/debugOut.c **** * Summary:
 310:.\Generated_Source\PSoC4/debugOut.c **** *  Writes an 8-bit value into the control register
 311:.\Generated_Source\PSoC4/debugOut.c **** *
 312:.\Generated_Source\PSoC4/debugOut.c **** * Parameters:
 313:.\Generated_Source\PSoC4/debugOut.c **** *  control:  control register value
 314:.\Generated_Source\PSoC4/debugOut.c **** *
 315:.\Generated_Source\PSoC4/debugOut.c **** * Return:
 316:.\Generated_Source\PSoC4/debugOut.c **** *  None.
 317:.\Generated_Source\PSoC4/debugOut.c **** *
 318:.\Generated_Source\PSoC4/debugOut.c **** *******************************************************************************/
 319:.\Generated_Source\PSoC4/debugOut.c **** void  debugOut_WriteControlRegister(uint8 control) 
 320:.\Generated_Source\PSoC4/debugOut.c **** {
 244              		.loc 1 320 0
 245              		.cfi_startproc
 246 0000 80B5     		push	{r7, lr}
 247              		.cfi_def_cfa_offset 8
 248              		.cfi_offset 7, -8
 249              		.cfi_offset 14, -4
 250 0002 82B0     		sub	sp, sp, #8
ARM GAS  C:\Users\Jeppe\AppData\Local\Temp\ccAuc0tw.s 			page 11


 251              		.cfi_def_cfa_offset 16
 252 0004 00AF     		add	r7, sp, #0
 253              		.cfi_def_cfa_register 7
 254 0006 021C     		mov	r2, r0
 255 0008 FB1D     		add	r3, r7, #7
 256 000a 1A70     		strb	r2, [r3]
 321:.\Generated_Source\PSoC4/debugOut.c ****     #if (debugOut_CONTROL_REG_REMOVED)
 322:.\Generated_Source\PSoC4/debugOut.c ****         if(0u != control)
 323:.\Generated_Source\PSoC4/debugOut.c ****         {
 324:.\Generated_Source\PSoC4/debugOut.c ****             /* Suppress compiler warning */
 325:.\Generated_Source\PSoC4/debugOut.c ****         }
 326:.\Generated_Source\PSoC4/debugOut.c ****     #else
 327:.\Generated_Source\PSoC4/debugOut.c ****        debugOut_CONTROL_REG = control;
 328:.\Generated_Source\PSoC4/debugOut.c ****     #endif /* (debugOut_CONTROL_REG_REMOVED) */
 329:.\Generated_Source\PSoC4/debugOut.c **** }
 257              		.loc 1 329 0
 258 000c BD46     		mov	sp, r7
 259 000e 02B0     		add	sp, sp, #8
 260              		@ sp needed
 261 0010 80BD     		pop	{r7, pc}
 262              		.cfi_endproc
 263              	.LFE5:
 264              		.size	debugOut_WriteControlRegister, .-debugOut_WriteControlRegister
 265 0012 C046     		.section	.text.debugOut_SetTxInterruptMode,"ax",%progbits
 266              		.align	2
 267              		.global	debugOut_SetTxInterruptMode
 268              		.code	16
 269              		.thumb_func
 270              		.type	debugOut_SetTxInterruptMode, %function
 271              	debugOut_SetTxInterruptMode:
 272              	.LFB6:
 330:.\Generated_Source\PSoC4/debugOut.c **** 
 331:.\Generated_Source\PSoC4/debugOut.c **** 
 332:.\Generated_Source\PSoC4/debugOut.c **** #if(debugOut_RX_ENABLED || debugOut_HD_ENABLED)
 333:.\Generated_Source\PSoC4/debugOut.c ****     /*******************************************************************************
 334:.\Generated_Source\PSoC4/debugOut.c ****     * Function Name: debugOut_SetRxInterruptMode
 335:.\Generated_Source\PSoC4/debugOut.c ****     ********************************************************************************
 336:.\Generated_Source\PSoC4/debugOut.c ****     *
 337:.\Generated_Source\PSoC4/debugOut.c ****     * Summary:
 338:.\Generated_Source\PSoC4/debugOut.c ****     *  Configures the RX interrupt sources enabled.
 339:.\Generated_Source\PSoC4/debugOut.c ****     *
 340:.\Generated_Source\PSoC4/debugOut.c ****     * Parameters:
 341:.\Generated_Source\PSoC4/debugOut.c ****     *  IntSrc:  Bit field containing the RX interrupts to enable. Based on the 
 342:.\Generated_Source\PSoC4/debugOut.c ****     *  bit-field arrangement of the status register. This value must be a 
 343:.\Generated_Source\PSoC4/debugOut.c ****     *  combination of status register bit-masks shown below:
 344:.\Generated_Source\PSoC4/debugOut.c ****     *      debugOut_RX_STS_FIFO_NOTEMPTY    Interrupt on byte received.
 345:.\Generated_Source\PSoC4/debugOut.c ****     *      debugOut_RX_STS_PAR_ERROR        Interrupt on parity error.
 346:.\Generated_Source\PSoC4/debugOut.c ****     *      debugOut_RX_STS_STOP_ERROR       Interrupt on stop error.
 347:.\Generated_Source\PSoC4/debugOut.c ****     *      debugOut_RX_STS_BREAK            Interrupt on break.
 348:.\Generated_Source\PSoC4/debugOut.c ****     *      debugOut_RX_STS_OVERRUN          Interrupt on overrun error.
 349:.\Generated_Source\PSoC4/debugOut.c ****     *      debugOut_RX_STS_ADDR_MATCH       Interrupt on address match.
 350:.\Generated_Source\PSoC4/debugOut.c ****     *      debugOut_RX_STS_MRKSPC           Interrupt on address detect.
 351:.\Generated_Source\PSoC4/debugOut.c ****     *
 352:.\Generated_Source\PSoC4/debugOut.c ****     * Return:
 353:.\Generated_Source\PSoC4/debugOut.c ****     *  None.
 354:.\Generated_Source\PSoC4/debugOut.c ****     *
 355:.\Generated_Source\PSoC4/debugOut.c ****     * Theory:
ARM GAS  C:\Users\Jeppe\AppData\Local\Temp\ccAuc0tw.s 			page 12


 356:.\Generated_Source\PSoC4/debugOut.c ****     *  Enables the output of specific status bits to the interrupt controller
 357:.\Generated_Source\PSoC4/debugOut.c ****     *
 358:.\Generated_Source\PSoC4/debugOut.c ****     *******************************************************************************/
 359:.\Generated_Source\PSoC4/debugOut.c ****     void debugOut_SetRxInterruptMode(uint8 intSrc) 
 360:.\Generated_Source\PSoC4/debugOut.c ****     {
 361:.\Generated_Source\PSoC4/debugOut.c ****         debugOut_RXSTATUS_MASK_REG  = intSrc;
 362:.\Generated_Source\PSoC4/debugOut.c ****     }
 363:.\Generated_Source\PSoC4/debugOut.c **** 
 364:.\Generated_Source\PSoC4/debugOut.c **** 
 365:.\Generated_Source\PSoC4/debugOut.c ****     /*******************************************************************************
 366:.\Generated_Source\PSoC4/debugOut.c ****     * Function Name: debugOut_ReadRxData
 367:.\Generated_Source\PSoC4/debugOut.c ****     ********************************************************************************
 368:.\Generated_Source\PSoC4/debugOut.c ****     *
 369:.\Generated_Source\PSoC4/debugOut.c ****     * Summary:
 370:.\Generated_Source\PSoC4/debugOut.c ****     *  Returns the next byte of received data. This function returns data without
 371:.\Generated_Source\PSoC4/debugOut.c ****     *  checking the status. You must check the status separately.
 372:.\Generated_Source\PSoC4/debugOut.c ****     *
 373:.\Generated_Source\PSoC4/debugOut.c ****     * Parameters:
 374:.\Generated_Source\PSoC4/debugOut.c ****     *  None.
 375:.\Generated_Source\PSoC4/debugOut.c ****     *
 376:.\Generated_Source\PSoC4/debugOut.c ****     * Return:
 377:.\Generated_Source\PSoC4/debugOut.c ****     *  Received data from RX register
 378:.\Generated_Source\PSoC4/debugOut.c ****     *
 379:.\Generated_Source\PSoC4/debugOut.c ****     * Global Variables:
 380:.\Generated_Source\PSoC4/debugOut.c ****     *  debugOut_rxBuffer - RAM buffer pointer for save received data.
 381:.\Generated_Source\PSoC4/debugOut.c ****     *  debugOut_rxBufferWrite - cyclic index for write to rxBuffer,
 382:.\Generated_Source\PSoC4/debugOut.c ****     *     checked to identify new data.
 383:.\Generated_Source\PSoC4/debugOut.c ****     *  debugOut_rxBufferRead - cyclic index for read from rxBuffer,
 384:.\Generated_Source\PSoC4/debugOut.c ****     *     incremented after each byte has been read from buffer.
 385:.\Generated_Source\PSoC4/debugOut.c ****     *  debugOut_rxBufferLoopDetect - cleared if loop condition was detected
 386:.\Generated_Source\PSoC4/debugOut.c ****     *     in RX ISR.
 387:.\Generated_Source\PSoC4/debugOut.c ****     *
 388:.\Generated_Source\PSoC4/debugOut.c ****     * Reentrant:
 389:.\Generated_Source\PSoC4/debugOut.c ****     *  No.
 390:.\Generated_Source\PSoC4/debugOut.c ****     *
 391:.\Generated_Source\PSoC4/debugOut.c ****     *******************************************************************************/
 392:.\Generated_Source\PSoC4/debugOut.c ****     uint8 debugOut_ReadRxData(void) 
 393:.\Generated_Source\PSoC4/debugOut.c ****     {
 394:.\Generated_Source\PSoC4/debugOut.c ****         uint8 rxData;
 395:.\Generated_Source\PSoC4/debugOut.c **** 
 396:.\Generated_Source\PSoC4/debugOut.c ****     #if (debugOut_RX_INTERRUPT_ENABLED)
 397:.\Generated_Source\PSoC4/debugOut.c **** 
 398:.\Generated_Source\PSoC4/debugOut.c ****         uint8 locRxBufferRead;
 399:.\Generated_Source\PSoC4/debugOut.c ****         uint8 locRxBufferWrite;
 400:.\Generated_Source\PSoC4/debugOut.c **** 
 401:.\Generated_Source\PSoC4/debugOut.c ****         /* Protect variables that could change on interrupt */
 402:.\Generated_Source\PSoC4/debugOut.c ****         debugOut_DisableRxInt();
 403:.\Generated_Source\PSoC4/debugOut.c **** 
 404:.\Generated_Source\PSoC4/debugOut.c ****         locRxBufferRead  = debugOut_rxBufferRead;
 405:.\Generated_Source\PSoC4/debugOut.c ****         locRxBufferWrite = debugOut_rxBufferWrite;
 406:.\Generated_Source\PSoC4/debugOut.c **** 
 407:.\Generated_Source\PSoC4/debugOut.c ****         if( (debugOut_rxBufferLoopDetect != 0u) || (locRxBufferRead != locRxBufferWrite) )
 408:.\Generated_Source\PSoC4/debugOut.c ****         {
 409:.\Generated_Source\PSoC4/debugOut.c ****             rxData = debugOut_rxBuffer[locRxBufferRead];
 410:.\Generated_Source\PSoC4/debugOut.c ****             locRxBufferRead++;
 411:.\Generated_Source\PSoC4/debugOut.c **** 
 412:.\Generated_Source\PSoC4/debugOut.c ****             if(locRxBufferRead >= debugOut_RX_BUFFER_SIZE)
ARM GAS  C:\Users\Jeppe\AppData\Local\Temp\ccAuc0tw.s 			page 13


 413:.\Generated_Source\PSoC4/debugOut.c ****             {
 414:.\Generated_Source\PSoC4/debugOut.c ****                 locRxBufferRead = 0u;
 415:.\Generated_Source\PSoC4/debugOut.c ****             }
 416:.\Generated_Source\PSoC4/debugOut.c ****             /* Update the real pointer */
 417:.\Generated_Source\PSoC4/debugOut.c ****             debugOut_rxBufferRead = locRxBufferRead;
 418:.\Generated_Source\PSoC4/debugOut.c **** 
 419:.\Generated_Source\PSoC4/debugOut.c ****             if(debugOut_rxBufferLoopDetect != 0u)
 420:.\Generated_Source\PSoC4/debugOut.c ****             {
 421:.\Generated_Source\PSoC4/debugOut.c ****                 debugOut_rxBufferLoopDetect = 0u;
 422:.\Generated_Source\PSoC4/debugOut.c ****                 #if ((debugOut_RX_INTERRUPT_ENABLED) && (debugOut_FLOW_CONTROL != 0u))
 423:.\Generated_Source\PSoC4/debugOut.c ****                     /* When Hardware Flow Control selected - return RX mask */
 424:.\Generated_Source\PSoC4/debugOut.c ****                     #if( debugOut_HD_ENABLED )
 425:.\Generated_Source\PSoC4/debugOut.c ****                         if((debugOut_CONTROL_REG & debugOut_CTRL_HD_SEND) == 0u)
 426:.\Generated_Source\PSoC4/debugOut.c ****                         {   /* In Half duplex mode return RX mask only in RX
 427:.\Generated_Source\PSoC4/debugOut.c ****                             *  configuration set, otherwise
 428:.\Generated_Source\PSoC4/debugOut.c ****                             *  mask will be returned in LoadRxConfig() API.
 429:.\Generated_Source\PSoC4/debugOut.c ****                             */
 430:.\Generated_Source\PSoC4/debugOut.c ****                             debugOut_RXSTATUS_MASK_REG  |= debugOut_RX_STS_FIFO_NOTEMPTY;
 431:.\Generated_Source\PSoC4/debugOut.c ****                         }
 432:.\Generated_Source\PSoC4/debugOut.c ****                     #else
 433:.\Generated_Source\PSoC4/debugOut.c ****                         debugOut_RXSTATUS_MASK_REG  |= debugOut_RX_STS_FIFO_NOTEMPTY;
 434:.\Generated_Source\PSoC4/debugOut.c ****                     #endif /* end debugOut_HD_ENABLED */
 435:.\Generated_Source\PSoC4/debugOut.c ****                 #endif /* ((debugOut_RX_INTERRUPT_ENABLED) && (debugOut_FLOW_CONTROL != 0u)) */
 436:.\Generated_Source\PSoC4/debugOut.c ****             }
 437:.\Generated_Source\PSoC4/debugOut.c ****         }
 438:.\Generated_Source\PSoC4/debugOut.c ****         else
 439:.\Generated_Source\PSoC4/debugOut.c ****         {   /* Needs to check status for RX_STS_FIFO_NOTEMPTY bit */
 440:.\Generated_Source\PSoC4/debugOut.c ****             rxData = debugOut_RXDATA_REG;
 441:.\Generated_Source\PSoC4/debugOut.c ****         }
 442:.\Generated_Source\PSoC4/debugOut.c **** 
 443:.\Generated_Source\PSoC4/debugOut.c ****         debugOut_EnableRxInt();
 444:.\Generated_Source\PSoC4/debugOut.c **** 
 445:.\Generated_Source\PSoC4/debugOut.c ****     #else
 446:.\Generated_Source\PSoC4/debugOut.c **** 
 447:.\Generated_Source\PSoC4/debugOut.c ****         /* Needs to check status for RX_STS_FIFO_NOTEMPTY bit */
 448:.\Generated_Source\PSoC4/debugOut.c ****         rxData = debugOut_RXDATA_REG;
 449:.\Generated_Source\PSoC4/debugOut.c **** 
 450:.\Generated_Source\PSoC4/debugOut.c ****     #endif /* (debugOut_RX_INTERRUPT_ENABLED) */
 451:.\Generated_Source\PSoC4/debugOut.c **** 
 452:.\Generated_Source\PSoC4/debugOut.c ****         return(rxData);
 453:.\Generated_Source\PSoC4/debugOut.c ****     }
 454:.\Generated_Source\PSoC4/debugOut.c **** 
 455:.\Generated_Source\PSoC4/debugOut.c **** 
 456:.\Generated_Source\PSoC4/debugOut.c ****     /*******************************************************************************
 457:.\Generated_Source\PSoC4/debugOut.c ****     * Function Name: debugOut_ReadRxStatus
 458:.\Generated_Source\PSoC4/debugOut.c ****     ********************************************************************************
 459:.\Generated_Source\PSoC4/debugOut.c ****     *
 460:.\Generated_Source\PSoC4/debugOut.c ****     * Summary:
 461:.\Generated_Source\PSoC4/debugOut.c ****     *  Returns the current state of the receiver status register and the software
 462:.\Generated_Source\PSoC4/debugOut.c ****     *  buffer overflow status.
 463:.\Generated_Source\PSoC4/debugOut.c ****     *
 464:.\Generated_Source\PSoC4/debugOut.c ****     * Parameters:
 465:.\Generated_Source\PSoC4/debugOut.c ****     *  None.
 466:.\Generated_Source\PSoC4/debugOut.c ****     *
 467:.\Generated_Source\PSoC4/debugOut.c ****     * Return:
 468:.\Generated_Source\PSoC4/debugOut.c ****     *  Current state of the status register.
 469:.\Generated_Source\PSoC4/debugOut.c ****     *
ARM GAS  C:\Users\Jeppe\AppData\Local\Temp\ccAuc0tw.s 			page 14


 470:.\Generated_Source\PSoC4/debugOut.c ****     * Side Effect:
 471:.\Generated_Source\PSoC4/debugOut.c ****     *  All status register bits are clear-on-read except
 472:.\Generated_Source\PSoC4/debugOut.c ****     *  debugOut_RX_STS_FIFO_NOTEMPTY.
 473:.\Generated_Source\PSoC4/debugOut.c ****     *  debugOut_RX_STS_FIFO_NOTEMPTY clears immediately after RX data
 474:.\Generated_Source\PSoC4/debugOut.c ****     *  register read.
 475:.\Generated_Source\PSoC4/debugOut.c ****     *
 476:.\Generated_Source\PSoC4/debugOut.c ****     * Global Variables:
 477:.\Generated_Source\PSoC4/debugOut.c ****     *  debugOut_rxBufferOverflow - used to indicate overload condition.
 478:.\Generated_Source\PSoC4/debugOut.c ****     *   It set to one in RX interrupt when there isn't free space in
 479:.\Generated_Source\PSoC4/debugOut.c ****     *   debugOut_rxBufferRead to write new data. This condition returned
 480:.\Generated_Source\PSoC4/debugOut.c ****     *   and cleared to zero by this API as an
 481:.\Generated_Source\PSoC4/debugOut.c ****     *   debugOut_RX_STS_SOFT_BUFF_OVER bit along with RX Status register
 482:.\Generated_Source\PSoC4/debugOut.c ****     *   bits.
 483:.\Generated_Source\PSoC4/debugOut.c ****     *
 484:.\Generated_Source\PSoC4/debugOut.c ****     *******************************************************************************/
 485:.\Generated_Source\PSoC4/debugOut.c ****     uint8 debugOut_ReadRxStatus(void) 
 486:.\Generated_Source\PSoC4/debugOut.c ****     {
 487:.\Generated_Source\PSoC4/debugOut.c ****         uint8 status;
 488:.\Generated_Source\PSoC4/debugOut.c **** 
 489:.\Generated_Source\PSoC4/debugOut.c ****         status = debugOut_RXSTATUS_REG & debugOut_RX_HW_MASK;
 490:.\Generated_Source\PSoC4/debugOut.c **** 
 491:.\Generated_Source\PSoC4/debugOut.c ****     #if (debugOut_RX_INTERRUPT_ENABLED)
 492:.\Generated_Source\PSoC4/debugOut.c ****         if(debugOut_rxBufferOverflow != 0u)
 493:.\Generated_Source\PSoC4/debugOut.c ****         {
 494:.\Generated_Source\PSoC4/debugOut.c ****             status |= debugOut_RX_STS_SOFT_BUFF_OVER;
 495:.\Generated_Source\PSoC4/debugOut.c ****             debugOut_rxBufferOverflow = 0u;
 496:.\Generated_Source\PSoC4/debugOut.c ****         }
 497:.\Generated_Source\PSoC4/debugOut.c ****     #endif /* (debugOut_RX_INTERRUPT_ENABLED) */
 498:.\Generated_Source\PSoC4/debugOut.c **** 
 499:.\Generated_Source\PSoC4/debugOut.c ****         return(status);
 500:.\Generated_Source\PSoC4/debugOut.c ****     }
 501:.\Generated_Source\PSoC4/debugOut.c **** 
 502:.\Generated_Source\PSoC4/debugOut.c **** 
 503:.\Generated_Source\PSoC4/debugOut.c ****     /*******************************************************************************
 504:.\Generated_Source\PSoC4/debugOut.c ****     * Function Name: debugOut_GetChar
 505:.\Generated_Source\PSoC4/debugOut.c ****     ********************************************************************************
 506:.\Generated_Source\PSoC4/debugOut.c ****     *
 507:.\Generated_Source\PSoC4/debugOut.c ****     * Summary:
 508:.\Generated_Source\PSoC4/debugOut.c ****     *  Returns the last received byte of data. debugOut_GetChar() is
 509:.\Generated_Source\PSoC4/debugOut.c ****     *  designed for ASCII characters and returns a uint8 where 1 to 255 are values
 510:.\Generated_Source\PSoC4/debugOut.c ****     *  for valid characters and 0 indicates an error occurred or no data is present.
 511:.\Generated_Source\PSoC4/debugOut.c ****     *
 512:.\Generated_Source\PSoC4/debugOut.c ****     * Parameters:
 513:.\Generated_Source\PSoC4/debugOut.c ****     *  None.
 514:.\Generated_Source\PSoC4/debugOut.c ****     *
 515:.\Generated_Source\PSoC4/debugOut.c ****     * Return:
 516:.\Generated_Source\PSoC4/debugOut.c ****     *  Character read from UART RX buffer. ASCII characters from 1 to 255 are valid.
 517:.\Generated_Source\PSoC4/debugOut.c ****     *  A returned zero signifies an error condition or no data available.
 518:.\Generated_Source\PSoC4/debugOut.c ****     *
 519:.\Generated_Source\PSoC4/debugOut.c ****     * Global Variables:
 520:.\Generated_Source\PSoC4/debugOut.c ****     *  debugOut_rxBuffer - RAM buffer pointer for save received data.
 521:.\Generated_Source\PSoC4/debugOut.c ****     *  debugOut_rxBufferWrite - cyclic index for write to rxBuffer,
 522:.\Generated_Source\PSoC4/debugOut.c ****     *     checked to identify new data.
 523:.\Generated_Source\PSoC4/debugOut.c ****     *  debugOut_rxBufferRead - cyclic index for read from rxBuffer,
 524:.\Generated_Source\PSoC4/debugOut.c ****     *     incremented after each byte has been read from buffer.
 525:.\Generated_Source\PSoC4/debugOut.c ****     *  debugOut_rxBufferLoopDetect - cleared if loop condition was detected
 526:.\Generated_Source\PSoC4/debugOut.c ****     *     in RX ISR.
ARM GAS  C:\Users\Jeppe\AppData\Local\Temp\ccAuc0tw.s 			page 15


 527:.\Generated_Source\PSoC4/debugOut.c ****     *
 528:.\Generated_Source\PSoC4/debugOut.c ****     * Reentrant:
 529:.\Generated_Source\PSoC4/debugOut.c ****     *  No.
 530:.\Generated_Source\PSoC4/debugOut.c ****     *
 531:.\Generated_Source\PSoC4/debugOut.c ****     *******************************************************************************/
 532:.\Generated_Source\PSoC4/debugOut.c ****     uint8 debugOut_GetChar(void) 
 533:.\Generated_Source\PSoC4/debugOut.c ****     {
 534:.\Generated_Source\PSoC4/debugOut.c ****         uint8 rxData = 0u;
 535:.\Generated_Source\PSoC4/debugOut.c ****         uint8 rxStatus;
 536:.\Generated_Source\PSoC4/debugOut.c **** 
 537:.\Generated_Source\PSoC4/debugOut.c ****     #if (debugOut_RX_INTERRUPT_ENABLED)
 538:.\Generated_Source\PSoC4/debugOut.c ****         uint8 locRxBufferRead;
 539:.\Generated_Source\PSoC4/debugOut.c ****         uint8 locRxBufferWrite;
 540:.\Generated_Source\PSoC4/debugOut.c **** 
 541:.\Generated_Source\PSoC4/debugOut.c ****         /* Protect variables that could change on interrupt */
 542:.\Generated_Source\PSoC4/debugOut.c ****         debugOut_DisableRxInt();
 543:.\Generated_Source\PSoC4/debugOut.c **** 
 544:.\Generated_Source\PSoC4/debugOut.c ****         locRxBufferRead  = debugOut_rxBufferRead;
 545:.\Generated_Source\PSoC4/debugOut.c ****         locRxBufferWrite = debugOut_rxBufferWrite;
 546:.\Generated_Source\PSoC4/debugOut.c **** 
 547:.\Generated_Source\PSoC4/debugOut.c ****         if( (debugOut_rxBufferLoopDetect != 0u) || (locRxBufferRead != locRxBufferWrite) )
 548:.\Generated_Source\PSoC4/debugOut.c ****         {
 549:.\Generated_Source\PSoC4/debugOut.c ****             rxData = debugOut_rxBuffer[locRxBufferRead];
 550:.\Generated_Source\PSoC4/debugOut.c ****             locRxBufferRead++;
 551:.\Generated_Source\PSoC4/debugOut.c ****             if(locRxBufferRead >= debugOut_RX_BUFFER_SIZE)
 552:.\Generated_Source\PSoC4/debugOut.c ****             {
 553:.\Generated_Source\PSoC4/debugOut.c ****                 locRxBufferRead = 0u;
 554:.\Generated_Source\PSoC4/debugOut.c ****             }
 555:.\Generated_Source\PSoC4/debugOut.c ****             /* Update the real pointer */
 556:.\Generated_Source\PSoC4/debugOut.c ****             debugOut_rxBufferRead = locRxBufferRead;
 557:.\Generated_Source\PSoC4/debugOut.c **** 
 558:.\Generated_Source\PSoC4/debugOut.c ****             if(debugOut_rxBufferLoopDetect != 0u)
 559:.\Generated_Source\PSoC4/debugOut.c ****             {
 560:.\Generated_Source\PSoC4/debugOut.c ****                 debugOut_rxBufferLoopDetect = 0u;
 561:.\Generated_Source\PSoC4/debugOut.c ****                 #if( (debugOut_RX_INTERRUPT_ENABLED) && (debugOut_FLOW_CONTROL != 0u) )
 562:.\Generated_Source\PSoC4/debugOut.c ****                     /* When Hardware Flow Control selected - return RX mask */
 563:.\Generated_Source\PSoC4/debugOut.c ****                     #if( debugOut_HD_ENABLED )
 564:.\Generated_Source\PSoC4/debugOut.c ****                         if((debugOut_CONTROL_REG & debugOut_CTRL_HD_SEND) == 0u)
 565:.\Generated_Source\PSoC4/debugOut.c ****                         {   /* In Half duplex mode return RX mask only if
 566:.\Generated_Source\PSoC4/debugOut.c ****                             *  RX configuration set, otherwise
 567:.\Generated_Source\PSoC4/debugOut.c ****                             *  mask will be returned in LoadRxConfig() API.
 568:.\Generated_Source\PSoC4/debugOut.c ****                             */
 569:.\Generated_Source\PSoC4/debugOut.c ****                             debugOut_RXSTATUS_MASK_REG |= debugOut_RX_STS_FIFO_NOTEMPTY;
 570:.\Generated_Source\PSoC4/debugOut.c ****                         }
 571:.\Generated_Source\PSoC4/debugOut.c ****                     #else
 572:.\Generated_Source\PSoC4/debugOut.c ****                         debugOut_RXSTATUS_MASK_REG |= debugOut_RX_STS_FIFO_NOTEMPTY;
 573:.\Generated_Source\PSoC4/debugOut.c ****                     #endif /* end debugOut_HD_ENABLED */
 574:.\Generated_Source\PSoC4/debugOut.c ****                 #endif /* debugOut_RX_INTERRUPT_ENABLED and Hardware flow control*/
 575:.\Generated_Source\PSoC4/debugOut.c ****             }
 576:.\Generated_Source\PSoC4/debugOut.c **** 
 577:.\Generated_Source\PSoC4/debugOut.c ****         }
 578:.\Generated_Source\PSoC4/debugOut.c ****         else
 579:.\Generated_Source\PSoC4/debugOut.c ****         {   rxStatus = debugOut_RXSTATUS_REG;
 580:.\Generated_Source\PSoC4/debugOut.c ****             if((rxStatus & debugOut_RX_STS_FIFO_NOTEMPTY) != 0u)
 581:.\Generated_Source\PSoC4/debugOut.c ****             {   /* Read received data from FIFO */
 582:.\Generated_Source\PSoC4/debugOut.c ****                 rxData = debugOut_RXDATA_REG;
 583:.\Generated_Source\PSoC4/debugOut.c ****                 /*Check status on error*/
ARM GAS  C:\Users\Jeppe\AppData\Local\Temp\ccAuc0tw.s 			page 16


 584:.\Generated_Source\PSoC4/debugOut.c ****                 if((rxStatus & (debugOut_RX_STS_BREAK | debugOut_RX_STS_PAR_ERROR |
 585:.\Generated_Source\PSoC4/debugOut.c ****                                 debugOut_RX_STS_STOP_ERROR | debugOut_RX_STS_OVERRUN)) != 0u)
 586:.\Generated_Source\PSoC4/debugOut.c ****                 {
 587:.\Generated_Source\PSoC4/debugOut.c ****                     rxData = 0u;
 588:.\Generated_Source\PSoC4/debugOut.c ****                 }
 589:.\Generated_Source\PSoC4/debugOut.c ****             }
 590:.\Generated_Source\PSoC4/debugOut.c ****         }
 591:.\Generated_Source\PSoC4/debugOut.c **** 
 592:.\Generated_Source\PSoC4/debugOut.c ****         debugOut_EnableRxInt();
 593:.\Generated_Source\PSoC4/debugOut.c **** 
 594:.\Generated_Source\PSoC4/debugOut.c ****     #else
 595:.\Generated_Source\PSoC4/debugOut.c **** 
 596:.\Generated_Source\PSoC4/debugOut.c ****         rxStatus =debugOut_RXSTATUS_REG;
 597:.\Generated_Source\PSoC4/debugOut.c ****         if((rxStatus & debugOut_RX_STS_FIFO_NOTEMPTY) != 0u)
 598:.\Generated_Source\PSoC4/debugOut.c ****         {
 599:.\Generated_Source\PSoC4/debugOut.c ****             /* Read received data from FIFO */
 600:.\Generated_Source\PSoC4/debugOut.c ****             rxData = debugOut_RXDATA_REG;
 601:.\Generated_Source\PSoC4/debugOut.c **** 
 602:.\Generated_Source\PSoC4/debugOut.c ****             /*Check status on error*/
 603:.\Generated_Source\PSoC4/debugOut.c ****             if((rxStatus & (debugOut_RX_STS_BREAK | debugOut_RX_STS_PAR_ERROR |
 604:.\Generated_Source\PSoC4/debugOut.c ****                             debugOut_RX_STS_STOP_ERROR | debugOut_RX_STS_OVERRUN)) != 0u)
 605:.\Generated_Source\PSoC4/debugOut.c ****             {
 606:.\Generated_Source\PSoC4/debugOut.c ****                 rxData = 0u;
 607:.\Generated_Source\PSoC4/debugOut.c ****             }
 608:.\Generated_Source\PSoC4/debugOut.c ****         }
 609:.\Generated_Source\PSoC4/debugOut.c ****     #endif /* (debugOut_RX_INTERRUPT_ENABLED) */
 610:.\Generated_Source\PSoC4/debugOut.c **** 
 611:.\Generated_Source\PSoC4/debugOut.c ****         return(rxData);
 612:.\Generated_Source\PSoC4/debugOut.c ****     }
 613:.\Generated_Source\PSoC4/debugOut.c **** 
 614:.\Generated_Source\PSoC4/debugOut.c **** 
 615:.\Generated_Source\PSoC4/debugOut.c ****     /*******************************************************************************
 616:.\Generated_Source\PSoC4/debugOut.c ****     * Function Name: debugOut_GetByte
 617:.\Generated_Source\PSoC4/debugOut.c ****     ********************************************************************************
 618:.\Generated_Source\PSoC4/debugOut.c ****     *
 619:.\Generated_Source\PSoC4/debugOut.c ****     * Summary:
 620:.\Generated_Source\PSoC4/debugOut.c ****     *  Reads UART RX buffer immediately, returns received character and error
 621:.\Generated_Source\PSoC4/debugOut.c ****     *  condition.
 622:.\Generated_Source\PSoC4/debugOut.c ****     *
 623:.\Generated_Source\PSoC4/debugOut.c ****     * Parameters:
 624:.\Generated_Source\PSoC4/debugOut.c ****     *  None.
 625:.\Generated_Source\PSoC4/debugOut.c ****     *
 626:.\Generated_Source\PSoC4/debugOut.c ****     * Return:
 627:.\Generated_Source\PSoC4/debugOut.c ****     *  MSB contains status and LSB contains UART RX data. If the MSB is nonzero,
 628:.\Generated_Source\PSoC4/debugOut.c ****     *  an error has occurred.
 629:.\Generated_Source\PSoC4/debugOut.c ****     *
 630:.\Generated_Source\PSoC4/debugOut.c ****     * Reentrant:
 631:.\Generated_Source\PSoC4/debugOut.c ****     *  No.
 632:.\Generated_Source\PSoC4/debugOut.c ****     *
 633:.\Generated_Source\PSoC4/debugOut.c ****     *******************************************************************************/
 634:.\Generated_Source\PSoC4/debugOut.c ****     uint16 debugOut_GetByte(void) 
 635:.\Generated_Source\PSoC4/debugOut.c ****     {
 636:.\Generated_Source\PSoC4/debugOut.c ****         
 637:.\Generated_Source\PSoC4/debugOut.c ****     #if (debugOut_RX_INTERRUPT_ENABLED)
 638:.\Generated_Source\PSoC4/debugOut.c ****         uint16 locErrorStatus;
 639:.\Generated_Source\PSoC4/debugOut.c ****         /* Protect variables that could change on interrupt */
 640:.\Generated_Source\PSoC4/debugOut.c ****         debugOut_DisableRxInt();
ARM GAS  C:\Users\Jeppe\AppData\Local\Temp\ccAuc0tw.s 			page 17


 641:.\Generated_Source\PSoC4/debugOut.c ****         locErrorStatus = (uint16)debugOut_errorStatus;
 642:.\Generated_Source\PSoC4/debugOut.c ****         debugOut_errorStatus = 0u;
 643:.\Generated_Source\PSoC4/debugOut.c ****         debugOut_EnableRxInt();
 644:.\Generated_Source\PSoC4/debugOut.c ****         return ( (uint16)(locErrorStatus << 8u) | debugOut_ReadRxData() );
 645:.\Generated_Source\PSoC4/debugOut.c ****     #else
 646:.\Generated_Source\PSoC4/debugOut.c ****         return ( ((uint16)debugOut_ReadRxStatus() << 8u) | debugOut_ReadRxData() );
 647:.\Generated_Source\PSoC4/debugOut.c ****     #endif /* debugOut_RX_INTERRUPT_ENABLED */
 648:.\Generated_Source\PSoC4/debugOut.c ****         
 649:.\Generated_Source\PSoC4/debugOut.c ****     }
 650:.\Generated_Source\PSoC4/debugOut.c **** 
 651:.\Generated_Source\PSoC4/debugOut.c **** 
 652:.\Generated_Source\PSoC4/debugOut.c ****     /*******************************************************************************
 653:.\Generated_Source\PSoC4/debugOut.c ****     * Function Name: debugOut_GetRxBufferSize
 654:.\Generated_Source\PSoC4/debugOut.c ****     ********************************************************************************
 655:.\Generated_Source\PSoC4/debugOut.c ****     *
 656:.\Generated_Source\PSoC4/debugOut.c ****     * Summary:
 657:.\Generated_Source\PSoC4/debugOut.c ****     *  Returns the number of received bytes available in the RX buffer.
 658:.\Generated_Source\PSoC4/debugOut.c ****     *  * RX software buffer is disabled (RX Buffer Size parameter is equal to 4): 
 659:.\Generated_Source\PSoC4/debugOut.c ****     *    returns 0 for empty RX FIFO or 1 for not empty RX FIFO.
 660:.\Generated_Source\PSoC4/debugOut.c ****     *  * RX software buffer is enabled: returns the number of bytes available in 
 661:.\Generated_Source\PSoC4/debugOut.c ****     *    the RX software buffer. Bytes available in the RX FIFO do not take to 
 662:.\Generated_Source\PSoC4/debugOut.c ****     *    account.
 663:.\Generated_Source\PSoC4/debugOut.c ****     *
 664:.\Generated_Source\PSoC4/debugOut.c ****     * Parameters:
 665:.\Generated_Source\PSoC4/debugOut.c ****     *  None.
 666:.\Generated_Source\PSoC4/debugOut.c ****     *
 667:.\Generated_Source\PSoC4/debugOut.c ****     * Return:
 668:.\Generated_Source\PSoC4/debugOut.c ****     *  uint8: Number of bytes in the RX buffer. 
 669:.\Generated_Source\PSoC4/debugOut.c ****     *    Return value type depends on RX Buffer Size parameter.
 670:.\Generated_Source\PSoC4/debugOut.c ****     *
 671:.\Generated_Source\PSoC4/debugOut.c ****     * Global Variables:
 672:.\Generated_Source\PSoC4/debugOut.c ****     *  debugOut_rxBufferWrite - used to calculate left bytes.
 673:.\Generated_Source\PSoC4/debugOut.c ****     *  debugOut_rxBufferRead - used to calculate left bytes.
 674:.\Generated_Source\PSoC4/debugOut.c ****     *  debugOut_rxBufferLoopDetect - checked to decide left bytes amount.
 675:.\Generated_Source\PSoC4/debugOut.c ****     *
 676:.\Generated_Source\PSoC4/debugOut.c ****     * Reentrant:
 677:.\Generated_Source\PSoC4/debugOut.c ****     *  No.
 678:.\Generated_Source\PSoC4/debugOut.c ****     *
 679:.\Generated_Source\PSoC4/debugOut.c ****     * Theory:
 680:.\Generated_Source\PSoC4/debugOut.c ****     *  Allows the user to find out how full the RX Buffer is.
 681:.\Generated_Source\PSoC4/debugOut.c ****     *
 682:.\Generated_Source\PSoC4/debugOut.c ****     *******************************************************************************/
 683:.\Generated_Source\PSoC4/debugOut.c ****     uint8 debugOut_GetRxBufferSize(void)
 684:.\Generated_Source\PSoC4/debugOut.c ****                                                             
 685:.\Generated_Source\PSoC4/debugOut.c ****     {
 686:.\Generated_Source\PSoC4/debugOut.c ****         uint8 size;
 687:.\Generated_Source\PSoC4/debugOut.c **** 
 688:.\Generated_Source\PSoC4/debugOut.c ****     #if (debugOut_RX_INTERRUPT_ENABLED)
 689:.\Generated_Source\PSoC4/debugOut.c **** 
 690:.\Generated_Source\PSoC4/debugOut.c ****         /* Protect variables that could change on interrupt */
 691:.\Generated_Source\PSoC4/debugOut.c ****         debugOut_DisableRxInt();
 692:.\Generated_Source\PSoC4/debugOut.c **** 
 693:.\Generated_Source\PSoC4/debugOut.c ****         if(debugOut_rxBufferRead == debugOut_rxBufferWrite)
 694:.\Generated_Source\PSoC4/debugOut.c ****         {
 695:.\Generated_Source\PSoC4/debugOut.c ****             if(debugOut_rxBufferLoopDetect != 0u)
 696:.\Generated_Source\PSoC4/debugOut.c ****             {
 697:.\Generated_Source\PSoC4/debugOut.c ****                 size = debugOut_RX_BUFFER_SIZE;
ARM GAS  C:\Users\Jeppe\AppData\Local\Temp\ccAuc0tw.s 			page 18


 698:.\Generated_Source\PSoC4/debugOut.c ****             }
 699:.\Generated_Source\PSoC4/debugOut.c ****             else
 700:.\Generated_Source\PSoC4/debugOut.c ****             {
 701:.\Generated_Source\PSoC4/debugOut.c ****                 size = 0u;
 702:.\Generated_Source\PSoC4/debugOut.c ****             }
 703:.\Generated_Source\PSoC4/debugOut.c ****         }
 704:.\Generated_Source\PSoC4/debugOut.c ****         else if(debugOut_rxBufferRead < debugOut_rxBufferWrite)
 705:.\Generated_Source\PSoC4/debugOut.c ****         {
 706:.\Generated_Source\PSoC4/debugOut.c ****             size = (debugOut_rxBufferWrite - debugOut_rxBufferRead);
 707:.\Generated_Source\PSoC4/debugOut.c ****         }
 708:.\Generated_Source\PSoC4/debugOut.c ****         else
 709:.\Generated_Source\PSoC4/debugOut.c ****         {
 710:.\Generated_Source\PSoC4/debugOut.c ****             size = (debugOut_RX_BUFFER_SIZE - debugOut_rxBufferRead) + debugOut_rxBufferWrite;
 711:.\Generated_Source\PSoC4/debugOut.c ****         }
 712:.\Generated_Source\PSoC4/debugOut.c **** 
 713:.\Generated_Source\PSoC4/debugOut.c ****         debugOut_EnableRxInt();
 714:.\Generated_Source\PSoC4/debugOut.c **** 
 715:.\Generated_Source\PSoC4/debugOut.c ****     #else
 716:.\Generated_Source\PSoC4/debugOut.c **** 
 717:.\Generated_Source\PSoC4/debugOut.c ****         /* We can only know if there is data in the fifo. */
 718:.\Generated_Source\PSoC4/debugOut.c ****         size = ((debugOut_RXSTATUS_REG & debugOut_RX_STS_FIFO_NOTEMPTY) != 0u) ? 1u : 0u;
 719:.\Generated_Source\PSoC4/debugOut.c **** 
 720:.\Generated_Source\PSoC4/debugOut.c ****     #endif /* (debugOut_RX_INTERRUPT_ENABLED) */
 721:.\Generated_Source\PSoC4/debugOut.c **** 
 722:.\Generated_Source\PSoC4/debugOut.c ****         return(size);
 723:.\Generated_Source\PSoC4/debugOut.c ****     }
 724:.\Generated_Source\PSoC4/debugOut.c **** 
 725:.\Generated_Source\PSoC4/debugOut.c **** 
 726:.\Generated_Source\PSoC4/debugOut.c ****     /*******************************************************************************
 727:.\Generated_Source\PSoC4/debugOut.c ****     * Function Name: debugOut_ClearRxBuffer
 728:.\Generated_Source\PSoC4/debugOut.c ****     ********************************************************************************
 729:.\Generated_Source\PSoC4/debugOut.c ****     *
 730:.\Generated_Source\PSoC4/debugOut.c ****     * Summary:
 731:.\Generated_Source\PSoC4/debugOut.c ****     *  Clears the receiver memory buffer and hardware RX FIFO of all received data.
 732:.\Generated_Source\PSoC4/debugOut.c ****     *
 733:.\Generated_Source\PSoC4/debugOut.c ****     * Parameters:
 734:.\Generated_Source\PSoC4/debugOut.c ****     *  None.
 735:.\Generated_Source\PSoC4/debugOut.c ****     *
 736:.\Generated_Source\PSoC4/debugOut.c ****     * Return:
 737:.\Generated_Source\PSoC4/debugOut.c ****     *  None.
 738:.\Generated_Source\PSoC4/debugOut.c ****     *
 739:.\Generated_Source\PSoC4/debugOut.c ****     * Global Variables:
 740:.\Generated_Source\PSoC4/debugOut.c ****     *  debugOut_rxBufferWrite - cleared to zero.
 741:.\Generated_Source\PSoC4/debugOut.c ****     *  debugOut_rxBufferRead - cleared to zero.
 742:.\Generated_Source\PSoC4/debugOut.c ****     *  debugOut_rxBufferLoopDetect - cleared to zero.
 743:.\Generated_Source\PSoC4/debugOut.c ****     *  debugOut_rxBufferOverflow - cleared to zero.
 744:.\Generated_Source\PSoC4/debugOut.c ****     *
 745:.\Generated_Source\PSoC4/debugOut.c ****     * Reentrant:
 746:.\Generated_Source\PSoC4/debugOut.c ****     *  No.
 747:.\Generated_Source\PSoC4/debugOut.c ****     *
 748:.\Generated_Source\PSoC4/debugOut.c ****     * Theory:
 749:.\Generated_Source\PSoC4/debugOut.c ****     *  Setting the pointers to zero makes the system believe there is no data to
 750:.\Generated_Source\PSoC4/debugOut.c ****     *  read and writing will resume at address 0 overwriting any data that may
 751:.\Generated_Source\PSoC4/debugOut.c ****     *  have remained in the RAM.
 752:.\Generated_Source\PSoC4/debugOut.c ****     *
 753:.\Generated_Source\PSoC4/debugOut.c ****     * Side Effects:
 754:.\Generated_Source\PSoC4/debugOut.c ****     *  Any received data not read from the RAM or FIFO buffer will be lost.
ARM GAS  C:\Users\Jeppe\AppData\Local\Temp\ccAuc0tw.s 			page 19


 755:.\Generated_Source\PSoC4/debugOut.c ****     *
 756:.\Generated_Source\PSoC4/debugOut.c ****     *******************************************************************************/
 757:.\Generated_Source\PSoC4/debugOut.c ****     void debugOut_ClearRxBuffer(void) 
 758:.\Generated_Source\PSoC4/debugOut.c ****     {
 759:.\Generated_Source\PSoC4/debugOut.c ****         uint8 enableInterrupts;
 760:.\Generated_Source\PSoC4/debugOut.c **** 
 761:.\Generated_Source\PSoC4/debugOut.c ****         /* Clear the HW FIFO */
 762:.\Generated_Source\PSoC4/debugOut.c ****         enableInterrupts = CyEnterCriticalSection();
 763:.\Generated_Source\PSoC4/debugOut.c ****         debugOut_RXDATA_AUX_CTL_REG |= (uint8)  debugOut_RX_FIFO_CLR;
 764:.\Generated_Source\PSoC4/debugOut.c ****         debugOut_RXDATA_AUX_CTL_REG &= (uint8) ~debugOut_RX_FIFO_CLR;
 765:.\Generated_Source\PSoC4/debugOut.c ****         CyExitCriticalSection(enableInterrupts);
 766:.\Generated_Source\PSoC4/debugOut.c **** 
 767:.\Generated_Source\PSoC4/debugOut.c ****     #if (debugOut_RX_INTERRUPT_ENABLED)
 768:.\Generated_Source\PSoC4/debugOut.c **** 
 769:.\Generated_Source\PSoC4/debugOut.c ****         /* Protect variables that could change on interrupt. */
 770:.\Generated_Source\PSoC4/debugOut.c ****         debugOut_DisableRxInt();
 771:.\Generated_Source\PSoC4/debugOut.c **** 
 772:.\Generated_Source\PSoC4/debugOut.c ****         debugOut_rxBufferRead = 0u;
 773:.\Generated_Source\PSoC4/debugOut.c ****         debugOut_rxBufferWrite = 0u;
 774:.\Generated_Source\PSoC4/debugOut.c ****         debugOut_rxBufferLoopDetect = 0u;
 775:.\Generated_Source\PSoC4/debugOut.c ****         debugOut_rxBufferOverflow = 0u;
 776:.\Generated_Source\PSoC4/debugOut.c **** 
 777:.\Generated_Source\PSoC4/debugOut.c ****         debugOut_EnableRxInt();
 778:.\Generated_Source\PSoC4/debugOut.c **** 
 779:.\Generated_Source\PSoC4/debugOut.c ****     #endif /* (debugOut_RX_INTERRUPT_ENABLED) */
 780:.\Generated_Source\PSoC4/debugOut.c **** 
 781:.\Generated_Source\PSoC4/debugOut.c ****     }
 782:.\Generated_Source\PSoC4/debugOut.c **** 
 783:.\Generated_Source\PSoC4/debugOut.c **** 
 784:.\Generated_Source\PSoC4/debugOut.c ****     /*******************************************************************************
 785:.\Generated_Source\PSoC4/debugOut.c ****     * Function Name: debugOut_SetRxAddressMode
 786:.\Generated_Source\PSoC4/debugOut.c ****     ********************************************************************************
 787:.\Generated_Source\PSoC4/debugOut.c ****     *
 788:.\Generated_Source\PSoC4/debugOut.c ****     * Summary:
 789:.\Generated_Source\PSoC4/debugOut.c ****     *  Sets the software controlled Addressing mode used by the RX portion of the
 790:.\Generated_Source\PSoC4/debugOut.c ****     *  UART.
 791:.\Generated_Source\PSoC4/debugOut.c ****     *
 792:.\Generated_Source\PSoC4/debugOut.c ****     * Parameters:
 793:.\Generated_Source\PSoC4/debugOut.c ****     *  addressMode: Enumerated value indicating the mode of RX addressing
 794:.\Generated_Source\PSoC4/debugOut.c ****     *  debugOut__B_UART__AM_SW_BYTE_BYTE -  Software Byte-by-Byte address
 795:.\Generated_Source\PSoC4/debugOut.c ****     *                                               detection
 796:.\Generated_Source\PSoC4/debugOut.c ****     *  debugOut__B_UART__AM_SW_DETECT_TO_BUFFER - Software Detect to Buffer
 797:.\Generated_Source\PSoC4/debugOut.c ****     *                                               address detection
 798:.\Generated_Source\PSoC4/debugOut.c ****     *  debugOut__B_UART__AM_HW_BYTE_BY_BYTE - Hardware Byte-by-Byte address
 799:.\Generated_Source\PSoC4/debugOut.c ****     *                                               detection
 800:.\Generated_Source\PSoC4/debugOut.c ****     *  debugOut__B_UART__AM_HW_DETECT_TO_BUFFER - Hardware Detect to Buffer
 801:.\Generated_Source\PSoC4/debugOut.c ****     *                                               address detection
 802:.\Generated_Source\PSoC4/debugOut.c ****     *  debugOut__B_UART__AM_NONE - No address detection
 803:.\Generated_Source\PSoC4/debugOut.c ****     *
 804:.\Generated_Source\PSoC4/debugOut.c ****     * Return:
 805:.\Generated_Source\PSoC4/debugOut.c ****     *  None.
 806:.\Generated_Source\PSoC4/debugOut.c ****     *
 807:.\Generated_Source\PSoC4/debugOut.c ****     * Global Variables:
 808:.\Generated_Source\PSoC4/debugOut.c ****     *  debugOut_rxAddressMode - the parameter stored in this variable for
 809:.\Generated_Source\PSoC4/debugOut.c ****     *   the farther usage in RX ISR.
 810:.\Generated_Source\PSoC4/debugOut.c ****     *  debugOut_rxAddressDetected - set to initial state (0).
 811:.\Generated_Source\PSoC4/debugOut.c ****     *
ARM GAS  C:\Users\Jeppe\AppData\Local\Temp\ccAuc0tw.s 			page 20


 812:.\Generated_Source\PSoC4/debugOut.c ****     *******************************************************************************/
 813:.\Generated_Source\PSoC4/debugOut.c ****     void debugOut_SetRxAddressMode(uint8 addressMode)
 814:.\Generated_Source\PSoC4/debugOut.c ****                                                         
 815:.\Generated_Source\PSoC4/debugOut.c ****     {
 816:.\Generated_Source\PSoC4/debugOut.c ****         #if(debugOut_RXHW_ADDRESS_ENABLED)
 817:.\Generated_Source\PSoC4/debugOut.c ****             #if(debugOut_CONTROL_REG_REMOVED)
 818:.\Generated_Source\PSoC4/debugOut.c ****                 if(0u != addressMode)
 819:.\Generated_Source\PSoC4/debugOut.c ****                 {
 820:.\Generated_Source\PSoC4/debugOut.c ****                     /* Suppress compiler warning */
 821:.\Generated_Source\PSoC4/debugOut.c ****                 }
 822:.\Generated_Source\PSoC4/debugOut.c ****             #else /* debugOut_CONTROL_REG_REMOVED */
 823:.\Generated_Source\PSoC4/debugOut.c ****                 uint8 tmpCtrl;
 824:.\Generated_Source\PSoC4/debugOut.c ****                 tmpCtrl = debugOut_CONTROL_REG & (uint8)~debugOut_CTRL_RXADDR_MODE_MASK;
 825:.\Generated_Source\PSoC4/debugOut.c ****                 tmpCtrl |= (uint8)(addressMode << debugOut_CTRL_RXADDR_MODE0_SHIFT);
 826:.\Generated_Source\PSoC4/debugOut.c ****                 debugOut_CONTROL_REG = tmpCtrl;
 827:.\Generated_Source\PSoC4/debugOut.c **** 
 828:.\Generated_Source\PSoC4/debugOut.c ****                 #if(debugOut_RX_INTERRUPT_ENABLED && \
 829:.\Generated_Source\PSoC4/debugOut.c ****                    (debugOut_RXBUFFERSIZE > debugOut_FIFO_LENGTH) )
 830:.\Generated_Source\PSoC4/debugOut.c ****                     debugOut_rxAddressMode = addressMode;
 831:.\Generated_Source\PSoC4/debugOut.c ****                     debugOut_rxAddressDetected = 0u;
 832:.\Generated_Source\PSoC4/debugOut.c ****                 #endif /* End debugOut_RXBUFFERSIZE > debugOut_FIFO_LENGTH*/
 833:.\Generated_Source\PSoC4/debugOut.c ****             #endif /* End debugOut_CONTROL_REG_REMOVED */
 834:.\Generated_Source\PSoC4/debugOut.c ****         #else /* debugOut_RXHW_ADDRESS_ENABLED */
 835:.\Generated_Source\PSoC4/debugOut.c ****             if(0u != addressMode)
 836:.\Generated_Source\PSoC4/debugOut.c ****             {
 837:.\Generated_Source\PSoC4/debugOut.c ****                 /* Suppress compiler warning */
 838:.\Generated_Source\PSoC4/debugOut.c ****             }
 839:.\Generated_Source\PSoC4/debugOut.c ****         #endif /* End debugOut_RXHW_ADDRESS_ENABLED */
 840:.\Generated_Source\PSoC4/debugOut.c ****     }
 841:.\Generated_Source\PSoC4/debugOut.c **** 
 842:.\Generated_Source\PSoC4/debugOut.c **** 
 843:.\Generated_Source\PSoC4/debugOut.c ****     /*******************************************************************************
 844:.\Generated_Source\PSoC4/debugOut.c ****     * Function Name: debugOut_SetRxAddress1
 845:.\Generated_Source\PSoC4/debugOut.c ****     ********************************************************************************
 846:.\Generated_Source\PSoC4/debugOut.c ****     *
 847:.\Generated_Source\PSoC4/debugOut.c ****     * Summary:
 848:.\Generated_Source\PSoC4/debugOut.c ****     *  Sets the first of two hardware-detectable receiver addresses.
 849:.\Generated_Source\PSoC4/debugOut.c ****     *
 850:.\Generated_Source\PSoC4/debugOut.c ****     * Parameters:
 851:.\Generated_Source\PSoC4/debugOut.c ****     *  address: Address #1 for hardware address detection.
 852:.\Generated_Source\PSoC4/debugOut.c ****     *
 853:.\Generated_Source\PSoC4/debugOut.c ****     * Return:
 854:.\Generated_Source\PSoC4/debugOut.c ****     *  None.
 855:.\Generated_Source\PSoC4/debugOut.c ****     *
 856:.\Generated_Source\PSoC4/debugOut.c ****     *******************************************************************************/
 857:.\Generated_Source\PSoC4/debugOut.c ****     void debugOut_SetRxAddress1(uint8 address) 
 858:.\Generated_Source\PSoC4/debugOut.c ****     {
 859:.\Generated_Source\PSoC4/debugOut.c ****         debugOut_RXADDRESS1_REG = address;
 860:.\Generated_Source\PSoC4/debugOut.c ****     }
 861:.\Generated_Source\PSoC4/debugOut.c **** 
 862:.\Generated_Source\PSoC4/debugOut.c **** 
 863:.\Generated_Source\PSoC4/debugOut.c ****     /*******************************************************************************
 864:.\Generated_Source\PSoC4/debugOut.c ****     * Function Name: debugOut_SetRxAddress2
 865:.\Generated_Source\PSoC4/debugOut.c ****     ********************************************************************************
 866:.\Generated_Source\PSoC4/debugOut.c ****     *
 867:.\Generated_Source\PSoC4/debugOut.c ****     * Summary:
 868:.\Generated_Source\PSoC4/debugOut.c ****     *  Sets the second of two hardware-detectable receiver addresses.
ARM GAS  C:\Users\Jeppe\AppData\Local\Temp\ccAuc0tw.s 			page 21


 869:.\Generated_Source\PSoC4/debugOut.c ****     *
 870:.\Generated_Source\PSoC4/debugOut.c ****     * Parameters:
 871:.\Generated_Source\PSoC4/debugOut.c ****     *  address: Address #2 for hardware address detection.
 872:.\Generated_Source\PSoC4/debugOut.c ****     *
 873:.\Generated_Source\PSoC4/debugOut.c ****     * Return:
 874:.\Generated_Source\PSoC4/debugOut.c ****     *  None.
 875:.\Generated_Source\PSoC4/debugOut.c ****     *
 876:.\Generated_Source\PSoC4/debugOut.c ****     *******************************************************************************/
 877:.\Generated_Source\PSoC4/debugOut.c ****     void debugOut_SetRxAddress2(uint8 address) 
 878:.\Generated_Source\PSoC4/debugOut.c ****     {
 879:.\Generated_Source\PSoC4/debugOut.c ****         debugOut_RXADDRESS2_REG = address;
 880:.\Generated_Source\PSoC4/debugOut.c ****     }
 881:.\Generated_Source\PSoC4/debugOut.c **** 
 882:.\Generated_Source\PSoC4/debugOut.c **** #endif  /* debugOut_RX_ENABLED || debugOut_HD_ENABLED*/
 883:.\Generated_Source\PSoC4/debugOut.c **** 
 884:.\Generated_Source\PSoC4/debugOut.c **** 
 885:.\Generated_Source\PSoC4/debugOut.c **** #if( (debugOut_TX_ENABLED) || (debugOut_HD_ENABLED) )
 886:.\Generated_Source\PSoC4/debugOut.c ****     /*******************************************************************************
 887:.\Generated_Source\PSoC4/debugOut.c ****     * Function Name: debugOut_SetTxInterruptMode
 888:.\Generated_Source\PSoC4/debugOut.c ****     ********************************************************************************
 889:.\Generated_Source\PSoC4/debugOut.c ****     *
 890:.\Generated_Source\PSoC4/debugOut.c ****     * Summary:
 891:.\Generated_Source\PSoC4/debugOut.c ****     *  Configures the TX interrupt sources to be enabled, but does not enable the
 892:.\Generated_Source\PSoC4/debugOut.c ****     *  interrupt.
 893:.\Generated_Source\PSoC4/debugOut.c ****     *
 894:.\Generated_Source\PSoC4/debugOut.c ****     * Parameters:
 895:.\Generated_Source\PSoC4/debugOut.c ****     *  intSrc: Bit field containing the TX interrupt sources to enable
 896:.\Generated_Source\PSoC4/debugOut.c ****     *   debugOut_TX_STS_COMPLETE        Interrupt on TX byte complete
 897:.\Generated_Source\PSoC4/debugOut.c ****     *   debugOut_TX_STS_FIFO_EMPTY      Interrupt when TX FIFO is empty
 898:.\Generated_Source\PSoC4/debugOut.c ****     *   debugOut_TX_STS_FIFO_FULL       Interrupt when TX FIFO is full
 899:.\Generated_Source\PSoC4/debugOut.c ****     *   debugOut_TX_STS_FIFO_NOT_FULL   Interrupt when TX FIFO is not full
 900:.\Generated_Source\PSoC4/debugOut.c ****     *
 901:.\Generated_Source\PSoC4/debugOut.c ****     * Return:
 902:.\Generated_Source\PSoC4/debugOut.c ****     *  None.
 903:.\Generated_Source\PSoC4/debugOut.c ****     *
 904:.\Generated_Source\PSoC4/debugOut.c ****     * Theory:
 905:.\Generated_Source\PSoC4/debugOut.c ****     *  Enables the output of specific status bits to the interrupt controller
 906:.\Generated_Source\PSoC4/debugOut.c ****     *
 907:.\Generated_Source\PSoC4/debugOut.c ****     *******************************************************************************/
 908:.\Generated_Source\PSoC4/debugOut.c ****     void debugOut_SetTxInterruptMode(uint8 intSrc) 
 909:.\Generated_Source\PSoC4/debugOut.c ****     {
 273              		.loc 1 909 0
 274              		.cfi_startproc
 275 0000 80B5     		push	{r7, lr}
 276              		.cfi_def_cfa_offset 8
 277              		.cfi_offset 7, -8
 278              		.cfi_offset 14, -4
 279 0002 82B0     		sub	sp, sp, #8
 280              		.cfi_def_cfa_offset 16
 281 0004 00AF     		add	r7, sp, #0
 282              		.cfi_def_cfa_register 7
 283 0006 021C     		mov	r2, r0
 284 0008 FB1D     		add	r3, r7, #7
 285 000a 1A70     		strb	r2, [r3]
 910:.\Generated_Source\PSoC4/debugOut.c ****         debugOut_TXSTATUS_MASK_REG = intSrc;
 286              		.loc 1 910 0
 287 000c 034B     		ldr	r3, .L18
ARM GAS  C:\Users\Jeppe\AppData\Local\Temp\ccAuc0tw.s 			page 22


 288 000e FA1D     		add	r2, r7, #7
 289 0010 1278     		ldrb	r2, [r2]
 290 0012 1A70     		strb	r2, [r3]
 911:.\Generated_Source\PSoC4/debugOut.c ****     }
 291              		.loc 1 911 0
 292 0014 BD46     		mov	sp, r7
 293 0016 02B0     		add	sp, sp, #8
 294              		@ sp needed
 295 0018 80BD     		pop	{r7, pc}
 296              	.L19:
 297 001a C046     		.align	2
 298              	.L18:
 299 001c 82000F40 		.word	1074724994
 300              		.cfi_endproc
 301              	.LFE6:
 302              		.size	debugOut_SetTxInterruptMode, .-debugOut_SetTxInterruptMode
 303              		.section	.text.debugOut_WriteTxData,"ax",%progbits
 304              		.align	2
 305              		.global	debugOut_WriteTxData
 306              		.code	16
 307              		.thumb_func
 308              		.type	debugOut_WriteTxData, %function
 309              	debugOut_WriteTxData:
 310              	.LFB7:
 912:.\Generated_Source\PSoC4/debugOut.c **** 
 913:.\Generated_Source\PSoC4/debugOut.c **** 
 914:.\Generated_Source\PSoC4/debugOut.c ****     /*******************************************************************************
 915:.\Generated_Source\PSoC4/debugOut.c ****     * Function Name: debugOut_WriteTxData
 916:.\Generated_Source\PSoC4/debugOut.c ****     ********************************************************************************
 917:.\Generated_Source\PSoC4/debugOut.c ****     *
 918:.\Generated_Source\PSoC4/debugOut.c ****     * Summary:
 919:.\Generated_Source\PSoC4/debugOut.c ****     *  Places a byte of data into the transmit buffer to be sent when the bus is
 920:.\Generated_Source\PSoC4/debugOut.c ****     *  available without checking the TX status register. You must check status
 921:.\Generated_Source\PSoC4/debugOut.c ****     *  separately.
 922:.\Generated_Source\PSoC4/debugOut.c ****     *
 923:.\Generated_Source\PSoC4/debugOut.c ****     * Parameters:
 924:.\Generated_Source\PSoC4/debugOut.c ****     *  txDataByte: data byte
 925:.\Generated_Source\PSoC4/debugOut.c ****     *
 926:.\Generated_Source\PSoC4/debugOut.c ****     * Return:
 927:.\Generated_Source\PSoC4/debugOut.c ****     * None.
 928:.\Generated_Source\PSoC4/debugOut.c ****     *
 929:.\Generated_Source\PSoC4/debugOut.c ****     * Global Variables:
 930:.\Generated_Source\PSoC4/debugOut.c ****     *  debugOut_txBuffer - RAM buffer pointer for save data for transmission
 931:.\Generated_Source\PSoC4/debugOut.c ****     *  debugOut_txBufferWrite - cyclic index for write to txBuffer,
 932:.\Generated_Source\PSoC4/debugOut.c ****     *    incremented after each byte saved to buffer.
 933:.\Generated_Source\PSoC4/debugOut.c ****     *  debugOut_txBufferRead - cyclic index for read from txBuffer,
 934:.\Generated_Source\PSoC4/debugOut.c ****     *    checked to identify the condition to write to FIFO directly or to TX buffer
 935:.\Generated_Source\PSoC4/debugOut.c ****     *  debugOut_initVar - checked to identify that the component has been
 936:.\Generated_Source\PSoC4/debugOut.c ****     *    initialized.
 937:.\Generated_Source\PSoC4/debugOut.c ****     *
 938:.\Generated_Source\PSoC4/debugOut.c ****     * Reentrant:
 939:.\Generated_Source\PSoC4/debugOut.c ****     *  No.
 940:.\Generated_Source\PSoC4/debugOut.c ****     *
 941:.\Generated_Source\PSoC4/debugOut.c ****     *******************************************************************************/
 942:.\Generated_Source\PSoC4/debugOut.c ****     void debugOut_WriteTxData(uint8 txDataByte) 
 943:.\Generated_Source\PSoC4/debugOut.c ****     {
 311              		.loc 1 943 0
ARM GAS  C:\Users\Jeppe\AppData\Local\Temp\ccAuc0tw.s 			page 23


 312              		.cfi_startproc
 313 0000 80B5     		push	{r7, lr}
 314              		.cfi_def_cfa_offset 8
 315              		.cfi_offset 7, -8
 316              		.cfi_offset 14, -4
 317 0002 82B0     		sub	sp, sp, #8
 318              		.cfi_def_cfa_offset 16
 319 0004 00AF     		add	r7, sp, #0
 320              		.cfi_def_cfa_register 7
 321 0006 021C     		mov	r2, r0
 322 0008 FB1D     		add	r3, r7, #7
 323 000a 1A70     		strb	r2, [r3]
 944:.\Generated_Source\PSoC4/debugOut.c ****         /* If not Initialized then skip this function*/
 945:.\Generated_Source\PSoC4/debugOut.c ****         if(debugOut_initVar != 0u)
 324              		.loc 1 945 0
 325 000c 054B     		ldr	r3, .L22
 326 000e 1B78     		ldrb	r3, [r3]
 327 0010 002B     		cmp	r3, #0
 328 0012 03D0     		beq	.L20
 946:.\Generated_Source\PSoC4/debugOut.c ****         {
 947:.\Generated_Source\PSoC4/debugOut.c ****         #if (debugOut_TX_INTERRUPT_ENABLED)
 948:.\Generated_Source\PSoC4/debugOut.c **** 
 949:.\Generated_Source\PSoC4/debugOut.c ****             /* Protect variables that could change on interrupt. */
 950:.\Generated_Source\PSoC4/debugOut.c ****             debugOut_DisableTxInt();
 951:.\Generated_Source\PSoC4/debugOut.c **** 
 952:.\Generated_Source\PSoC4/debugOut.c ****             if( (debugOut_txBufferRead == debugOut_txBufferWrite) &&
 953:.\Generated_Source\PSoC4/debugOut.c ****                 ((debugOut_TXSTATUS_REG & debugOut_TX_STS_FIFO_FULL) == 0u) )
 954:.\Generated_Source\PSoC4/debugOut.c ****             {
 955:.\Generated_Source\PSoC4/debugOut.c ****                 /* Add directly to the FIFO. */
 956:.\Generated_Source\PSoC4/debugOut.c ****                 debugOut_TXDATA_REG = txDataByte;
 957:.\Generated_Source\PSoC4/debugOut.c ****             }
 958:.\Generated_Source\PSoC4/debugOut.c ****             else
 959:.\Generated_Source\PSoC4/debugOut.c ****             {
 960:.\Generated_Source\PSoC4/debugOut.c ****                 if(debugOut_txBufferWrite >= debugOut_TX_BUFFER_SIZE)
 961:.\Generated_Source\PSoC4/debugOut.c ****                 {
 962:.\Generated_Source\PSoC4/debugOut.c ****                     debugOut_txBufferWrite = 0u;
 963:.\Generated_Source\PSoC4/debugOut.c ****                 }
 964:.\Generated_Source\PSoC4/debugOut.c **** 
 965:.\Generated_Source\PSoC4/debugOut.c ****                 debugOut_txBuffer[debugOut_txBufferWrite] = txDataByte;
 966:.\Generated_Source\PSoC4/debugOut.c **** 
 967:.\Generated_Source\PSoC4/debugOut.c ****                 /* Add to the software buffer. */
 968:.\Generated_Source\PSoC4/debugOut.c ****                 debugOut_txBufferWrite++;
 969:.\Generated_Source\PSoC4/debugOut.c ****             }
 970:.\Generated_Source\PSoC4/debugOut.c **** 
 971:.\Generated_Source\PSoC4/debugOut.c ****             debugOut_EnableTxInt();
 972:.\Generated_Source\PSoC4/debugOut.c **** 
 973:.\Generated_Source\PSoC4/debugOut.c ****         #else
 974:.\Generated_Source\PSoC4/debugOut.c **** 
 975:.\Generated_Source\PSoC4/debugOut.c ****             /* Add directly to the FIFO. */
 976:.\Generated_Source\PSoC4/debugOut.c ****             debugOut_TXDATA_REG = txDataByte;
 329              		.loc 1 976 0
 330 0014 044B     		ldr	r3, .L22+4
 331 0016 FA1D     		add	r2, r7, #7
 332 0018 1278     		ldrb	r2, [r2]
 333 001a 1A70     		strb	r2, [r3]
 334              	.L20:
 977:.\Generated_Source\PSoC4/debugOut.c **** 
ARM GAS  C:\Users\Jeppe\AppData\Local\Temp\ccAuc0tw.s 			page 24


 978:.\Generated_Source\PSoC4/debugOut.c ****         #endif /*(debugOut_TX_INTERRUPT_ENABLED) */
 979:.\Generated_Source\PSoC4/debugOut.c ****         }
 980:.\Generated_Source\PSoC4/debugOut.c ****     }
 335              		.loc 1 980 0
 336 001c BD46     		mov	sp, r7
 337 001e 02B0     		add	sp, sp, #8
 338              		@ sp needed
 339 0020 80BD     		pop	{r7, pc}
 340              	.L23:
 341 0022 C046     		.align	2
 342              	.L22:
 343 0024 00000000 		.word	debugOut_initVar
 344 0028 42000F40 		.word	1074724930
 345              		.cfi_endproc
 346              	.LFE7:
 347              		.size	debugOut_WriteTxData, .-debugOut_WriteTxData
 348              		.section	.text.debugOut_ReadTxStatus,"ax",%progbits
 349              		.align	2
 350              		.global	debugOut_ReadTxStatus
 351              		.code	16
 352              		.thumb_func
 353              		.type	debugOut_ReadTxStatus, %function
 354              	debugOut_ReadTxStatus:
 355              	.LFB8:
 981:.\Generated_Source\PSoC4/debugOut.c **** 
 982:.\Generated_Source\PSoC4/debugOut.c **** 
 983:.\Generated_Source\PSoC4/debugOut.c ****     /*******************************************************************************
 984:.\Generated_Source\PSoC4/debugOut.c ****     * Function Name: debugOut_ReadTxStatus
 985:.\Generated_Source\PSoC4/debugOut.c ****     ********************************************************************************
 986:.\Generated_Source\PSoC4/debugOut.c ****     *
 987:.\Generated_Source\PSoC4/debugOut.c ****     * Summary:
 988:.\Generated_Source\PSoC4/debugOut.c ****     *  Reads the status register for the TX portion of the UART.
 989:.\Generated_Source\PSoC4/debugOut.c ****     *
 990:.\Generated_Source\PSoC4/debugOut.c ****     * Parameters:
 991:.\Generated_Source\PSoC4/debugOut.c ****     *  None.
 992:.\Generated_Source\PSoC4/debugOut.c ****     *
 993:.\Generated_Source\PSoC4/debugOut.c ****     * Return:
 994:.\Generated_Source\PSoC4/debugOut.c ****     *  Contents of the status register
 995:.\Generated_Source\PSoC4/debugOut.c ****     *
 996:.\Generated_Source\PSoC4/debugOut.c ****     * Theory:
 997:.\Generated_Source\PSoC4/debugOut.c ****     *  This function reads the TX status register, which is cleared on read.
 998:.\Generated_Source\PSoC4/debugOut.c ****     *  It is up to the user to handle all bits in this return value accordingly,
 999:.\Generated_Source\PSoC4/debugOut.c ****     *  even if the bit was not enabled as an interrupt source the event happened
1000:.\Generated_Source\PSoC4/debugOut.c ****     *  and must be handled accordingly.
1001:.\Generated_Source\PSoC4/debugOut.c ****     *
1002:.\Generated_Source\PSoC4/debugOut.c ****     *******************************************************************************/
1003:.\Generated_Source\PSoC4/debugOut.c ****     uint8 debugOut_ReadTxStatus(void) 
1004:.\Generated_Source\PSoC4/debugOut.c ****     {
 356              		.loc 1 1004 0
 357              		.cfi_startproc
 358 0000 80B5     		push	{r7, lr}
 359              		.cfi_def_cfa_offset 8
 360              		.cfi_offset 7, -8
 361              		.cfi_offset 14, -4
 362 0002 00AF     		add	r7, sp, #0
 363              		.cfi_def_cfa_register 7
1005:.\Generated_Source\PSoC4/debugOut.c ****         return(debugOut_TXSTATUS_REG);
ARM GAS  C:\Users\Jeppe\AppData\Local\Temp\ccAuc0tw.s 			page 25


 364              		.loc 1 1005 0
 365 0004 024B     		ldr	r3, .L26
 366 0006 1B78     		ldrb	r3, [r3]
 367 0008 DBB2     		uxtb	r3, r3
1006:.\Generated_Source\PSoC4/debugOut.c ****     }
 368              		.loc 1 1006 0
 369 000a 181C     		mov	r0, r3
 370 000c BD46     		mov	sp, r7
 371              		@ sp needed
 372 000e 80BD     		pop	{r7, pc}
 373              	.L27:
 374              		.align	2
 375              	.L26:
 376 0010 62000F40 		.word	1074724962
 377              		.cfi_endproc
 378              	.LFE8:
 379              		.size	debugOut_ReadTxStatus, .-debugOut_ReadTxStatus
 380              		.section	.text.debugOut_PutChar,"ax",%progbits
 381              		.align	2
 382              		.global	debugOut_PutChar
 383              		.code	16
 384              		.thumb_func
 385              		.type	debugOut_PutChar, %function
 386              	debugOut_PutChar:
 387              	.LFB9:
1007:.\Generated_Source\PSoC4/debugOut.c **** 
1008:.\Generated_Source\PSoC4/debugOut.c **** 
1009:.\Generated_Source\PSoC4/debugOut.c ****     /*******************************************************************************
1010:.\Generated_Source\PSoC4/debugOut.c ****     * Function Name: debugOut_PutChar
1011:.\Generated_Source\PSoC4/debugOut.c ****     ********************************************************************************
1012:.\Generated_Source\PSoC4/debugOut.c ****     *
1013:.\Generated_Source\PSoC4/debugOut.c ****     * Summary:
1014:.\Generated_Source\PSoC4/debugOut.c ****     *  Puts a byte of data into the transmit buffer to be sent when the bus is
1015:.\Generated_Source\PSoC4/debugOut.c ****     *  available. This is a blocking API that waits until the TX buffer has room to
1016:.\Generated_Source\PSoC4/debugOut.c ****     *  hold the data.
1017:.\Generated_Source\PSoC4/debugOut.c ****     *
1018:.\Generated_Source\PSoC4/debugOut.c ****     * Parameters:
1019:.\Generated_Source\PSoC4/debugOut.c ****     *  txDataByte: Byte containing the data to transmit
1020:.\Generated_Source\PSoC4/debugOut.c ****     *
1021:.\Generated_Source\PSoC4/debugOut.c ****     * Return:
1022:.\Generated_Source\PSoC4/debugOut.c ****     *  None.
1023:.\Generated_Source\PSoC4/debugOut.c ****     *
1024:.\Generated_Source\PSoC4/debugOut.c ****     * Global Variables:
1025:.\Generated_Source\PSoC4/debugOut.c ****     *  debugOut_txBuffer - RAM buffer pointer for save data for transmission
1026:.\Generated_Source\PSoC4/debugOut.c ****     *  debugOut_txBufferWrite - cyclic index for write to txBuffer,
1027:.\Generated_Source\PSoC4/debugOut.c ****     *     checked to identify free space in txBuffer and incremented after each byte
1028:.\Generated_Source\PSoC4/debugOut.c ****     *     saved to buffer.
1029:.\Generated_Source\PSoC4/debugOut.c ****     *  debugOut_txBufferRead - cyclic index for read from txBuffer,
1030:.\Generated_Source\PSoC4/debugOut.c ****     *     checked to identify free space in txBuffer.
1031:.\Generated_Source\PSoC4/debugOut.c ****     *  debugOut_initVar - checked to identify that the component has been
1032:.\Generated_Source\PSoC4/debugOut.c ****     *     initialized.
1033:.\Generated_Source\PSoC4/debugOut.c ****     *
1034:.\Generated_Source\PSoC4/debugOut.c ****     * Reentrant:
1035:.\Generated_Source\PSoC4/debugOut.c ****     *  No.
1036:.\Generated_Source\PSoC4/debugOut.c ****     *
1037:.\Generated_Source\PSoC4/debugOut.c ****     * Theory:
1038:.\Generated_Source\PSoC4/debugOut.c ****     *  Allows the user to transmit any byte of data in a single transfer
ARM GAS  C:\Users\Jeppe\AppData\Local\Temp\ccAuc0tw.s 			page 26


1039:.\Generated_Source\PSoC4/debugOut.c ****     *
1040:.\Generated_Source\PSoC4/debugOut.c ****     *******************************************************************************/
1041:.\Generated_Source\PSoC4/debugOut.c ****     void debugOut_PutChar(uint8 txDataByte) 
1042:.\Generated_Source\PSoC4/debugOut.c ****     {
 388              		.loc 1 1042 0
 389              		.cfi_startproc
 390 0000 80B5     		push	{r7, lr}
 391              		.cfi_def_cfa_offset 8
 392              		.cfi_offset 7, -8
 393              		.cfi_offset 14, -4
 394 0002 82B0     		sub	sp, sp, #8
 395              		.cfi_def_cfa_offset 16
 396 0004 00AF     		add	r7, sp, #0
 397              		.cfi_def_cfa_register 7
 398 0006 021C     		mov	r2, r0
 399 0008 FB1D     		add	r3, r7, #7
 400 000a 1A70     		strb	r2, [r3]
1043:.\Generated_Source\PSoC4/debugOut.c ****     #if (debugOut_TX_INTERRUPT_ENABLED)
1044:.\Generated_Source\PSoC4/debugOut.c ****         /* The temporary output pointer is used since it takes two instructions
1045:.\Generated_Source\PSoC4/debugOut.c ****         *  to increment with a wrap, and we can't risk doing that with the real
1046:.\Generated_Source\PSoC4/debugOut.c ****         *  pointer and getting an interrupt in between instructions.
1047:.\Generated_Source\PSoC4/debugOut.c ****         */
1048:.\Generated_Source\PSoC4/debugOut.c ****         uint8 locTxBufferWrite;
1049:.\Generated_Source\PSoC4/debugOut.c ****         uint8 locTxBufferRead;
1050:.\Generated_Source\PSoC4/debugOut.c **** 
1051:.\Generated_Source\PSoC4/debugOut.c ****         do
1052:.\Generated_Source\PSoC4/debugOut.c ****         { /* Block if software buffer is full, so we don't overwrite. */
1053:.\Generated_Source\PSoC4/debugOut.c **** 
1054:.\Generated_Source\PSoC4/debugOut.c ****         #if ((debugOut_TX_BUFFER_SIZE > debugOut_MAX_BYTE_VALUE) && (CY_PSOC3))
1055:.\Generated_Source\PSoC4/debugOut.c ****             /* Disable TX interrupt to protect variables from modification */
1056:.\Generated_Source\PSoC4/debugOut.c ****             debugOut_DisableTxInt();
1057:.\Generated_Source\PSoC4/debugOut.c ****         #endif /* (debugOut_TX_BUFFER_SIZE > 255) */
1058:.\Generated_Source\PSoC4/debugOut.c **** 
1059:.\Generated_Source\PSoC4/debugOut.c ****             locTxBufferWrite = debugOut_txBufferWrite;
1060:.\Generated_Source\PSoC4/debugOut.c ****             locTxBufferRead  = debugOut_txBufferRead;
1061:.\Generated_Source\PSoC4/debugOut.c **** 
1062:.\Generated_Source\PSoC4/debugOut.c ****         #if ((debugOut_TX_BUFFER_SIZE > debugOut_MAX_BYTE_VALUE) && (CY_PSOC3))
1063:.\Generated_Source\PSoC4/debugOut.c ****             /* Enable interrupt to continue transmission */
1064:.\Generated_Source\PSoC4/debugOut.c ****             debugOut_EnableTxInt();
1065:.\Generated_Source\PSoC4/debugOut.c ****         #endif /* (debugOut_TX_BUFFER_SIZE > 255) */
1066:.\Generated_Source\PSoC4/debugOut.c ****         }
1067:.\Generated_Source\PSoC4/debugOut.c ****         while( (locTxBufferWrite < locTxBufferRead) ? (locTxBufferWrite == (locTxBufferRead - 1u)) 
1068:.\Generated_Source\PSoC4/debugOut.c ****                                 ((locTxBufferWrite - locTxBufferRead) ==
1069:.\Generated_Source\PSoC4/debugOut.c ****                                 (uint8)(debugOut_TX_BUFFER_SIZE - 1u)) );
1070:.\Generated_Source\PSoC4/debugOut.c **** 
1071:.\Generated_Source\PSoC4/debugOut.c ****         if( (locTxBufferRead == locTxBufferWrite) &&
1072:.\Generated_Source\PSoC4/debugOut.c ****             ((debugOut_TXSTATUS_REG & debugOut_TX_STS_FIFO_FULL) == 0u) )
1073:.\Generated_Source\PSoC4/debugOut.c ****         {
1074:.\Generated_Source\PSoC4/debugOut.c ****             /* Add directly to the FIFO */
1075:.\Generated_Source\PSoC4/debugOut.c ****             debugOut_TXDATA_REG = txDataByte;
1076:.\Generated_Source\PSoC4/debugOut.c ****         }
1077:.\Generated_Source\PSoC4/debugOut.c ****         else
1078:.\Generated_Source\PSoC4/debugOut.c ****         {
1079:.\Generated_Source\PSoC4/debugOut.c ****             if(locTxBufferWrite >= debugOut_TX_BUFFER_SIZE)
1080:.\Generated_Source\PSoC4/debugOut.c ****             {
1081:.\Generated_Source\PSoC4/debugOut.c ****                 locTxBufferWrite = 0u;
1082:.\Generated_Source\PSoC4/debugOut.c ****             }
ARM GAS  C:\Users\Jeppe\AppData\Local\Temp\ccAuc0tw.s 			page 27


1083:.\Generated_Source\PSoC4/debugOut.c ****             /* Add to the software buffer. */
1084:.\Generated_Source\PSoC4/debugOut.c ****             debugOut_txBuffer[locTxBufferWrite] = txDataByte;
1085:.\Generated_Source\PSoC4/debugOut.c ****             locTxBufferWrite++;
1086:.\Generated_Source\PSoC4/debugOut.c **** 
1087:.\Generated_Source\PSoC4/debugOut.c ****             /* Finally, update the real output pointer */
1088:.\Generated_Source\PSoC4/debugOut.c ****         #if ((debugOut_TX_BUFFER_SIZE > debugOut_MAX_BYTE_VALUE) && (CY_PSOC3))
1089:.\Generated_Source\PSoC4/debugOut.c ****             debugOut_DisableTxInt();
1090:.\Generated_Source\PSoC4/debugOut.c ****         #endif /* (debugOut_TX_BUFFER_SIZE > 255) */
1091:.\Generated_Source\PSoC4/debugOut.c **** 
1092:.\Generated_Source\PSoC4/debugOut.c ****             debugOut_txBufferWrite = locTxBufferWrite;
1093:.\Generated_Source\PSoC4/debugOut.c **** 
1094:.\Generated_Source\PSoC4/debugOut.c ****         #if ((debugOut_TX_BUFFER_SIZE > debugOut_MAX_BYTE_VALUE) && (CY_PSOC3))
1095:.\Generated_Source\PSoC4/debugOut.c ****             debugOut_EnableTxInt();
1096:.\Generated_Source\PSoC4/debugOut.c ****         #endif /* (debugOut_TX_BUFFER_SIZE > 255) */
1097:.\Generated_Source\PSoC4/debugOut.c **** 
1098:.\Generated_Source\PSoC4/debugOut.c ****             if(0u != (debugOut_TXSTATUS_REG & debugOut_TX_STS_FIFO_EMPTY))
1099:.\Generated_Source\PSoC4/debugOut.c ****             {
1100:.\Generated_Source\PSoC4/debugOut.c ****                 /* Trigger TX interrupt to send software buffer */
1101:.\Generated_Source\PSoC4/debugOut.c ****                 debugOut_SetPendingTxInt();
1102:.\Generated_Source\PSoC4/debugOut.c ****             }
1103:.\Generated_Source\PSoC4/debugOut.c ****         }
1104:.\Generated_Source\PSoC4/debugOut.c **** 
1105:.\Generated_Source\PSoC4/debugOut.c ****     #else
1106:.\Generated_Source\PSoC4/debugOut.c **** 
1107:.\Generated_Source\PSoC4/debugOut.c ****         while((debugOut_TXSTATUS_REG & debugOut_TX_STS_FIFO_FULL) != 0u)
 401              		.loc 1 1107 0
 402 000c C046     		mov	r8, r8
 403              	.L29:
 404              		.loc 1 1107 0 is_stmt 0 discriminator 1
 405 000e 074B     		ldr	r3, .L30
 406 0010 1B78     		ldrb	r3, [r3]
 407 0012 DBB2     		uxtb	r3, r3
 408 0014 1A1C     		mov	r2, r3
 409 0016 0423     		mov	r3, #4
 410 0018 1340     		and	r3, r2
 411 001a F8D1     		bne	.L29
1108:.\Generated_Source\PSoC4/debugOut.c ****         {
1109:.\Generated_Source\PSoC4/debugOut.c ****             /* Wait for room in the FIFO */
1110:.\Generated_Source\PSoC4/debugOut.c ****         }
1111:.\Generated_Source\PSoC4/debugOut.c **** 
1112:.\Generated_Source\PSoC4/debugOut.c ****         /* Add directly to the FIFO */
1113:.\Generated_Source\PSoC4/debugOut.c ****         debugOut_TXDATA_REG = txDataByte;
 412              		.loc 1 1113 0 is_stmt 1
 413 001c 044B     		ldr	r3, .L30+4
 414 001e FA1D     		add	r2, r7, #7
 415 0020 1278     		ldrb	r2, [r2]
 416 0022 1A70     		strb	r2, [r3]
1114:.\Generated_Source\PSoC4/debugOut.c **** 
1115:.\Generated_Source\PSoC4/debugOut.c ****     #endif /* End (debugOut_TX_INTERRUPT_ENABLED) */
1116:.\Generated_Source\PSoC4/debugOut.c ****     }
 417              		.loc 1 1116 0
 418 0024 BD46     		mov	sp, r7
 419 0026 02B0     		add	sp, sp, #8
 420              		@ sp needed
 421 0028 80BD     		pop	{r7, pc}
 422              	.L31:
 423 002a C046     		.align	2
ARM GAS  C:\Users\Jeppe\AppData\Local\Temp\ccAuc0tw.s 			page 28


 424              	.L30:
 425 002c 62000F40 		.word	1074724962
 426 0030 42000F40 		.word	1074724930
 427              		.cfi_endproc
 428              	.LFE9:
 429              		.size	debugOut_PutChar, .-debugOut_PutChar
 430              		.section	.text.debugOut_PutString,"ax",%progbits
 431              		.align	2
 432              		.global	debugOut_PutString
 433              		.code	16
 434              		.thumb_func
 435              		.type	debugOut_PutString, %function
 436              	debugOut_PutString:
 437              	.LFB10:
1117:.\Generated_Source\PSoC4/debugOut.c **** 
1118:.\Generated_Source\PSoC4/debugOut.c **** 
1119:.\Generated_Source\PSoC4/debugOut.c ****     /*******************************************************************************
1120:.\Generated_Source\PSoC4/debugOut.c ****     * Function Name: debugOut_PutString
1121:.\Generated_Source\PSoC4/debugOut.c ****     ********************************************************************************
1122:.\Generated_Source\PSoC4/debugOut.c ****     *
1123:.\Generated_Source\PSoC4/debugOut.c ****     * Summary:
1124:.\Generated_Source\PSoC4/debugOut.c ****     *  Sends a NULL terminated string to the TX buffer for transmission.
1125:.\Generated_Source\PSoC4/debugOut.c ****     *
1126:.\Generated_Source\PSoC4/debugOut.c ****     * Parameters:
1127:.\Generated_Source\PSoC4/debugOut.c ****     *  string[]: Pointer to the null terminated string array residing in RAM or ROM
1128:.\Generated_Source\PSoC4/debugOut.c ****     *
1129:.\Generated_Source\PSoC4/debugOut.c ****     * Return:
1130:.\Generated_Source\PSoC4/debugOut.c ****     *  None.
1131:.\Generated_Source\PSoC4/debugOut.c ****     *
1132:.\Generated_Source\PSoC4/debugOut.c ****     * Global Variables:
1133:.\Generated_Source\PSoC4/debugOut.c ****     *  debugOut_initVar - checked to identify that the component has been
1134:.\Generated_Source\PSoC4/debugOut.c ****     *     initialized.
1135:.\Generated_Source\PSoC4/debugOut.c ****     *
1136:.\Generated_Source\PSoC4/debugOut.c ****     * Reentrant:
1137:.\Generated_Source\PSoC4/debugOut.c ****     *  No.
1138:.\Generated_Source\PSoC4/debugOut.c ****     *
1139:.\Generated_Source\PSoC4/debugOut.c ****     * Theory:
1140:.\Generated_Source\PSoC4/debugOut.c ****     *  If there is not enough memory in the TX buffer for the entire string, this
1141:.\Generated_Source\PSoC4/debugOut.c ****     *  function blocks until the last character of the string is loaded into the
1142:.\Generated_Source\PSoC4/debugOut.c ****     *  TX buffer.
1143:.\Generated_Source\PSoC4/debugOut.c ****     *
1144:.\Generated_Source\PSoC4/debugOut.c ****     *******************************************************************************/
1145:.\Generated_Source\PSoC4/debugOut.c ****     void debugOut_PutString(const char8 string[]) 
1146:.\Generated_Source\PSoC4/debugOut.c ****     {
 438              		.loc 1 1146 0
 439              		.cfi_startproc
 440 0000 80B5     		push	{r7, lr}
 441              		.cfi_def_cfa_offset 8
 442              		.cfi_offset 7, -8
 443              		.cfi_offset 14, -4
 444 0002 84B0     		sub	sp, sp, #16
 445              		.cfi_def_cfa_offset 24
 446 0004 00AF     		add	r7, sp, #0
 447              		.cfi_def_cfa_register 7
 448 0006 7860     		str	r0, [r7, #4]
1147:.\Generated_Source\PSoC4/debugOut.c ****         uint16 bufIndex = 0u;
 449              		.loc 1 1147 0
ARM GAS  C:\Users\Jeppe\AppData\Local\Temp\ccAuc0tw.s 			page 29


 450 0008 3B1C     		mov	r3, r7
 451 000a 0E33     		add	r3, r3, #14
 452 000c 0022     		mov	r2, #0
 453 000e 1A80     		strh	r2, [r3]
1148:.\Generated_Source\PSoC4/debugOut.c **** 
1149:.\Generated_Source\PSoC4/debugOut.c ****         /* If not Initialized then skip this function */
1150:.\Generated_Source\PSoC4/debugOut.c ****         if(debugOut_initVar != 0u)
 454              		.loc 1 1150 0
 455 0010 0F4B     		ldr	r3, .L36
 456 0012 1B78     		ldrb	r3, [r3]
 457 0014 002B     		cmp	r3, #0
 458 0016 18D0     		beq	.L32
1151:.\Generated_Source\PSoC4/debugOut.c ****         {
1152:.\Generated_Source\PSoC4/debugOut.c ****             /* This is a blocking function, it will not exit until all data is sent */
1153:.\Generated_Source\PSoC4/debugOut.c ****             while(string[bufIndex] != (char8) 0)
 459              		.loc 1 1153 0
 460 0018 0FE0     		b	.L34
 461              	.L35:
1154:.\Generated_Source\PSoC4/debugOut.c ****             {
1155:.\Generated_Source\PSoC4/debugOut.c ****                 debugOut_PutChar((uint8)string[bufIndex]);
 462              		.loc 1 1155 0
 463 001a 3B1C     		mov	r3, r7
 464 001c 0E33     		add	r3, r3, #14
 465 001e 1B88     		ldrh	r3, [r3]
 466 0020 7A68     		ldr	r2, [r7, #4]
 467 0022 D318     		add	r3, r2, r3
 468 0024 1B78     		ldrb	r3, [r3]
 469 0026 181C     		mov	r0, r3
 470 0028 FFF7FEFF 		bl	debugOut_PutChar
1156:.\Generated_Source\PSoC4/debugOut.c ****                 bufIndex++;
 471              		.loc 1 1156 0
 472 002c 3B1C     		mov	r3, r7
 473 002e 0E33     		add	r3, r3, #14
 474 0030 1A88     		ldrh	r2, [r3]
 475 0032 3B1C     		mov	r3, r7
 476 0034 0E33     		add	r3, r3, #14
 477 0036 0132     		add	r2, r2, #1
 478 0038 1A80     		strh	r2, [r3]
 479              	.L34:
1153:.\Generated_Source\PSoC4/debugOut.c ****             while(string[bufIndex] != (char8) 0)
 480              		.loc 1 1153 0 discriminator 1
 481 003a 3B1C     		mov	r3, r7
 482 003c 0E33     		add	r3, r3, #14
 483 003e 1B88     		ldrh	r3, [r3]
 484 0040 7A68     		ldr	r2, [r7, #4]
 485 0042 D318     		add	r3, r2, r3
 486 0044 1B78     		ldrb	r3, [r3]
 487 0046 002B     		cmp	r3, #0
 488 0048 E7D1     		bne	.L35
 489              	.L32:
1157:.\Generated_Source\PSoC4/debugOut.c ****             }
1158:.\Generated_Source\PSoC4/debugOut.c ****         }
1159:.\Generated_Source\PSoC4/debugOut.c ****     }
 490              		.loc 1 1159 0
 491 004a BD46     		mov	sp, r7
 492 004c 04B0     		add	sp, sp, #16
 493              		@ sp needed
ARM GAS  C:\Users\Jeppe\AppData\Local\Temp\ccAuc0tw.s 			page 30


 494 004e 80BD     		pop	{r7, pc}
 495              	.L37:
 496              		.align	2
 497              	.L36:
 498 0050 00000000 		.word	debugOut_initVar
 499              		.cfi_endproc
 500              	.LFE10:
 501              		.size	debugOut_PutString, .-debugOut_PutString
 502              		.section	.text.debugOut_PutArray,"ax",%progbits
 503              		.align	2
 504              		.global	debugOut_PutArray
 505              		.code	16
 506              		.thumb_func
 507              		.type	debugOut_PutArray, %function
 508              	debugOut_PutArray:
 509              	.LFB11:
1160:.\Generated_Source\PSoC4/debugOut.c **** 
1161:.\Generated_Source\PSoC4/debugOut.c **** 
1162:.\Generated_Source\PSoC4/debugOut.c ****     /*******************************************************************************
1163:.\Generated_Source\PSoC4/debugOut.c ****     * Function Name: debugOut_PutArray
1164:.\Generated_Source\PSoC4/debugOut.c ****     ********************************************************************************
1165:.\Generated_Source\PSoC4/debugOut.c ****     *
1166:.\Generated_Source\PSoC4/debugOut.c ****     * Summary:
1167:.\Generated_Source\PSoC4/debugOut.c ****     *  Places N bytes of data from a memory array into the TX buffer for
1168:.\Generated_Source\PSoC4/debugOut.c ****     *  transmission.
1169:.\Generated_Source\PSoC4/debugOut.c ****     *
1170:.\Generated_Source\PSoC4/debugOut.c ****     * Parameters:
1171:.\Generated_Source\PSoC4/debugOut.c ****     *  string[]: Address of the memory array residing in RAM or ROM.
1172:.\Generated_Source\PSoC4/debugOut.c ****     *  byteCount: Number of bytes to be transmitted. The type depends on TX Buffer
1173:.\Generated_Source\PSoC4/debugOut.c ****     *             Size parameter.
1174:.\Generated_Source\PSoC4/debugOut.c ****     *
1175:.\Generated_Source\PSoC4/debugOut.c ****     * Return:
1176:.\Generated_Source\PSoC4/debugOut.c ****     *  None.
1177:.\Generated_Source\PSoC4/debugOut.c ****     *
1178:.\Generated_Source\PSoC4/debugOut.c ****     * Global Variables:
1179:.\Generated_Source\PSoC4/debugOut.c ****     *  debugOut_initVar - checked to identify that the component has been
1180:.\Generated_Source\PSoC4/debugOut.c ****     *     initialized.
1181:.\Generated_Source\PSoC4/debugOut.c ****     *
1182:.\Generated_Source\PSoC4/debugOut.c ****     * Reentrant:
1183:.\Generated_Source\PSoC4/debugOut.c ****     *  No.
1184:.\Generated_Source\PSoC4/debugOut.c ****     *
1185:.\Generated_Source\PSoC4/debugOut.c ****     * Theory:
1186:.\Generated_Source\PSoC4/debugOut.c ****     *  If there is not enough memory in the TX buffer for the entire string, this
1187:.\Generated_Source\PSoC4/debugOut.c ****     *  function blocks until the last character of the string is loaded into the
1188:.\Generated_Source\PSoC4/debugOut.c ****     *  TX buffer.
1189:.\Generated_Source\PSoC4/debugOut.c ****     *
1190:.\Generated_Source\PSoC4/debugOut.c ****     *******************************************************************************/
1191:.\Generated_Source\PSoC4/debugOut.c ****     void debugOut_PutArray(const uint8 string[], uint8 byteCount)
1192:.\Generated_Source\PSoC4/debugOut.c ****                                                                     
1193:.\Generated_Source\PSoC4/debugOut.c ****     {
 510              		.loc 1 1193 0
 511              		.cfi_startproc
 512 0000 80B5     		push	{r7, lr}
 513              		.cfi_def_cfa_offset 8
 514              		.cfi_offset 7, -8
 515              		.cfi_offset 14, -4
 516 0002 84B0     		sub	sp, sp, #16
ARM GAS  C:\Users\Jeppe\AppData\Local\Temp\ccAuc0tw.s 			page 31


 517              		.cfi_def_cfa_offset 24
 518 0004 00AF     		add	r7, sp, #0
 519              		.cfi_def_cfa_register 7
 520 0006 7860     		str	r0, [r7, #4]
 521 0008 0A1C     		mov	r2, r1
 522 000a FB1C     		add	r3, r7, #3
 523 000c 1A70     		strb	r2, [r3]
1194:.\Generated_Source\PSoC4/debugOut.c ****         uint8 bufIndex = 0u;
 524              		.loc 1 1194 0
 525 000e 3B1C     		mov	r3, r7
 526 0010 0F33     		add	r3, r3, #15
 527 0012 0022     		mov	r2, #0
 528 0014 1A70     		strb	r2, [r3]
1195:.\Generated_Source\PSoC4/debugOut.c **** 
1196:.\Generated_Source\PSoC4/debugOut.c ****         /* If not Initialized then skip this function */
1197:.\Generated_Source\PSoC4/debugOut.c ****         if(debugOut_initVar != 0u)
 529              		.loc 1 1197 0
 530 0016 0F4B     		ldr	r3, .L42
 531 0018 1B78     		ldrb	r3, [r3]
 532 001a 002B     		cmp	r3, #0
 533 001c 17D0     		beq	.L38
1198:.\Generated_Source\PSoC4/debugOut.c ****         {
1199:.\Generated_Source\PSoC4/debugOut.c ****             while(bufIndex < byteCount)
 534              		.loc 1 1199 0
 535 001e 0FE0     		b	.L40
 536              	.L41:
1200:.\Generated_Source\PSoC4/debugOut.c ****             {
1201:.\Generated_Source\PSoC4/debugOut.c ****                 debugOut_PutChar(string[bufIndex]);
 537              		.loc 1 1201 0
 538 0020 3B1C     		mov	r3, r7
 539 0022 0F33     		add	r3, r3, #15
 540 0024 1B78     		ldrb	r3, [r3]
 541 0026 7A68     		ldr	r2, [r7, #4]
 542 0028 D318     		add	r3, r2, r3
 543 002a 1B78     		ldrb	r3, [r3]
 544 002c 181C     		mov	r0, r3
 545 002e FFF7FEFF 		bl	debugOut_PutChar
1202:.\Generated_Source\PSoC4/debugOut.c ****                 bufIndex++;
 546              		.loc 1 1202 0
 547 0032 3B1C     		mov	r3, r7
 548 0034 0F33     		add	r3, r3, #15
 549 0036 1A78     		ldrb	r2, [r3]
 550 0038 3B1C     		mov	r3, r7
 551 003a 0F33     		add	r3, r3, #15
 552 003c 0132     		add	r2, r2, #1
 553 003e 1A70     		strb	r2, [r3]
 554              	.L40:
1199:.\Generated_Source\PSoC4/debugOut.c ****             while(bufIndex < byteCount)
 555              		.loc 1 1199 0 discriminator 1
 556 0040 3A1C     		mov	r2, r7
 557 0042 0F32     		add	r2, r2, #15
 558 0044 FB1C     		add	r3, r7, #3
 559 0046 1278     		ldrb	r2, [r2]
 560 0048 1B78     		ldrb	r3, [r3]
 561 004a 9A42     		cmp	r2, r3
 562 004c E8D3     		bcc	.L41
 563              	.L38:
ARM GAS  C:\Users\Jeppe\AppData\Local\Temp\ccAuc0tw.s 			page 32


1203:.\Generated_Source\PSoC4/debugOut.c ****             }
1204:.\Generated_Source\PSoC4/debugOut.c ****         }
1205:.\Generated_Source\PSoC4/debugOut.c ****     }
 564              		.loc 1 1205 0
 565 004e BD46     		mov	sp, r7
 566 0050 04B0     		add	sp, sp, #16
 567              		@ sp needed
 568 0052 80BD     		pop	{r7, pc}
 569              	.L43:
 570              		.align	2
 571              	.L42:
 572 0054 00000000 		.word	debugOut_initVar
 573              		.cfi_endproc
 574              	.LFE11:
 575              		.size	debugOut_PutArray, .-debugOut_PutArray
 576              		.section	.text.debugOut_PutCRLF,"ax",%progbits
 577              		.align	2
 578              		.global	debugOut_PutCRLF
 579              		.code	16
 580              		.thumb_func
 581              		.type	debugOut_PutCRLF, %function
 582              	debugOut_PutCRLF:
 583              	.LFB12:
1206:.\Generated_Source\PSoC4/debugOut.c **** 
1207:.\Generated_Source\PSoC4/debugOut.c **** 
1208:.\Generated_Source\PSoC4/debugOut.c ****     /*******************************************************************************
1209:.\Generated_Source\PSoC4/debugOut.c ****     * Function Name: debugOut_PutCRLF
1210:.\Generated_Source\PSoC4/debugOut.c ****     ********************************************************************************
1211:.\Generated_Source\PSoC4/debugOut.c ****     *
1212:.\Generated_Source\PSoC4/debugOut.c ****     * Summary:
1213:.\Generated_Source\PSoC4/debugOut.c ****     *  Writes a byte of data followed by a carriage return (0x0D) and line feed
1214:.\Generated_Source\PSoC4/debugOut.c ****     *  (0x0A) to the transmit buffer.
1215:.\Generated_Source\PSoC4/debugOut.c ****     *
1216:.\Generated_Source\PSoC4/debugOut.c ****     * Parameters:
1217:.\Generated_Source\PSoC4/debugOut.c ****     *  txDataByte: Data byte to transmit before the carriage return and line feed.
1218:.\Generated_Source\PSoC4/debugOut.c ****     *
1219:.\Generated_Source\PSoC4/debugOut.c ****     * Return:
1220:.\Generated_Source\PSoC4/debugOut.c ****     *  None.
1221:.\Generated_Source\PSoC4/debugOut.c ****     *
1222:.\Generated_Source\PSoC4/debugOut.c ****     * Global Variables:
1223:.\Generated_Source\PSoC4/debugOut.c ****     *  debugOut_initVar - checked to identify that the component has been
1224:.\Generated_Source\PSoC4/debugOut.c ****     *     initialized.
1225:.\Generated_Source\PSoC4/debugOut.c ****     *
1226:.\Generated_Source\PSoC4/debugOut.c ****     * Reentrant:
1227:.\Generated_Source\PSoC4/debugOut.c ****     *  No.
1228:.\Generated_Source\PSoC4/debugOut.c ****     *
1229:.\Generated_Source\PSoC4/debugOut.c ****     *******************************************************************************/
1230:.\Generated_Source\PSoC4/debugOut.c ****     void debugOut_PutCRLF(uint8 txDataByte) 
1231:.\Generated_Source\PSoC4/debugOut.c ****     {
 584              		.loc 1 1231 0
 585              		.cfi_startproc
 586 0000 80B5     		push	{r7, lr}
 587              		.cfi_def_cfa_offset 8
 588              		.cfi_offset 7, -8
 589              		.cfi_offset 14, -4
 590 0002 82B0     		sub	sp, sp, #8
 591              		.cfi_def_cfa_offset 16
ARM GAS  C:\Users\Jeppe\AppData\Local\Temp\ccAuc0tw.s 			page 33


 592 0004 00AF     		add	r7, sp, #0
 593              		.cfi_def_cfa_register 7
 594 0006 021C     		mov	r2, r0
 595 0008 FB1D     		add	r3, r7, #7
 596 000a 1A70     		strb	r2, [r3]
1232:.\Generated_Source\PSoC4/debugOut.c ****         /* If not Initialized then skip this function */
1233:.\Generated_Source\PSoC4/debugOut.c ****         if(debugOut_initVar != 0u)
 597              		.loc 1 1233 0
 598 000c 084B     		ldr	r3, .L46
 599 000e 1B78     		ldrb	r3, [r3]
 600 0010 002B     		cmp	r3, #0
 601 0012 0AD0     		beq	.L44
1234:.\Generated_Source\PSoC4/debugOut.c ****         {
1235:.\Generated_Source\PSoC4/debugOut.c ****             debugOut_PutChar(txDataByte);
 602              		.loc 1 1235 0
 603 0014 FB1D     		add	r3, r7, #7
 604 0016 1B78     		ldrb	r3, [r3]
 605 0018 181C     		mov	r0, r3
 606 001a FFF7FEFF 		bl	debugOut_PutChar
1236:.\Generated_Source\PSoC4/debugOut.c ****             debugOut_PutChar(0x0Du);
 607              		.loc 1 1236 0
 608 001e 0D20     		mov	r0, #13
 609 0020 FFF7FEFF 		bl	debugOut_PutChar
1237:.\Generated_Source\PSoC4/debugOut.c ****             debugOut_PutChar(0x0Au);
 610              		.loc 1 1237 0
 611 0024 0A20     		mov	r0, #10
 612 0026 FFF7FEFF 		bl	debugOut_PutChar
 613              	.L44:
1238:.\Generated_Source\PSoC4/debugOut.c ****         }
1239:.\Generated_Source\PSoC4/debugOut.c ****     }
 614              		.loc 1 1239 0
 615 002a BD46     		mov	sp, r7
 616 002c 02B0     		add	sp, sp, #8
 617              		@ sp needed
 618 002e 80BD     		pop	{r7, pc}
 619              	.L47:
 620              		.align	2
 621              	.L46:
 622 0030 00000000 		.word	debugOut_initVar
 623              		.cfi_endproc
 624              	.LFE12:
 625              		.size	debugOut_PutCRLF, .-debugOut_PutCRLF
 626              		.section	.text.debugOut_GetTxBufferSize,"ax",%progbits
 627              		.align	2
 628              		.global	debugOut_GetTxBufferSize
 629              		.code	16
 630              		.thumb_func
 631              		.type	debugOut_GetTxBufferSize, %function
 632              	debugOut_GetTxBufferSize:
 633              	.LFB13:
1240:.\Generated_Source\PSoC4/debugOut.c **** 
1241:.\Generated_Source\PSoC4/debugOut.c **** 
1242:.\Generated_Source\PSoC4/debugOut.c ****     /*******************************************************************************
1243:.\Generated_Source\PSoC4/debugOut.c ****     * Function Name: debugOut_GetTxBufferSize
1244:.\Generated_Source\PSoC4/debugOut.c ****     ********************************************************************************
1245:.\Generated_Source\PSoC4/debugOut.c ****     *
1246:.\Generated_Source\PSoC4/debugOut.c ****     * Summary:
ARM GAS  C:\Users\Jeppe\AppData\Local\Temp\ccAuc0tw.s 			page 34


1247:.\Generated_Source\PSoC4/debugOut.c ****     *  Returns the number of bytes in the TX buffer which are waiting to be 
1248:.\Generated_Source\PSoC4/debugOut.c ****     *  transmitted.
1249:.\Generated_Source\PSoC4/debugOut.c ****     *  * TX software buffer is disabled (TX Buffer Size parameter is equal to 4): 
1250:.\Generated_Source\PSoC4/debugOut.c ****     *    returns 0 for empty TX FIFO, 1 for not full TX FIFO or 4 for full TX FIFO.
1251:.\Generated_Source\PSoC4/debugOut.c ****     *  * TX software buffer is enabled: returns the number of bytes in the TX 
1252:.\Generated_Source\PSoC4/debugOut.c ****     *    software buffer which are waiting to be transmitted. Bytes available in the
1253:.\Generated_Source\PSoC4/debugOut.c ****     *    TX FIFO do not take to account.
1254:.\Generated_Source\PSoC4/debugOut.c ****     *
1255:.\Generated_Source\PSoC4/debugOut.c ****     * Parameters:
1256:.\Generated_Source\PSoC4/debugOut.c ****     *  None.
1257:.\Generated_Source\PSoC4/debugOut.c ****     *
1258:.\Generated_Source\PSoC4/debugOut.c ****     * Return:
1259:.\Generated_Source\PSoC4/debugOut.c ****     *  Number of bytes used in the TX buffer. Return value type depends on the TX 
1260:.\Generated_Source\PSoC4/debugOut.c ****     *  Buffer Size parameter.
1261:.\Generated_Source\PSoC4/debugOut.c ****     *
1262:.\Generated_Source\PSoC4/debugOut.c ****     * Global Variables:
1263:.\Generated_Source\PSoC4/debugOut.c ****     *  debugOut_txBufferWrite - used to calculate left space.
1264:.\Generated_Source\PSoC4/debugOut.c ****     *  debugOut_txBufferRead - used to calculate left space.
1265:.\Generated_Source\PSoC4/debugOut.c ****     *
1266:.\Generated_Source\PSoC4/debugOut.c ****     * Reentrant:
1267:.\Generated_Source\PSoC4/debugOut.c ****     *  No.
1268:.\Generated_Source\PSoC4/debugOut.c ****     *
1269:.\Generated_Source\PSoC4/debugOut.c ****     * Theory:
1270:.\Generated_Source\PSoC4/debugOut.c ****     *  Allows the user to find out how full the TX Buffer is.
1271:.\Generated_Source\PSoC4/debugOut.c ****     *
1272:.\Generated_Source\PSoC4/debugOut.c ****     *******************************************************************************/
1273:.\Generated_Source\PSoC4/debugOut.c ****     uint8 debugOut_GetTxBufferSize(void)
1274:.\Generated_Source\PSoC4/debugOut.c ****                                                             
1275:.\Generated_Source\PSoC4/debugOut.c ****     {
 634              		.loc 1 1275 0
 635              		.cfi_startproc
 636 0000 80B5     		push	{r7, lr}
 637              		.cfi_def_cfa_offset 8
 638              		.cfi_offset 7, -8
 639              		.cfi_offset 14, -4
 640 0002 82B0     		sub	sp, sp, #8
 641              		.cfi_def_cfa_offset 16
 642 0004 00AF     		add	r7, sp, #0
 643              		.cfi_def_cfa_register 7
1276:.\Generated_Source\PSoC4/debugOut.c ****         uint8 size;
1277:.\Generated_Source\PSoC4/debugOut.c **** 
1278:.\Generated_Source\PSoC4/debugOut.c ****     #if (debugOut_TX_INTERRUPT_ENABLED)
1279:.\Generated_Source\PSoC4/debugOut.c **** 
1280:.\Generated_Source\PSoC4/debugOut.c ****         /* Protect variables that could change on interrupt. */
1281:.\Generated_Source\PSoC4/debugOut.c ****         debugOut_DisableTxInt();
1282:.\Generated_Source\PSoC4/debugOut.c **** 
1283:.\Generated_Source\PSoC4/debugOut.c ****         if(debugOut_txBufferRead == debugOut_txBufferWrite)
1284:.\Generated_Source\PSoC4/debugOut.c ****         {
1285:.\Generated_Source\PSoC4/debugOut.c ****             size = 0u;
1286:.\Generated_Source\PSoC4/debugOut.c ****         }
1287:.\Generated_Source\PSoC4/debugOut.c ****         else if(debugOut_txBufferRead < debugOut_txBufferWrite)
1288:.\Generated_Source\PSoC4/debugOut.c ****         {
1289:.\Generated_Source\PSoC4/debugOut.c ****             size = (debugOut_txBufferWrite - debugOut_txBufferRead);
1290:.\Generated_Source\PSoC4/debugOut.c ****         }
1291:.\Generated_Source\PSoC4/debugOut.c ****         else
1292:.\Generated_Source\PSoC4/debugOut.c ****         {
1293:.\Generated_Source\PSoC4/debugOut.c ****             size = (debugOut_TX_BUFFER_SIZE - debugOut_txBufferRead) +
ARM GAS  C:\Users\Jeppe\AppData\Local\Temp\ccAuc0tw.s 			page 35


1294:.\Generated_Source\PSoC4/debugOut.c ****                     debugOut_txBufferWrite;
1295:.\Generated_Source\PSoC4/debugOut.c ****         }
1296:.\Generated_Source\PSoC4/debugOut.c **** 
1297:.\Generated_Source\PSoC4/debugOut.c ****         debugOut_EnableTxInt();
1298:.\Generated_Source\PSoC4/debugOut.c **** 
1299:.\Generated_Source\PSoC4/debugOut.c ****     #else
1300:.\Generated_Source\PSoC4/debugOut.c **** 
1301:.\Generated_Source\PSoC4/debugOut.c ****         size = debugOut_TXSTATUS_REG;
 644              		.loc 1 1301 0
 645 0006 0F4A     		ldr	r2, .L53
 646 0008 FB1D     		add	r3, r7, #7
 647 000a 1278     		ldrb	r2, [r2]
 648 000c 1A70     		strb	r2, [r3]
1302:.\Generated_Source\PSoC4/debugOut.c **** 
1303:.\Generated_Source\PSoC4/debugOut.c ****         /* Is the fifo is full. */
1304:.\Generated_Source\PSoC4/debugOut.c ****         if((size & debugOut_TX_STS_FIFO_FULL) != 0u)
 649              		.loc 1 1304 0
 650 000e FB1D     		add	r3, r7, #7
 651 0010 1A78     		ldrb	r2, [r3]
 652 0012 0423     		mov	r3, #4
 653 0014 1340     		and	r3, r2
 654 0016 03D0     		beq	.L49
1305:.\Generated_Source\PSoC4/debugOut.c ****         {
1306:.\Generated_Source\PSoC4/debugOut.c ****             size = debugOut_FIFO_LENGTH;
 655              		.loc 1 1306 0
 656 0018 FB1D     		add	r3, r7, #7
 657 001a 0422     		mov	r2, #4
 658 001c 1A70     		strb	r2, [r3]
 659 001e 0BE0     		b	.L50
 660              	.L49:
1307:.\Generated_Source\PSoC4/debugOut.c ****         }
1308:.\Generated_Source\PSoC4/debugOut.c ****         else if((size & debugOut_TX_STS_FIFO_EMPTY) != 0u)
 661              		.loc 1 1308 0
 662 0020 FB1D     		add	r3, r7, #7
 663 0022 1A78     		ldrb	r2, [r3]
 664 0024 0223     		mov	r3, #2
 665 0026 1340     		and	r3, r2
 666 0028 03D0     		beq	.L51
1309:.\Generated_Source\PSoC4/debugOut.c ****         {
1310:.\Generated_Source\PSoC4/debugOut.c ****             size = 0u;
 667              		.loc 1 1310 0
 668 002a FB1D     		add	r3, r7, #7
 669 002c 0022     		mov	r2, #0
 670 002e 1A70     		strb	r2, [r3]
 671 0030 02E0     		b	.L50
 672              	.L51:
1311:.\Generated_Source\PSoC4/debugOut.c ****         }
1312:.\Generated_Source\PSoC4/debugOut.c ****         else
1313:.\Generated_Source\PSoC4/debugOut.c ****         {
1314:.\Generated_Source\PSoC4/debugOut.c ****             /* We only know there is data in the fifo. */
1315:.\Generated_Source\PSoC4/debugOut.c ****             size = 1u;
 673              		.loc 1 1315 0
 674 0032 FB1D     		add	r3, r7, #7
 675 0034 0122     		mov	r2, #1
 676 0036 1A70     		strb	r2, [r3]
 677              	.L50:
1316:.\Generated_Source\PSoC4/debugOut.c ****         }
ARM GAS  C:\Users\Jeppe\AppData\Local\Temp\ccAuc0tw.s 			page 36


1317:.\Generated_Source\PSoC4/debugOut.c **** 
1318:.\Generated_Source\PSoC4/debugOut.c ****     #endif /* (debugOut_TX_INTERRUPT_ENABLED) */
1319:.\Generated_Source\PSoC4/debugOut.c **** 
1320:.\Generated_Source\PSoC4/debugOut.c ****     return(size);
 678              		.loc 1 1320 0
 679 0038 FB1D     		add	r3, r7, #7
 680 003a 1B78     		ldrb	r3, [r3]
1321:.\Generated_Source\PSoC4/debugOut.c ****     }
 681              		.loc 1 1321 0
 682 003c 181C     		mov	r0, r3
 683 003e BD46     		mov	sp, r7
 684 0040 02B0     		add	sp, sp, #8
 685              		@ sp needed
 686 0042 80BD     		pop	{r7, pc}
 687              	.L54:
 688              		.align	2
 689              	.L53:
 690 0044 62000F40 		.word	1074724962
 691              		.cfi_endproc
 692              	.LFE13:
 693              		.size	debugOut_GetTxBufferSize, .-debugOut_GetTxBufferSize
 694              		.section	.text.debugOut_ClearTxBuffer,"ax",%progbits
 695              		.align	2
 696              		.global	debugOut_ClearTxBuffer
 697              		.code	16
 698              		.thumb_func
 699              		.type	debugOut_ClearTxBuffer, %function
 700              	debugOut_ClearTxBuffer:
 701              	.LFB14:
1322:.\Generated_Source\PSoC4/debugOut.c **** 
1323:.\Generated_Source\PSoC4/debugOut.c **** 
1324:.\Generated_Source\PSoC4/debugOut.c ****     /*******************************************************************************
1325:.\Generated_Source\PSoC4/debugOut.c ****     * Function Name: debugOut_ClearTxBuffer
1326:.\Generated_Source\PSoC4/debugOut.c ****     ********************************************************************************
1327:.\Generated_Source\PSoC4/debugOut.c ****     *
1328:.\Generated_Source\PSoC4/debugOut.c ****     * Summary:
1329:.\Generated_Source\PSoC4/debugOut.c ****     *  Clears all data from the TX buffer and hardware TX FIFO.
1330:.\Generated_Source\PSoC4/debugOut.c ****     *
1331:.\Generated_Source\PSoC4/debugOut.c ****     * Parameters:
1332:.\Generated_Source\PSoC4/debugOut.c ****     *  None.
1333:.\Generated_Source\PSoC4/debugOut.c ****     *
1334:.\Generated_Source\PSoC4/debugOut.c ****     * Return:
1335:.\Generated_Source\PSoC4/debugOut.c ****     *  None.
1336:.\Generated_Source\PSoC4/debugOut.c ****     *
1337:.\Generated_Source\PSoC4/debugOut.c ****     * Global Variables:
1338:.\Generated_Source\PSoC4/debugOut.c ****     *  debugOut_txBufferWrite - cleared to zero.
1339:.\Generated_Source\PSoC4/debugOut.c ****     *  debugOut_txBufferRead - cleared to zero.
1340:.\Generated_Source\PSoC4/debugOut.c ****     *
1341:.\Generated_Source\PSoC4/debugOut.c ****     * Reentrant:
1342:.\Generated_Source\PSoC4/debugOut.c ****     *  No.
1343:.\Generated_Source\PSoC4/debugOut.c ****     *
1344:.\Generated_Source\PSoC4/debugOut.c ****     * Theory:
1345:.\Generated_Source\PSoC4/debugOut.c ****     *  Setting the pointers to zero makes the system believe there is no data to
1346:.\Generated_Source\PSoC4/debugOut.c ****     *  read and writing will resume at address 0 overwriting any data that may have
1347:.\Generated_Source\PSoC4/debugOut.c ****     *  remained in the RAM.
1348:.\Generated_Source\PSoC4/debugOut.c ****     *
1349:.\Generated_Source\PSoC4/debugOut.c ****     * Side Effects:
ARM GAS  C:\Users\Jeppe\AppData\Local\Temp\ccAuc0tw.s 			page 37


1350:.\Generated_Source\PSoC4/debugOut.c ****     *  Data waiting in the transmit buffer is not sent; a byte that is currently
1351:.\Generated_Source\PSoC4/debugOut.c ****     *  transmitting finishes transmitting.
1352:.\Generated_Source\PSoC4/debugOut.c ****     *
1353:.\Generated_Source\PSoC4/debugOut.c ****     *******************************************************************************/
1354:.\Generated_Source\PSoC4/debugOut.c ****     void debugOut_ClearTxBuffer(void) 
1355:.\Generated_Source\PSoC4/debugOut.c ****     {
 702              		.loc 1 1355 0
 703              		.cfi_startproc
 704 0000 90B5     		push	{r4, r7, lr}
 705              		.cfi_def_cfa_offset 12
 706              		.cfi_offset 4, -12
 707              		.cfi_offset 7, -8
 708              		.cfi_offset 14, -4
 709 0002 83B0     		sub	sp, sp, #12
 710              		.cfi_def_cfa_offset 24
 711 0004 00AF     		add	r7, sp, #0
 712              		.cfi_def_cfa_register 7
1356:.\Generated_Source\PSoC4/debugOut.c ****         uint8 enableInterrupts;
1357:.\Generated_Source\PSoC4/debugOut.c **** 
1358:.\Generated_Source\PSoC4/debugOut.c ****         enableInterrupts = CyEnterCriticalSection();
 713              		.loc 1 1358 0
 714 0006 FC1D     		add	r4, r7, #7
 715 0008 FFF7FEFF 		bl	CyEnterCriticalSection
 716 000c 031C     		mov	r3, r0
 717 000e 2370     		strb	r3, [r4]
1359:.\Generated_Source\PSoC4/debugOut.c ****         /* Clear the HW FIFO */
1360:.\Generated_Source\PSoC4/debugOut.c ****         debugOut_TXDATA_AUX_CTL_REG |= (uint8)  debugOut_TX_FIFO_CLR;
 718              		.loc 1 1360 0
 719 0010 0B4B     		ldr	r3, .L56
 720 0012 0B4A     		ldr	r2, .L56
 721 0014 1278     		ldrb	r2, [r2]
 722 0016 D2B2     		uxtb	r2, r2
 723 0018 0121     		mov	r1, #1
 724 001a 0A43     		orr	r2, r1
 725 001c D2B2     		uxtb	r2, r2
 726 001e 1A70     		strb	r2, [r3]
1361:.\Generated_Source\PSoC4/debugOut.c ****         debugOut_TXDATA_AUX_CTL_REG &= (uint8) ~debugOut_TX_FIFO_CLR;
 727              		.loc 1 1361 0
 728 0020 074B     		ldr	r3, .L56
 729 0022 074A     		ldr	r2, .L56
 730 0024 1278     		ldrb	r2, [r2]
 731 0026 D2B2     		uxtb	r2, r2
 732 0028 0121     		mov	r1, #1
 733 002a 8A43     		bic	r2, r1
 734 002c D2B2     		uxtb	r2, r2
 735 002e 1A70     		strb	r2, [r3]
1362:.\Generated_Source\PSoC4/debugOut.c ****         CyExitCriticalSection(enableInterrupts);
 736              		.loc 1 1362 0
 737 0030 FB1D     		add	r3, r7, #7
 738 0032 1B78     		ldrb	r3, [r3]
 739 0034 181C     		mov	r0, r3
 740 0036 FFF7FEFF 		bl	CyExitCriticalSection
1363:.\Generated_Source\PSoC4/debugOut.c **** 
1364:.\Generated_Source\PSoC4/debugOut.c ****     #if (debugOut_TX_INTERRUPT_ENABLED)
1365:.\Generated_Source\PSoC4/debugOut.c **** 
1366:.\Generated_Source\PSoC4/debugOut.c ****         /* Protect variables that could change on interrupt. */
1367:.\Generated_Source\PSoC4/debugOut.c ****         debugOut_DisableTxInt();
ARM GAS  C:\Users\Jeppe\AppData\Local\Temp\ccAuc0tw.s 			page 38


1368:.\Generated_Source\PSoC4/debugOut.c **** 
1369:.\Generated_Source\PSoC4/debugOut.c ****         debugOut_txBufferRead = 0u;
1370:.\Generated_Source\PSoC4/debugOut.c ****         debugOut_txBufferWrite = 0u;
1371:.\Generated_Source\PSoC4/debugOut.c **** 
1372:.\Generated_Source\PSoC4/debugOut.c ****         /* Enable Tx interrupt. */
1373:.\Generated_Source\PSoC4/debugOut.c ****         debugOut_EnableTxInt();
1374:.\Generated_Source\PSoC4/debugOut.c **** 
1375:.\Generated_Source\PSoC4/debugOut.c ****     #endif /* (debugOut_TX_INTERRUPT_ENABLED) */
1376:.\Generated_Source\PSoC4/debugOut.c ****     }
 741              		.loc 1 1376 0
 742 003a BD46     		mov	sp, r7
 743 003c 03B0     		add	sp, sp, #12
 744              		@ sp needed
 745 003e 90BD     		pop	{r4, r7, pc}
 746              	.L57:
 747              		.align	2
 748              	.L56:
 749 0040 92000F40 		.word	1074725010
 750              		.cfi_endproc
 751              	.LFE14:
 752              		.size	debugOut_ClearTxBuffer, .-debugOut_ClearTxBuffer
 753              		.section	.text.debugOut_SendBreak,"ax",%progbits
 754              		.align	2
 755              		.global	debugOut_SendBreak
 756              		.code	16
 757              		.thumb_func
 758              		.type	debugOut_SendBreak, %function
 759              	debugOut_SendBreak:
 760              	.LFB15:
1377:.\Generated_Source\PSoC4/debugOut.c **** 
1378:.\Generated_Source\PSoC4/debugOut.c **** 
1379:.\Generated_Source\PSoC4/debugOut.c ****     /*******************************************************************************
1380:.\Generated_Source\PSoC4/debugOut.c ****     * Function Name: debugOut_SendBreak
1381:.\Generated_Source\PSoC4/debugOut.c ****     ********************************************************************************
1382:.\Generated_Source\PSoC4/debugOut.c ****     *
1383:.\Generated_Source\PSoC4/debugOut.c ****     * Summary:
1384:.\Generated_Source\PSoC4/debugOut.c ****     *  Transmits a break signal on the bus.
1385:.\Generated_Source\PSoC4/debugOut.c ****     *
1386:.\Generated_Source\PSoC4/debugOut.c ****     * Parameters:
1387:.\Generated_Source\PSoC4/debugOut.c ****     *  uint8 retMode:  Send Break return mode. See the following table for options.
1388:.\Generated_Source\PSoC4/debugOut.c ****     *   debugOut_SEND_BREAK - Initialize registers for break, send the Break
1389:.\Generated_Source\PSoC4/debugOut.c ****     *       signal and return immediately.
1390:.\Generated_Source\PSoC4/debugOut.c ****     *   debugOut_WAIT_FOR_COMPLETE_REINIT - Wait until break transmission is
1391:.\Generated_Source\PSoC4/debugOut.c ****     *       complete, reinitialize registers to normal transmission mode then return
1392:.\Generated_Source\PSoC4/debugOut.c ****     *   debugOut_REINIT - Reinitialize registers to normal transmission mode
1393:.\Generated_Source\PSoC4/debugOut.c ****     *       then return.
1394:.\Generated_Source\PSoC4/debugOut.c ****     *   debugOut_SEND_WAIT_REINIT - Performs both options: 
1395:.\Generated_Source\PSoC4/debugOut.c ****     *      debugOut_SEND_BREAK and debugOut_WAIT_FOR_COMPLETE_REINIT.
1396:.\Generated_Source\PSoC4/debugOut.c ****     *      This option is recommended for most cases.
1397:.\Generated_Source\PSoC4/debugOut.c ****     *
1398:.\Generated_Source\PSoC4/debugOut.c ****     * Return:
1399:.\Generated_Source\PSoC4/debugOut.c ****     *  None.
1400:.\Generated_Source\PSoC4/debugOut.c ****     *
1401:.\Generated_Source\PSoC4/debugOut.c ****     * Global Variables:
1402:.\Generated_Source\PSoC4/debugOut.c ****     *  debugOut_initVar - checked to identify that the component has been
1403:.\Generated_Source\PSoC4/debugOut.c ****     *     initialized.
1404:.\Generated_Source\PSoC4/debugOut.c ****     *  txPeriod - static variable, used for keeping TX period configuration.
ARM GAS  C:\Users\Jeppe\AppData\Local\Temp\ccAuc0tw.s 			page 39


1405:.\Generated_Source\PSoC4/debugOut.c ****     *
1406:.\Generated_Source\PSoC4/debugOut.c ****     * Reentrant:
1407:.\Generated_Source\PSoC4/debugOut.c ****     *  No.
1408:.\Generated_Source\PSoC4/debugOut.c ****     *
1409:.\Generated_Source\PSoC4/debugOut.c ****     * Theory:
1410:.\Generated_Source\PSoC4/debugOut.c ****     *  SendBreak function initializes registers to send 13-bit break signal. It is
1411:.\Generated_Source\PSoC4/debugOut.c ****     *  important to return the registers configuration to normal for continue 8-bit
1412:.\Generated_Source\PSoC4/debugOut.c ****     *  operation.
1413:.\Generated_Source\PSoC4/debugOut.c ****     *  There are 3 variants for this API usage:
1414:.\Generated_Source\PSoC4/debugOut.c ****     *  1) SendBreak(3) - function will send the Break signal and take care on the
1415:.\Generated_Source\PSoC4/debugOut.c ****     *     configuration returning. Function will block CPU until transmission
1416:.\Generated_Source\PSoC4/debugOut.c ****     *     complete.
1417:.\Generated_Source\PSoC4/debugOut.c ****     *  2) User may want to use blocking time if UART configured to the low speed
1418:.\Generated_Source\PSoC4/debugOut.c ****     *     operation
1419:.\Generated_Source\PSoC4/debugOut.c ****     *     Example for this case:
1420:.\Generated_Source\PSoC4/debugOut.c ****     *     SendBreak(0);     - initialize Break signal transmission
1421:.\Generated_Source\PSoC4/debugOut.c ****     *         Add your code here to use CPU time
1422:.\Generated_Source\PSoC4/debugOut.c ****     *     SendBreak(1);     - complete Break operation
1423:.\Generated_Source\PSoC4/debugOut.c ****     *  3) Same to 2) but user may want to initialize and use the interrupt to
1424:.\Generated_Source\PSoC4/debugOut.c ****     *     complete break operation.
1425:.\Generated_Source\PSoC4/debugOut.c ****     *     Example for this case:
1426:.\Generated_Source\PSoC4/debugOut.c ****     *     Initialize TX interrupt with "TX - On TX Complete" parameter
1427:.\Generated_Source\PSoC4/debugOut.c ****     *     SendBreak(0);     - initialize Break signal transmission
1428:.\Generated_Source\PSoC4/debugOut.c ****     *         Add your code here to use CPU time
1429:.\Generated_Source\PSoC4/debugOut.c ****     *     When interrupt appear with debugOut_TX_STS_COMPLETE status:
1430:.\Generated_Source\PSoC4/debugOut.c ****     *     SendBreak(2);     - complete Break operation
1431:.\Generated_Source\PSoC4/debugOut.c ****     *
1432:.\Generated_Source\PSoC4/debugOut.c ****     * Side Effects:
1433:.\Generated_Source\PSoC4/debugOut.c ****     *  The debugOut_SendBreak() function initializes registers to send a
1434:.\Generated_Source\PSoC4/debugOut.c ****     *  break signal.
1435:.\Generated_Source\PSoC4/debugOut.c ****     *  Break signal length depends on the break signal bits configuration.
1436:.\Generated_Source\PSoC4/debugOut.c ****     *  The register configuration should be reinitialized before normal 8-bit
1437:.\Generated_Source\PSoC4/debugOut.c ****     *  communication can continue.
1438:.\Generated_Source\PSoC4/debugOut.c ****     *
1439:.\Generated_Source\PSoC4/debugOut.c ****     *******************************************************************************/
1440:.\Generated_Source\PSoC4/debugOut.c ****     void debugOut_SendBreak(uint8 retMode) 
1441:.\Generated_Source\PSoC4/debugOut.c ****     {
 761              		.loc 1 1441 0
 762              		.cfi_startproc
 763 0000 80B5     		push	{r7, lr}
 764              		.cfi_def_cfa_offset 8
 765              		.cfi_offset 7, -8
 766              		.cfi_offset 14, -4
 767 0002 84B0     		sub	sp, sp, #16
 768              		.cfi_def_cfa_offset 24
 769 0004 00AF     		add	r7, sp, #0
 770              		.cfi_def_cfa_register 7
 771 0006 021C     		mov	r2, r0
 772 0008 FB1D     		add	r3, r7, #7
 773 000a 1A70     		strb	r2, [r3]
1442:.\Generated_Source\PSoC4/debugOut.c **** 
1443:.\Generated_Source\PSoC4/debugOut.c ****         /* If not Initialized then skip this function*/
1444:.\Generated_Source\PSoC4/debugOut.c ****         if(debugOut_initVar != 0u)
 774              		.loc 1 1444 0
 775 000c 254B     		ldr	r3, .L66
 776 000e 1B78     		ldrb	r3, [r3]
 777 0010 002B     		cmp	r3, #0
ARM GAS  C:\Users\Jeppe\AppData\Local\Temp\ccAuc0tw.s 			page 40


 778 0012 43D0     		beq	.L58
 779              	.LBB2:
1445:.\Generated_Source\PSoC4/debugOut.c ****         {
1446:.\Generated_Source\PSoC4/debugOut.c ****             /* Set the Counter to 13-bits and transmit a 00 byte */
1447:.\Generated_Source\PSoC4/debugOut.c ****             /* When that is done then reset the counter value back */
1448:.\Generated_Source\PSoC4/debugOut.c ****             uint8 tmpStat;
1449:.\Generated_Source\PSoC4/debugOut.c **** 
1450:.\Generated_Source\PSoC4/debugOut.c ****         #if(debugOut_HD_ENABLED) /* Half Duplex mode*/
1451:.\Generated_Source\PSoC4/debugOut.c **** 
1452:.\Generated_Source\PSoC4/debugOut.c ****             if( (retMode == debugOut_SEND_BREAK) ||
1453:.\Generated_Source\PSoC4/debugOut.c ****                 (retMode == debugOut_SEND_WAIT_REINIT ) )
1454:.\Generated_Source\PSoC4/debugOut.c ****             {
1455:.\Generated_Source\PSoC4/debugOut.c ****                 /* CTRL_HD_SEND_BREAK - sends break bits in HD mode */
1456:.\Generated_Source\PSoC4/debugOut.c ****                 debugOut_WriteControlRegister(debugOut_ReadControlRegister() |
1457:.\Generated_Source\PSoC4/debugOut.c ****                                                       debugOut_CTRL_HD_SEND_BREAK);
1458:.\Generated_Source\PSoC4/debugOut.c ****                 /* Send zeros */
1459:.\Generated_Source\PSoC4/debugOut.c ****                 debugOut_TXDATA_REG = 0u;
1460:.\Generated_Source\PSoC4/debugOut.c **** 
1461:.\Generated_Source\PSoC4/debugOut.c ****                 do /* Wait until transmit starts */
1462:.\Generated_Source\PSoC4/debugOut.c ****                 {
1463:.\Generated_Source\PSoC4/debugOut.c ****                     tmpStat = debugOut_TXSTATUS_REG;
1464:.\Generated_Source\PSoC4/debugOut.c ****                 }
1465:.\Generated_Source\PSoC4/debugOut.c ****                 while((tmpStat & debugOut_TX_STS_FIFO_EMPTY) != 0u);
1466:.\Generated_Source\PSoC4/debugOut.c ****             }
1467:.\Generated_Source\PSoC4/debugOut.c **** 
1468:.\Generated_Source\PSoC4/debugOut.c ****             if( (retMode == debugOut_WAIT_FOR_COMPLETE_REINIT) ||
1469:.\Generated_Source\PSoC4/debugOut.c ****                 (retMode == debugOut_SEND_WAIT_REINIT) )
1470:.\Generated_Source\PSoC4/debugOut.c ****             {
1471:.\Generated_Source\PSoC4/debugOut.c ****                 do /* Wait until transmit complete */
1472:.\Generated_Source\PSoC4/debugOut.c ****                 {
1473:.\Generated_Source\PSoC4/debugOut.c ****                     tmpStat = debugOut_TXSTATUS_REG;
1474:.\Generated_Source\PSoC4/debugOut.c ****                 }
1475:.\Generated_Source\PSoC4/debugOut.c ****                 while(((uint8)~tmpStat & debugOut_TX_STS_COMPLETE) != 0u);
1476:.\Generated_Source\PSoC4/debugOut.c ****             }
1477:.\Generated_Source\PSoC4/debugOut.c **** 
1478:.\Generated_Source\PSoC4/debugOut.c ****             if( (retMode == debugOut_WAIT_FOR_COMPLETE_REINIT) ||
1479:.\Generated_Source\PSoC4/debugOut.c ****                 (retMode == debugOut_REINIT) ||
1480:.\Generated_Source\PSoC4/debugOut.c ****                 (retMode == debugOut_SEND_WAIT_REINIT) )
1481:.\Generated_Source\PSoC4/debugOut.c ****             {
1482:.\Generated_Source\PSoC4/debugOut.c ****                 debugOut_WriteControlRegister(debugOut_ReadControlRegister() &
1483:.\Generated_Source\PSoC4/debugOut.c ****                                               (uint8)~debugOut_CTRL_HD_SEND_BREAK);
1484:.\Generated_Source\PSoC4/debugOut.c ****             }
1485:.\Generated_Source\PSoC4/debugOut.c **** 
1486:.\Generated_Source\PSoC4/debugOut.c ****         #else /* debugOut_HD_ENABLED Full Duplex mode */
1487:.\Generated_Source\PSoC4/debugOut.c **** 
1488:.\Generated_Source\PSoC4/debugOut.c ****             static uint8 txPeriod;
1489:.\Generated_Source\PSoC4/debugOut.c **** 
1490:.\Generated_Source\PSoC4/debugOut.c ****             if( (retMode == debugOut_SEND_BREAK) ||
 780              		.loc 1 1490 0
 781 0014 FB1D     		add	r3, r7, #7
 782 0016 1B78     		ldrb	r3, [r3]
 783 0018 002B     		cmp	r3, #0
 784 001a 03D0     		beq	.L60
 785              		.loc 1 1490 0 is_stmt 0 discriminator 1
 786 001c FB1D     		add	r3, r7, #7
 787 001e 1B78     		ldrb	r3, [r3]
 788 0020 032B     		cmp	r3, #3
ARM GAS  C:\Users\Jeppe\AppData\Local\Temp\ccAuc0tw.s 			page 41


 789 0022 15D1     		bne	.L61
 790              	.L60:
1491:.\Generated_Source\PSoC4/debugOut.c ****                 (retMode == debugOut_SEND_WAIT_REINIT) )
1492:.\Generated_Source\PSoC4/debugOut.c ****             {
1493:.\Generated_Source\PSoC4/debugOut.c ****                 /* CTRL_HD_SEND_BREAK - skip to send parity bit at Break signal in Full Duplex mode
1494:.\Generated_Source\PSoC4/debugOut.c ****                 #if( (debugOut_PARITY_TYPE != debugOut__B_UART__NONE_REVB) || \
1495:.\Generated_Source\PSoC4/debugOut.c ****                                     (debugOut_PARITY_TYPE_SW != 0u) )
1496:.\Generated_Source\PSoC4/debugOut.c ****                     debugOut_WriteControlRegister(debugOut_ReadControlRegister() |
1497:.\Generated_Source\PSoC4/debugOut.c ****                                                           debugOut_CTRL_HD_SEND_BREAK);
1498:.\Generated_Source\PSoC4/debugOut.c ****                 #endif /* End debugOut_PARITY_TYPE != debugOut__B_UART__NONE_REVB  */
1499:.\Generated_Source\PSoC4/debugOut.c **** 
1500:.\Generated_Source\PSoC4/debugOut.c ****                 #if(debugOut_TXCLKGEN_DP)
1501:.\Generated_Source\PSoC4/debugOut.c ****                     txPeriod = debugOut_TXBITCLKTX_COMPLETE_REG;
 791              		.loc 1 1501 0 is_stmt 1
 792 0024 204B     		ldr	r3, .L66+4
 793 0026 1B78     		ldrb	r3, [r3]
 794 0028 DAB2     		uxtb	r2, r3
 795 002a 204B     		ldr	r3, .L66+8
 796 002c 1A70     		strb	r2, [r3]
1502:.\Generated_Source\PSoC4/debugOut.c ****                     debugOut_TXBITCLKTX_COMPLETE_REG = debugOut_TXBITCTR_BREAKBITS;
 797              		.loc 1 1502 0
 798 002e 1E4B     		ldr	r3, .L66+4
 799 0030 6722     		mov	r2, #103
 800 0032 1A70     		strb	r2, [r3]
1503:.\Generated_Source\PSoC4/debugOut.c ****                 #else
1504:.\Generated_Source\PSoC4/debugOut.c ****                     txPeriod = debugOut_TXBITCTR_PERIOD_REG;
1505:.\Generated_Source\PSoC4/debugOut.c ****                     debugOut_TXBITCTR_PERIOD_REG = debugOut_TXBITCTR_BREAKBITS8X;
1506:.\Generated_Source\PSoC4/debugOut.c ****                 #endif /* End debugOut_TXCLKGEN_DP */
1507:.\Generated_Source\PSoC4/debugOut.c **** 
1508:.\Generated_Source\PSoC4/debugOut.c ****                 /* Send zeros */
1509:.\Generated_Source\PSoC4/debugOut.c ****                 debugOut_TXDATA_REG = 0u;
 801              		.loc 1 1509 0
 802 0034 1E4B     		ldr	r3, .L66+12
 803 0036 0022     		mov	r2, #0
 804 0038 1A70     		strb	r2, [r3]
 805              	.L62:
1510:.\Generated_Source\PSoC4/debugOut.c **** 
1511:.\Generated_Source\PSoC4/debugOut.c ****                 do /* Wait until transmit starts */
1512:.\Generated_Source\PSoC4/debugOut.c ****                 {
1513:.\Generated_Source\PSoC4/debugOut.c ****                     tmpStat = debugOut_TXSTATUS_REG;
 806              		.loc 1 1513 0 discriminator 1
 807 003a 1E4A     		ldr	r2, .L66+16
 808 003c 3B1C     		mov	r3, r7
 809 003e 0F33     		add	r3, r3, #15
 810 0040 1278     		ldrb	r2, [r2]
 811 0042 1A70     		strb	r2, [r3]
1514:.\Generated_Source\PSoC4/debugOut.c ****                 }
1515:.\Generated_Source\PSoC4/debugOut.c ****                 while((tmpStat & debugOut_TX_STS_FIFO_EMPTY) != 0u);
 812              		.loc 1 1515 0 discriminator 1
 813 0044 3B1C     		mov	r3, r7
 814 0046 0F33     		add	r3, r3, #15
 815 0048 1A78     		ldrb	r2, [r3]
 816 004a 0223     		mov	r3, #2
 817 004c 1340     		and	r3, r2
 818 004e F4D1     		bne	.L62
 819              	.L61:
1516:.\Generated_Source\PSoC4/debugOut.c ****             }
ARM GAS  C:\Users\Jeppe\AppData\Local\Temp\ccAuc0tw.s 			page 42


1517:.\Generated_Source\PSoC4/debugOut.c **** 
1518:.\Generated_Source\PSoC4/debugOut.c ****             if( (retMode == debugOut_WAIT_FOR_COMPLETE_REINIT) ||
 820              		.loc 1 1518 0
 821 0050 FB1D     		add	r3, r7, #7
 822 0052 1B78     		ldrb	r3, [r3]
 823 0054 012B     		cmp	r3, #1
 824 0056 03D0     		beq	.L63
 825              		.loc 1 1518 0 is_stmt 0 discriminator 1
 826 0058 FB1D     		add	r3, r7, #7
 827 005a 1B78     		ldrb	r3, [r3]
 828 005c 032B     		cmp	r3, #3
 829 005e 0DD1     		bne	.L64
 830              	.L63:
1519:.\Generated_Source\PSoC4/debugOut.c ****                 (retMode == debugOut_SEND_WAIT_REINIT) )
1520:.\Generated_Source\PSoC4/debugOut.c ****             {
1521:.\Generated_Source\PSoC4/debugOut.c ****                 do /* Wait until transmit complete */
1522:.\Generated_Source\PSoC4/debugOut.c ****                 {
1523:.\Generated_Source\PSoC4/debugOut.c ****                     tmpStat = debugOut_TXSTATUS_REG;
 831              		.loc 1 1523 0 is_stmt 1 discriminator 1
 832 0060 144A     		ldr	r2, .L66+16
 833 0062 3B1C     		mov	r3, r7
 834 0064 0F33     		add	r3, r3, #15
 835 0066 1278     		ldrb	r2, [r2]
 836 0068 1A70     		strb	r2, [r3]
1524:.\Generated_Source\PSoC4/debugOut.c ****                 }
1525:.\Generated_Source\PSoC4/debugOut.c ****                 while(((uint8)~tmpStat & debugOut_TX_STS_COMPLETE) != 0u);
 837              		.loc 1 1525 0 discriminator 1
 838 006a 3B1C     		mov	r3, r7
 839 006c 0F33     		add	r3, r3, #15
 840 006e 1B78     		ldrb	r3, [r3]
 841 0070 DB43     		mvn	r3, r3
 842 0072 DBB2     		uxtb	r3, r3
 843 0074 1A1C     		mov	r2, r3
 844 0076 0123     		mov	r3, #1
 845 0078 1340     		and	r3, r2
 846 007a F1D1     		bne	.L63
 847              	.L64:
1526:.\Generated_Source\PSoC4/debugOut.c ****             }
1527:.\Generated_Source\PSoC4/debugOut.c **** 
1528:.\Generated_Source\PSoC4/debugOut.c ****             if( (retMode == debugOut_WAIT_FOR_COMPLETE_REINIT) ||
 848              		.loc 1 1528 0
 849 007c FB1D     		add	r3, r7, #7
 850 007e 1B78     		ldrb	r3, [r3]
 851 0080 012B     		cmp	r3, #1
 852 0082 07D0     		beq	.L65
 853              		.loc 1 1528 0 is_stmt 0 discriminator 1
 854 0084 FB1D     		add	r3, r7, #7
 855 0086 1B78     		ldrb	r3, [r3]
 856 0088 022B     		cmp	r3, #2
 857 008a 03D0     		beq	.L65
1529:.\Generated_Source\PSoC4/debugOut.c ****                 (retMode == debugOut_REINIT) ||
 858              		.loc 1 1529 0 is_stmt 1
 859 008c FB1D     		add	r3, r7, #7
 860 008e 1B78     		ldrb	r3, [r3]
 861 0090 032B     		cmp	r3, #3
 862 0092 03D1     		bne	.L58
 863              	.L65:
ARM GAS  C:\Users\Jeppe\AppData\Local\Temp\ccAuc0tw.s 			page 43


1530:.\Generated_Source\PSoC4/debugOut.c ****                 (retMode == debugOut_SEND_WAIT_REINIT) )
1531:.\Generated_Source\PSoC4/debugOut.c ****             {
1532:.\Generated_Source\PSoC4/debugOut.c **** 
1533:.\Generated_Source\PSoC4/debugOut.c ****             #if(debugOut_TXCLKGEN_DP)
1534:.\Generated_Source\PSoC4/debugOut.c ****                 debugOut_TXBITCLKTX_COMPLETE_REG = txPeriod;
 864              		.loc 1 1534 0
 865 0094 044B     		ldr	r3, .L66+4
 866 0096 054A     		ldr	r2, .L66+8
 867 0098 1278     		ldrb	r2, [r2]
 868 009a 1A70     		strb	r2, [r3]
 869              	.L58:
 870              	.LBE2:
1535:.\Generated_Source\PSoC4/debugOut.c ****             #else
1536:.\Generated_Source\PSoC4/debugOut.c ****                 debugOut_TXBITCTR_PERIOD_REG = txPeriod;
1537:.\Generated_Source\PSoC4/debugOut.c ****             #endif /* End debugOut_TXCLKGEN_DP */
1538:.\Generated_Source\PSoC4/debugOut.c **** 
1539:.\Generated_Source\PSoC4/debugOut.c ****             #if( (debugOut_PARITY_TYPE != debugOut__B_UART__NONE_REVB) || \
1540:.\Generated_Source\PSoC4/debugOut.c ****                  (debugOut_PARITY_TYPE_SW != 0u) )
1541:.\Generated_Source\PSoC4/debugOut.c ****                 debugOut_WriteControlRegister(debugOut_ReadControlRegister() &
1542:.\Generated_Source\PSoC4/debugOut.c ****                                                       (uint8) ~debugOut_CTRL_HD_SEND_BREAK);
1543:.\Generated_Source\PSoC4/debugOut.c ****             #endif /* End debugOut_PARITY_TYPE != NONE */
1544:.\Generated_Source\PSoC4/debugOut.c ****             }
1545:.\Generated_Source\PSoC4/debugOut.c ****         #endif    /* End debugOut_HD_ENABLED */
1546:.\Generated_Source\PSoC4/debugOut.c ****         }
1547:.\Generated_Source\PSoC4/debugOut.c ****     }
 871              		.loc 1 1547 0
 872 009c BD46     		mov	sp, r7
 873 009e 04B0     		add	sp, sp, #16
 874              		@ sp needed
 875 00a0 80BD     		pop	{r7, pc}
 876              	.L67:
 877 00a2 C046     		.align	2
 878              	.L66:
 879 00a4 00000000 		.word	debugOut_initVar
 880 00a8 31000F40 		.word	1074724913
 881 00ac 01000000 		.word	txPeriod.4771
 882 00b0 42000F40 		.word	1074724930
 883 00b4 62000F40 		.word	1074724962
 884              		.cfi_endproc
 885              	.LFE15:
 886              		.size	debugOut_SendBreak, .-debugOut_SendBreak
 887              		.section	.text.debugOut_SetTxAddressMode,"ax",%progbits
 888              		.align	2
 889              		.global	debugOut_SetTxAddressMode
 890              		.code	16
 891              		.thumb_func
 892              		.type	debugOut_SetTxAddressMode, %function
 893              	debugOut_SetTxAddressMode:
 894              	.LFB16:
1548:.\Generated_Source\PSoC4/debugOut.c **** 
1549:.\Generated_Source\PSoC4/debugOut.c **** 
1550:.\Generated_Source\PSoC4/debugOut.c ****     /*******************************************************************************
1551:.\Generated_Source\PSoC4/debugOut.c ****     * Function Name: debugOut_SetTxAddressMode
1552:.\Generated_Source\PSoC4/debugOut.c ****     ********************************************************************************
1553:.\Generated_Source\PSoC4/debugOut.c ****     *
1554:.\Generated_Source\PSoC4/debugOut.c ****     * Summary:
1555:.\Generated_Source\PSoC4/debugOut.c ****     *  Configures the transmitter to signal the next bytes is address or data.
ARM GAS  C:\Users\Jeppe\AppData\Local\Temp\ccAuc0tw.s 			page 44


1556:.\Generated_Source\PSoC4/debugOut.c ****     *
1557:.\Generated_Source\PSoC4/debugOut.c ****     * Parameters:
1558:.\Generated_Source\PSoC4/debugOut.c ****     *  addressMode: 
1559:.\Generated_Source\PSoC4/debugOut.c ****     *       debugOut_SET_SPACE - Configure the transmitter to send the next
1560:.\Generated_Source\PSoC4/debugOut.c ****     *                                    byte as a data.
1561:.\Generated_Source\PSoC4/debugOut.c ****     *       debugOut_SET_MARK  - Configure the transmitter to send the next
1562:.\Generated_Source\PSoC4/debugOut.c ****     *                                    byte as an address.
1563:.\Generated_Source\PSoC4/debugOut.c ****     *
1564:.\Generated_Source\PSoC4/debugOut.c ****     * Return:
1565:.\Generated_Source\PSoC4/debugOut.c ****     *  None.
1566:.\Generated_Source\PSoC4/debugOut.c ****     *
1567:.\Generated_Source\PSoC4/debugOut.c ****     * Side Effects:
1568:.\Generated_Source\PSoC4/debugOut.c ****     *  This function sets and clears debugOut_CTRL_MARK bit in the Control
1569:.\Generated_Source\PSoC4/debugOut.c ****     *  register.
1570:.\Generated_Source\PSoC4/debugOut.c ****     *
1571:.\Generated_Source\PSoC4/debugOut.c ****     *******************************************************************************/
1572:.\Generated_Source\PSoC4/debugOut.c ****     void debugOut_SetTxAddressMode(uint8 addressMode) 
1573:.\Generated_Source\PSoC4/debugOut.c ****     {
 895              		.loc 1 1573 0
 896              		.cfi_startproc
 897 0000 80B5     		push	{r7, lr}
 898              		.cfi_def_cfa_offset 8
 899              		.cfi_offset 7, -8
 900              		.cfi_offset 14, -4
 901 0002 82B0     		sub	sp, sp, #8
 902              		.cfi_def_cfa_offset 16
 903 0004 00AF     		add	r7, sp, #0
 904              		.cfi_def_cfa_register 7
 905 0006 021C     		mov	r2, r0
 906 0008 FB1D     		add	r3, r7, #7
 907 000a 1A70     		strb	r2, [r3]
1574:.\Generated_Source\PSoC4/debugOut.c ****         /* Mark/Space sending enable */
1575:.\Generated_Source\PSoC4/debugOut.c ****         if(addressMode != 0u)
1576:.\Generated_Source\PSoC4/debugOut.c ****         {
1577:.\Generated_Source\PSoC4/debugOut.c ****         #if( debugOut_CONTROL_REG_REMOVED == 0u )
1578:.\Generated_Source\PSoC4/debugOut.c ****             debugOut_WriteControlRegister(debugOut_ReadControlRegister() |
1579:.\Generated_Source\PSoC4/debugOut.c ****                                                   debugOut_CTRL_MARK);
1580:.\Generated_Source\PSoC4/debugOut.c ****         #endif /* End debugOut_CONTROL_REG_REMOVED == 0u */
1581:.\Generated_Source\PSoC4/debugOut.c ****         }
1582:.\Generated_Source\PSoC4/debugOut.c ****         else
1583:.\Generated_Source\PSoC4/debugOut.c ****         {
1584:.\Generated_Source\PSoC4/debugOut.c ****         #if( debugOut_CONTROL_REG_REMOVED == 0u )
1585:.\Generated_Source\PSoC4/debugOut.c ****             debugOut_WriteControlRegister(debugOut_ReadControlRegister() &
1586:.\Generated_Source\PSoC4/debugOut.c ****                                                   (uint8) ~debugOut_CTRL_MARK);
1587:.\Generated_Source\PSoC4/debugOut.c ****         #endif /* End debugOut_CONTROL_REG_REMOVED == 0u */
1588:.\Generated_Source\PSoC4/debugOut.c ****         }
1589:.\Generated_Source\PSoC4/debugOut.c ****     }
 908              		.loc 1 1589 0
 909 000c BD46     		mov	sp, r7
 910 000e 02B0     		add	sp, sp, #8
 911              		@ sp needed
 912 0010 80BD     		pop	{r7, pc}
 913              		.cfi_endproc
 914              	.LFE16:
 915              		.size	debugOut_SetTxAddressMode, .-debugOut_SetTxAddressMode
 916 0012 C046     		.bss
 917              	txPeriod.4771:
ARM GAS  C:\Users\Jeppe\AppData\Local\Temp\ccAuc0tw.s 			page 45


 918 0001 00       		.space	1
 919              		.text
 920              	.Letext0:
 921              		.file 2 ".\\Generated_Source\\PSoC4\\cytypes.h"