ARM GAS  C:\Users\Jeppe\AppData\Local\Temp\cc2XjnGw.s 			page 1


   1              		.cpu cortex-m0
   2              		.fpu softvfp
   3              		.eabi_attribute 20, 1
   4              		.eabi_attribute 21, 1
   5              		.eabi_attribute 23, 3
   6              		.eabi_attribute 24, 1
   7              		.eabi_attribute 25, 1
   8              		.eabi_attribute 26, 1
   9              		.eabi_attribute 30, 6
  10              		.eabi_attribute 34, 0
  11              		.eabi_attribute 18, 4
  12              		.code	16
  13              		.file	"fixedMath.c"
  14              		.text
  15              	.Ltext0:
  16              		.cfi_sections	.debug_frame
  17              		.global	cordic_ctab
  18              		.data
  19              		.align	2
  20              		.type	cordic_ctab, %object
  21              		.size	cordic_ctab, 72
  22              	cordic_ctab:
  23 0000 0FC90000 		.word	51471
  24 0004 B1760000 		.word	30385
  25 0008 B63E0000 		.word	16054
  26 000c D51F0000 		.word	8149
  27 0010 FA0F0000 		.word	4090
  28 0014 FF070000 		.word	2047
  29 0018 FF030000 		.word	1023
  30 001c FF010000 		.word	511
  31 0020 FF000000 		.word	255
  32 0024 7F000000 		.word	127
  33 0028 3F000000 		.word	63
  34 002c 1F000000 		.word	31
  35 0030 0F000000 		.word	15
  36 0034 07000000 		.word	7
  37 0038 03000000 		.word	3
  38 003c 01000000 		.word	1
  39 0040 00000000 		.word	0
  40 0044 00000000 		.word	0
  41              		.section	.text.fix16abs,"ax",%progbits
  42              		.align	2
  43              		.global	fix16abs
  44              		.code	16
  45              		.thumb_func
  46              		.type	fix16abs, %function
  47              	fix16abs:
  48              	.LFB33:
  49              		.file 1 ".\\fixedMath.c"
   1:.\fixedMath.c **** /* ========================================
   2:.\fixedMath.c ****  *
   3:.\fixedMath.c ****  * Copyright YOUR COMPANY, THE YEAR
   4:.\fixedMath.c ****  * All Rights Reserved
   5:.\fixedMath.c ****  * UNPUBLISHED, LICENSED SOFTWARE.
   6:.\fixedMath.c ****  *
   7:.\fixedMath.c ****  * CONFIDENTIAL AND PROPRIETARY INFORMATION
   8:.\fixedMath.c ****  * WHICH IS THE PROPERTY OF your company.
ARM GAS  C:\Users\Jeppe\AppData\Local\Temp\cc2XjnGw.s 			page 2


   9:.\fixedMath.c ****  *
  10:.\fixedMath.c ****  * ========================================
  11:.\fixedMath.c **** */
  12:.\fixedMath.c **** 
  13:.\fixedMath.c **** #include "fixedMath.h"
  14:.\fixedMath.c **** #include "stdlib.h"
  15:.\fixedMath.c **** 
  16:.\fixedMath.c **** //atan2 defines
  17:.\fixedMath.c **** #define COEFF1  51472  // pi/4 * 2^16
  18:.\fixedMath.c **** #define COEFF2 154416  // COEFF1 * 3
  19:.\fixedMath.c **** 
  20:.\fixedMath.c **** //cordic defines
  21:.\fixedMath.c **** // 1.0 = 65536
  22:.\fixedMath.c **** // 1/k = 0.6072529350088812561694
  23:.\fixedMath.c **** // pi = 3.1415926536897932384626
  24:.\fixedMath.c **** //Constants
  25:.\fixedMath.c **** #define cordic_1K 0x00009B74
  26:.\fixedMath.c **** #define MUL 65536.000000
  27:.\fixedMath.c **** #define CORDIC_NTAB 18
  28:.\fixedMath.c **** int cordic_ctab [] = {0x0000C90F, 0x000076B1, 0x00003EB6, 0x00001FD5, 0x00000FFA,
  29:.\fixedMath.c ****                     0x000007FF, 0x000003FF, 0x000001FF, 0x000000FF, 0x0000007F, 
  30:.\fixedMath.c ****                     0x0000003F, 0x0000001F, 0x0000000F, 0x00000007, 0x00000003, 
  31:.\fixedMath.c ****                     0x00000001, 0x00000000, 0x00000000, };
  32:.\fixedMath.c **** 
  33:.\fixedMath.c **** fix16_t fix16abs(fix16_t a)
  34:.\fixedMath.c **** {
  50              		.loc 1 34 0
  51              		.cfi_startproc
  52 0000 80B5     		push	{r7, lr}
  53              		.cfi_def_cfa_offset 8
  54              		.cfi_offset 7, -8
  55              		.cfi_offset 14, -4
  56 0002 82B0     		sub	sp, sp, #8
  57              		.cfi_def_cfa_offset 16
  58 0004 00AF     		add	r7, sp, #0
  59              		.cfi_def_cfa_register 7
  60 0006 7860     		str	r0, [r7, #4]
  35:.\fixedMath.c ****     if(a < 0) return -a; 
  61              		.loc 1 35 0
  62 0008 7B68     		ldr	r3, [r7, #4]
  63 000a 002B     		cmp	r3, #0
  64 000c 02DA     		bge	.L2
  65              		.loc 1 35 0 is_stmt 0 discriminator 1
  66 000e 7B68     		ldr	r3, [r7, #4]
  67 0010 5B42     		neg	r3, r3
  68 0012 00E0     		b	.L3
  69              	.L2:
  36:.\fixedMath.c ****     else return a;
  70              		.loc 1 36 0 is_stmt 1
  71 0014 7B68     		ldr	r3, [r7, #4]
  72              	.L3:
  37:.\fixedMath.c **** }
  73              		.loc 1 37 0
  74 0016 181C     		mov	r0, r3
  75 0018 BD46     		mov	sp, r7
  76 001a 02B0     		add	sp, sp, #8
  77              		@ sp needed
ARM GAS  C:\Users\Jeppe\AppData\Local\Temp\cc2XjnGw.s 			page 3


  78 001c 80BD     		pop	{r7, pc}
  79              		.cfi_endproc
  80              	.LFE33:
  81              		.size	fix16abs, .-fix16abs
  82              		.global	__aeabi_lmul
  83 001e C046     		.section	.text.fix16mul,"ax",%progbits
  84              		.align	2
  85              		.global	fix16mul
  86              		.code	16
  87              		.thumb_func
  88              		.type	fix16mul, %function
  89              	fix16mul:
  90              	.LFB34:
  38:.\fixedMath.c **** 
  39:.\fixedMath.c **** fix16_t fix16mul(fix16_t a, fix16_t b)
  40:.\fixedMath.c **** {
  91              		.loc 1 40 0
  92              		.cfi_startproc
  93 0000 B0B5     		push	{r4, r5, r7, lr}
  94              		.cfi_def_cfa_offset 16
  95              		.cfi_offset 4, -16
  96              		.cfi_offset 5, -12
  97              		.cfi_offset 7, -8
  98              		.cfi_offset 14, -4
  99 0002 84B0     		sub	sp, sp, #16
 100              		.cfi_def_cfa_offset 32
 101 0004 00AF     		add	r7, sp, #0
 102              		.cfi_def_cfa_register 7
 103 0006 F860     		str	r0, [r7, #12]
 104 0008 B960     		str	r1, [r7, #8]
  41:.\fixedMath.c ****     return (fix16_t)(((int64_t) a * (int64_t) b) >> 16);
 105              		.loc 1 41 0
 106 000a F968     		ldr	r1, [r7, #12]
 107 000c 3960     		str	r1, [r7]
 108 000e C917     		asr	r1, r1, #31
 109 0010 7960     		str	r1, [r7, #4]
 110 0012 B968     		ldr	r1, [r7, #8]
 111 0014 0A1C     		mov	r2, r1
 112 0016 C917     		asr	r1, r1, #31
 113 0018 0B1C     		mov	r3, r1
 114 001a 3868     		ldr	r0, [r7]
 115 001c 7968     		ldr	r1, [r7, #4]
 116 001e FFF7FEFF 		bl	__aeabi_lmul
 117 0022 021C     		mov	r2, r0
 118 0024 0B1C     		mov	r3, r1
 119 0026 1904     		lsl	r1, r3, #16
 120 0028 140C     		lsr	r4, r2, #16
 121 002a 0C43     		orr	r4, r1
 122 002c 1D14     		asr	r5, r3, #16
 123 002e 231C     		mov	r3, r4
  42:.\fixedMath.c **** }
 124              		.loc 1 42 0
 125 0030 181C     		mov	r0, r3
 126 0032 BD46     		mov	sp, r7
 127 0034 04B0     		add	sp, sp, #16
 128              		@ sp needed
 129 0036 B0BD     		pop	{r4, r5, r7, pc}
ARM GAS  C:\Users\Jeppe\AppData\Local\Temp\cc2XjnGw.s 			page 4


 130              		.cfi_endproc
 131              	.LFE34:
 132              		.size	fix16mul, .-fix16mul
 133              		.global	__aeabi_ldivmod
 134              		.section	.text.fix16div,"ax",%progbits
 135              		.align	2
 136              		.global	fix16div
 137              		.code	16
 138              		.thumb_func
 139              		.type	fix16div, %function
 140              	fix16div:
 141              	.LFB35:
  43:.\fixedMath.c **** 
  44:.\fixedMath.c **** fix16_t fix16div(fix16_t a, fix16_t b)
  45:.\fixedMath.c **** {
 142              		.loc 1 45 0
 143              		.cfi_startproc
 144 0000 F0B5     		push	{r4, r5, r6, r7, lr}
 145              		.cfi_def_cfa_offset 20
 146              		.cfi_offset 4, -20
 147              		.cfi_offset 5, -16
 148              		.cfi_offset 6, -12
 149              		.cfi_offset 7, -8
 150              		.cfi_offset 14, -4
 151 0002 85B0     		sub	sp, sp, #20
 152              		.cfi_def_cfa_offset 40
 153 0004 00AF     		add	r7, sp, #0
 154              		.cfi_def_cfa_register 7
 155 0006 F860     		str	r0, [r7, #12]
 156 0008 B960     		str	r1, [r7, #8]
  46:.\fixedMath.c ****     return (fix16_t) (((int64_t)a << 16) / b);
 157              		.loc 1 46 0
 158 000a FA68     		ldr	r2, [r7, #12]
 159 000c 151C     		mov	r5, r2
 160 000e D217     		asr	r2, r2, #31
 161 0010 161C     		mov	r6, r2
 162 0012 2A0C     		lsr	r2, r5, #16
 163 0014 3404     		lsl	r4, r6, #16
 164 0016 1443     		orr	r4, r2
 165 0018 2B04     		lsl	r3, r5, #16
 166 001a BA68     		ldr	r2, [r7, #8]
 167 001c 3A60     		str	r2, [r7]
 168 001e D217     		asr	r2, r2, #31
 169 0020 7A60     		str	r2, [r7, #4]
 170 0022 181C     		mov	r0, r3
 171 0024 211C     		mov	r1, r4
 172 0026 3A68     		ldr	r2, [r7]
 173 0028 7B68     		ldr	r3, [r7, #4]
 174 002a FFF7FEFF 		bl	__aeabi_ldivmod
 175 002e 031C     		mov	r3, r0
 176 0030 0C1C     		mov	r4, r1
  47:.\fixedMath.c **** 
  48:.\fixedMath.c **** }
 177              		.loc 1 48 0
 178 0032 181C     		mov	r0, r3
 179 0034 BD46     		mov	sp, r7
 180 0036 05B0     		add	sp, sp, #20
ARM GAS  C:\Users\Jeppe\AppData\Local\Temp\cc2XjnGw.s 			page 5


 181              		@ sp needed
 182 0038 F0BD     		pop	{r4, r5, r6, r7, pc}
 183              		.cfi_endproc
 184              	.LFE35:
 185              		.size	fix16div, .-fix16div
 186 003a C046     		.section	.text.fix16sin,"ax",%progbits
 187              		.align	2
 188              		.global	fix16sin
 189              		.code	16
 190              		.thumb_func
 191              		.type	fix16sin, %function
 192              	fix16sin:
 193              	.LFB36:
  49:.\fixedMath.c **** 
  50:.\fixedMath.c **** // This is a wrapper function for the cordic implementation of sine calculations.
  51:.\fixedMath.c **** fix16_t fix16sin(fix16_t rads)
  52:.\fixedMath.c **** {
 194              		.loc 1 52 0
 195              		.cfi_startproc
 196 0000 80B5     		push	{r7, lr}
 197              		.cfi_def_cfa_offset 8
 198              		.cfi_offset 7, -8
 199              		.cfi_offset 14, -4
 200 0002 84B0     		sub	sp, sp, #16
 201              		.cfi_def_cfa_offset 24
 202 0004 00AF     		add	r7, sp, #0
 203              		.cfi_def_cfa_register 7
 204 0006 7860     		str	r0, [r7, #4]
  53:.\fixedMath.c ****     fix16_t s, c;
  54:.\fixedMath.c ****     cordic(rads, (int*) &s, (int*) &c, 32);
 205              		.loc 1 54 0
 206 0008 7968     		ldr	r1, [r7, #4]
 207 000a 3A1C     		mov	r2, r7
 208 000c 0C32     		add	r2, r2, #12
 209 000e 3B1C     		mov	r3, r7
 210 0010 0833     		add	r3, r3, #8
 211 0012 081C     		mov	r0, r1
 212 0014 111C     		mov	r1, r2
 213 0016 1A1C     		mov	r2, r3
 214 0018 2023     		mov	r3, #32
 215 001a FFF7FEFF 		bl	cordic
  55:.\fixedMath.c ****     return s;
 216              		.loc 1 55 0
 217 001e FB68     		ldr	r3, [r7, #12]
  56:.\fixedMath.c **** }
 218              		.loc 1 56 0
 219 0020 181C     		mov	r0, r3
 220 0022 BD46     		mov	sp, r7
 221 0024 04B0     		add	sp, sp, #16
 222              		@ sp needed
 223 0026 80BD     		pop	{r7, pc}
 224              		.cfi_endproc
 225              	.LFE36:
 226              		.size	fix16sin, .-fix16sin
 227              		.section	.text.fix16cos,"ax",%progbits
 228              		.align	2
 229              		.global	fix16cos
ARM GAS  C:\Users\Jeppe\AppData\Local\Temp\cc2XjnGw.s 			page 6


 230              		.code	16
 231              		.thumb_func
 232              		.type	fix16cos, %function
 233              	fix16cos:
 234              	.LFB37:
  57:.\fixedMath.c **** 
  58:.\fixedMath.c **** // This is a wrapper function for the cordic implementation of cosine calculations.
  59:.\fixedMath.c **** fix16_t fix16cos(fix16_t rads)
  60:.\fixedMath.c **** {
 235              		.loc 1 60 0
 236              		.cfi_startproc
 237 0000 80B5     		push	{r7, lr}
 238              		.cfi_def_cfa_offset 8
 239              		.cfi_offset 7, -8
 240              		.cfi_offset 14, -4
 241 0002 84B0     		sub	sp, sp, #16
 242              		.cfi_def_cfa_offset 24
 243 0004 00AF     		add	r7, sp, #0
 244              		.cfi_def_cfa_register 7
 245 0006 7860     		str	r0, [r7, #4]
  61:.\fixedMath.c ****     fix16_t s, c;
  62:.\fixedMath.c ****     cordic(rads, (int*) &s, (int*) &c, 32);
 246              		.loc 1 62 0
 247 0008 7968     		ldr	r1, [r7, #4]
 248 000a 3A1C     		mov	r2, r7
 249 000c 0C32     		add	r2, r2, #12
 250 000e 3B1C     		mov	r3, r7
 251 0010 0833     		add	r3, r3, #8
 252 0012 081C     		mov	r0, r1
 253 0014 111C     		mov	r1, r2
 254 0016 1A1C     		mov	r2, r3
 255 0018 2023     		mov	r3, #32
 256 001a FFF7FEFF 		bl	cordic
  63:.\fixedMath.c ****     return c;
 257              		.loc 1 63 0
 258 001e BB68     		ldr	r3, [r7, #8]
  64:.\fixedMath.c **** }
 259              		.loc 1 64 0
 260 0020 181C     		mov	r0, r3
 261 0022 BD46     		mov	sp, r7
 262 0024 04B0     		add	sp, sp, #16
 263              		@ sp needed
 264 0026 80BD     		pop	{r7, pc}
 265              		.cfi_endproc
 266              	.LFE37:
 267              		.size	fix16cos, .-fix16cos
 268              		.section	.text.fix16atan2,"ax",%progbits
 269              		.align	2
 270              		.global	fix16atan2
 271              		.code	16
 272              		.thumb_func
 273              		.type	fix16atan2, %function
 274              	fix16atan2:
 275              	.LFB38:
  65:.\fixedMath.c **** 
  66:.\fixedMath.c **** /* atan2 implementation is based on Jim Shima's 1999/04/23 algorithm             *
  67:.\fixedMath.c ****  * see: http://dspguru.com//dsp/tricks/fixed-point-atan2-with-self-normalization */
ARM GAS  C:\Users\Jeppe\AppData\Local\Temp\cc2XjnGw.s 			page 7


  68:.\fixedMath.c **** fix16_t fix16atan2(fix16_t y, fix16_t x)
  69:.\fixedMath.c **** {
 276              		.loc 1 69 0
 277              		.cfi_startproc
 278 0000 80B5     		push	{r7, lr}
 279              		.cfi_def_cfa_offset 8
 280              		.cfi_offset 7, -8
 281              		.cfi_offset 14, -4
 282 0002 86B0     		sub	sp, sp, #24
 283              		.cfi_def_cfa_offset 32
 284 0004 00AF     		add	r7, sp, #0
 285              		.cfi_def_cfa_register 7
 286 0006 7860     		str	r0, [r7, #4]
 287 0008 3960     		str	r1, [r7]
  70:.\fixedMath.c ****     fix16_t abs_y = fix16abs(y)+1;      // kludge to prevent 0/0 condition
 288              		.loc 1 70 0
 289 000a 7B68     		ldr	r3, [r7, #4]
 290 000c 181C     		mov	r0, r3
 291 000e FFF7FEFF 		bl	fix16abs
 292 0012 031C     		mov	r3, r0
 293 0014 0133     		add	r3, r3, #1
 294 0016 3B61     		str	r3, [r7, #16]
  71:.\fixedMath.c ****     fix16_t angle;
  72:.\fixedMath.c ****     if (x>=0)
 295              		.loc 1 72 0
 296 0018 3B68     		ldr	r3, [r7]
 297 001a 002B     		cmp	r3, #0
 298 001c 16DB     		blt	.L13
 299              	.LBB2:
  73:.\fixedMath.c ****     {
  74:.\fixedMath.c ****         fix16_t r = fix16div((x - abs_y),  (x + abs_y));
 300              		.loc 1 74 0
 301 001e 3A68     		ldr	r2, [r7]
 302 0020 3B69     		ldr	r3, [r7, #16]
 303 0022 D21A     		sub	r2, r2, r3
 304 0024 3968     		ldr	r1, [r7]
 305 0026 3B69     		ldr	r3, [r7, #16]
 306 0028 CB18     		add	r3, r1, r3
 307 002a 101C     		mov	r0, r2
 308 002c 191C     		mov	r1, r3
 309 002e FFF7FEFF 		bl	fix16div
 310 0032 031C     		mov	r3, r0
 311 0034 FB60     		str	r3, [r7, #12]
  75:.\fixedMath.c ****         angle = COEFF1 - fix16mul(COEFF1, r);
 312              		.loc 1 75 0
 313 0036 164A     		ldr	r2, .L17
 314 0038 FB68     		ldr	r3, [r7, #12]
 315 003a 101C     		mov	r0, r2
 316 003c 191C     		mov	r1, r3
 317 003e FFF7FEFF 		bl	fix16mul
 318 0042 031C     		mov	r3, r0
 319 0044 124A     		ldr	r2, .L17
 320 0046 D31A     		sub	r3, r2, r3
 321 0048 7B61     		str	r3, [r7, #20]
 322              	.LBE2:
 323 004a 15E0     		b	.L14
 324              	.L13:
ARM GAS  C:\Users\Jeppe\AppData\Local\Temp\cc2XjnGw.s 			page 8


 325              	.LBB3:
  76:.\fixedMath.c ****     }
  77:.\fixedMath.c ****     else
  78:.\fixedMath.c ****     {
  79:.\fixedMath.c ****         fix16_t r = fix16div((x + abs_y), (abs_y - x));
 326              		.loc 1 79 0
 327 004c 3A68     		ldr	r2, [r7]
 328 004e 3B69     		ldr	r3, [r7, #16]
 329 0050 D218     		add	r2, r2, r3
 330 0052 3969     		ldr	r1, [r7, #16]
 331 0054 3B68     		ldr	r3, [r7]
 332 0056 CB1A     		sub	r3, r1, r3
 333 0058 101C     		mov	r0, r2
 334 005a 191C     		mov	r1, r3
 335 005c FFF7FEFF 		bl	fix16div
 336 0060 031C     		mov	r3, r0
 337 0062 BB60     		str	r3, [r7, #8]
  80:.\fixedMath.c ****         angle = COEFF2 - fix16mul(COEFF1, r);
 338              		.loc 1 80 0
 339 0064 0A4A     		ldr	r2, .L17
 340 0066 BB68     		ldr	r3, [r7, #8]
 341 0068 101C     		mov	r0, r2
 342 006a 191C     		mov	r1, r3
 343 006c FFF7FEFF 		bl	fix16mul
 344 0070 031C     		mov	r3, r0
 345 0072 084A     		ldr	r2, .L17+4
 346 0074 D31A     		sub	r3, r2, r3
 347 0076 7B61     		str	r3, [r7, #20]
 348              	.L14:
 349              	.LBE3:
  81:.\fixedMath.c ****     }
  82:.\fixedMath.c ****     if (y < 0) return(-angle);     // negate if in quad III or IV
 350              		.loc 1 82 0
 351 0078 7B68     		ldr	r3, [r7, #4]
 352 007a 002B     		cmp	r3, #0
 353 007c 02DA     		bge	.L15
 354              		.loc 1 82 0 is_stmt 0 discriminator 1
 355 007e 7B69     		ldr	r3, [r7, #20]
 356 0080 5B42     		neg	r3, r3
 357 0082 00E0     		b	.L16
 358              	.L15:
  83:.\fixedMath.c ****     else return(angle);
 359              		.loc 1 83 0 is_stmt 1
 360 0084 7B69     		ldr	r3, [r7, #20]
 361              	.L16:
  84:.\fixedMath.c **** }
 362              		.loc 1 84 0
 363 0086 181C     		mov	r0, r3
 364 0088 BD46     		mov	sp, r7
 365 008a 06B0     		add	sp, sp, #24
 366              		@ sp needed
 367 008c 80BD     		pop	{r7, pc}
 368              	.L18:
 369 008e C046     		.align	2
 370              	.L17:
 371 0090 10C90000 		.word	51472
 372 0094 305B0200 		.word	154416
ARM GAS  C:\Users\Jeppe\AppData\Local\Temp\cc2XjnGw.s 			page 9


 373              		.cfi_endproc
 374              	.LFE38:
 375              		.size	fix16atan2, .-fix16atan2
 376              		.section	.text.fix16rad2deg,"ax",%progbits
 377              		.align	2
 378              		.global	fix16rad2deg
 379              		.code	16
 380              		.thumb_func
 381              		.type	fix16rad2deg, %function
 382              	fix16rad2deg:
 383              	.LFB39:
  85:.\fixedMath.c **** 
  86:.\fixedMath.c **** fix16_t fix16rad2deg(fix16_t radAng)
  87:.\fixedMath.c **** {
 384              		.loc 1 87 0
 385              		.cfi_startproc
 386 0000 80B5     		push	{r7, lr}
 387              		.cfi_def_cfa_offset 8
 388              		.cfi_offset 7, -8
 389              		.cfi_offset 14, -4
 390 0002 82B0     		sub	sp, sp, #8
 391              		.cfi_def_cfa_offset 16
 392 0004 00AF     		add	r7, sp, #0
 393              		.cfi_def_cfa_register 7
 394 0006 7860     		str	r0, [r7, #4]
  88:.\fixedMath.c ****     return fix16mul(radAng, RAD_TO_DEG_SCALE);
 395              		.loc 1 88 0
 396 0008 7A68     		ldr	r2, [r7, #4]
 397 000a 054B     		ldr	r3, .L21
 398 000c 101C     		mov	r0, r2
 399 000e 191C     		mov	r1, r3
 400 0010 FFF7FEFF 		bl	fix16mul
 401 0014 031C     		mov	r3, r0
  89:.\fixedMath.c **** }
 402              		.loc 1 89 0
 403 0016 181C     		mov	r0, r3
 404 0018 BD46     		mov	sp, r7
 405 001a 02B0     		add	sp, sp, #8
 406              		@ sp needed
 407 001c 80BD     		pop	{r7, pc}
 408              	.L22:
 409 001e C046     		.align	2
 410              	.L21:
 411 0020 B84B3900 		.word	3754936
 412              		.cfi_endproc
 413              	.LFE39:
 414              		.size	fix16rad2deg, .-fix16rad2deg
 415              		.section	.text.cordic,"ax",%progbits
 416              		.align	2
 417              		.global	cordic
 418              		.code	16
 419              		.thumb_func
 420              		.type	cordic, %function
 421              	cordic:
 422              	.LFB40:
  90:.\fixedMath.c **** 
  91:.\fixedMath.c **** //Cordic sine and cosine calculations
ARM GAS  C:\Users\Jeppe\AppData\Local\Temp\cc2XjnGw.s 			page 10


  92:.\fixedMath.c **** 
  93:.\fixedMath.c **** void cordic(int theta, int *s, int *c, int n)
  94:.\fixedMath.c **** {
 423              		.loc 1 94 0
 424              		.cfi_startproc
 425 0000 80B5     		push	{r7, lr}
 426              		.cfi_def_cfa_offset 8
 427              		.cfi_offset 7, -8
 428              		.cfi_offset 14, -4
 429 0002 8CB0     		sub	sp, sp, #48
 430              		.cfi_def_cfa_offset 56
 431 0004 00AF     		add	r7, sp, #0
 432              		.cfi_def_cfa_register 7
 433 0006 F860     		str	r0, [r7, #12]
 434 0008 B960     		str	r1, [r7, #8]
 435 000a 7A60     		str	r2, [r7, #4]
 436 000c 3B60     		str	r3, [r7]
  95:.\fixedMath.c ****   int k, d, tx, ty, tz;
  96:.\fixedMath.c ****   int x=cordic_1K,y=0,z=theta;
 437              		.loc 1 96 0
 438 000e 234B     		ldr	r3, .L27
 439 0010 BB62     		str	r3, [r7, #40]
 440 0012 0023     		mov	r3, #0
 441 0014 7B62     		str	r3, [r7, #36]
 442 0016 FB68     		ldr	r3, [r7, #12]
 443 0018 3B62     		str	r3, [r7, #32]
  97:.\fixedMath.c ****   n = (n>CORDIC_NTAB) ? CORDIC_NTAB : n;
 444              		.loc 1 97 0
 445 001a 3B68     		ldr	r3, [r7]
 446 001c 122B     		cmp	r3, #18
 447 001e 00DD     		ble	.L24
 448 0020 1223     		mov	r3, #18
 449              	.L24:
 450 0022 3B60     		str	r3, [r7]
  98:.\fixedMath.c ****   for (k=0; k<n; ++k)
 451              		.loc 1 98 0
 452 0024 0023     		mov	r3, #0
 453 0026 FB62     		str	r3, [r7, #44]
 454 0028 2AE0     		b	.L25
 455              	.L26:
  99:.\fixedMath.c ****   {
 100:.\fixedMath.c ****     d = z>>17;
 456              		.loc 1 100 0 discriminator 2
 457 002a 3B6A     		ldr	r3, [r7, #32]
 458 002c 5B14     		asr	r3, r3, #17
 459 002e FB61     		str	r3, [r7, #28]
 101:.\fixedMath.c ****     //get sign. for other architectures, you might want to use the more portable version
 102:.\fixedMath.c ****     //d = z>=0 ? 0 : -1;
 103:.\fixedMath.c ****     tx = x - (((y>>k) ^ d) - d);
 460              		.loc 1 103 0 discriminator 2
 461 0030 7A6A     		ldr	r2, [r7, #36]
 462 0032 FB6A     		ldr	r3, [r7, #44]
 463 0034 1A41     		asr	r2, r2, r3
 464 0036 FB69     		ldr	r3, [r7, #28]
 465 0038 5340     		eor	r3, r2
 466 003a FA69     		ldr	r2, [r7, #28]
 467 003c D21A     		sub	r2, r2, r3
ARM GAS  C:\Users\Jeppe\AppData\Local\Temp\cc2XjnGw.s 			page 11


 468 003e BB6A     		ldr	r3, [r7, #40]
 469 0040 D318     		add	r3, r2, r3
 470 0042 BB61     		str	r3, [r7, #24]
 104:.\fixedMath.c ****     ty = y + (((x>>k) ^ d) - d);
 471              		.loc 1 104 0 discriminator 2
 472 0044 BA6A     		ldr	r2, [r7, #40]
 473 0046 FB6A     		ldr	r3, [r7, #44]
 474 0048 1A41     		asr	r2, r2, r3
 475 004a FB69     		ldr	r3, [r7, #28]
 476 004c 5A40     		eor	r2, r3
 477 004e FB69     		ldr	r3, [r7, #28]
 478 0050 D21A     		sub	r2, r2, r3
 479 0052 7B6A     		ldr	r3, [r7, #36]
 480 0054 D318     		add	r3, r2, r3
 481 0056 7B61     		str	r3, [r7, #20]
 105:.\fixedMath.c ****     tz = z - ((cordic_ctab[k] ^ d) - d);
 482              		.loc 1 105 0 discriminator 2
 483 0058 114B     		ldr	r3, .L27+4
 484 005a FA6A     		ldr	r2, [r7, #44]
 485 005c 9200     		lsl	r2, r2, #2
 486 005e D258     		ldr	r2, [r2, r3]
 487 0060 FB69     		ldr	r3, [r7, #28]
 488 0062 5340     		eor	r3, r2
 489 0064 FA69     		ldr	r2, [r7, #28]
 490 0066 D21A     		sub	r2, r2, r3
 491 0068 3B6A     		ldr	r3, [r7, #32]
 492 006a D318     		add	r3, r2, r3
 493 006c 3B61     		str	r3, [r7, #16]
 106:.\fixedMath.c ****     x = tx; y = ty; z = tz;
 494              		.loc 1 106 0 discriminator 2
 495 006e BB69     		ldr	r3, [r7, #24]
 496 0070 BB62     		str	r3, [r7, #40]
 497 0072 7B69     		ldr	r3, [r7, #20]
 498 0074 7B62     		str	r3, [r7, #36]
 499 0076 3B69     		ldr	r3, [r7, #16]
 500 0078 3B62     		str	r3, [r7, #32]
  98:.\fixedMath.c ****   for (k=0; k<n; ++k)
 501              		.loc 1 98 0 discriminator 2
 502 007a FB6A     		ldr	r3, [r7, #44]
 503 007c 0133     		add	r3, r3, #1
 504 007e FB62     		str	r3, [r7, #44]
 505              	.L25:
  98:.\fixedMath.c ****   for (k=0; k<n; ++k)
 506              		.loc 1 98 0 is_stmt 0 discriminator 1
 507 0080 FA6A     		ldr	r2, [r7, #44]
 508 0082 3B68     		ldr	r3, [r7]
 509 0084 9A42     		cmp	r2, r3
 510 0086 D0DB     		blt	.L26
 107:.\fixedMath.c ****   }
 108:.\fixedMath.c ****  *c = x; *s = y;
 511              		.loc 1 108 0 is_stmt 1
 512 0088 7B68     		ldr	r3, [r7, #4]
 513 008a BA6A     		ldr	r2, [r7, #40]
 514 008c 1A60     		str	r2, [r3]
 515 008e BB68     		ldr	r3, [r7, #8]
 516 0090 7A6A     		ldr	r2, [r7, #36]
 517 0092 1A60     		str	r2, [r3]
ARM GAS  C:\Users\Jeppe\AppData\Local\Temp\cc2XjnGw.s 			page 12


 109:.\fixedMath.c **** }
 518              		.loc 1 109 0
 519 0094 BD46     		mov	sp, r7
 520 0096 0CB0     		add	sp, sp, #48
 521              		@ sp needed
 522 0098 80BD     		pop	{r7, pc}
 523              	.L28:
 524 009a C046     		.align	2
 525              	.L27:
 526 009c 749B0000 		.word	39796
 527 00a0 00000000 		.word	cordic_ctab
 528              		.cfi_endproc
 529              	.LFE40:
 530              		.size	cordic, .-cordic
 531              		.text
 532              	.Letext0:
 533              		.file 2 "c:\\program files (x86)\\cypress\\psoc creator\\3.1\\psoc creator\\import\\gnu_cs\\arm\\4
 534              		.file 3 "c:\\program files (x86)\\cypress\\psoc creator\\3.1\\psoc creator\\import\\gnu_cs\\arm\\4
 535              		.file 4 ".\\fixedMath.h"