ARM GAS  C:\Users\Jeppe\AppData\Local\Temp\ccX95nJ5.s 			page 1


   1              		.cpu cortex-m0
   2              		.fpu softvfp
   3              		.eabi_attribute 20, 1
   4              		.eabi_attribute 21, 1
   5              		.eabi_attribute 23, 3
   6              		.eabi_attribute 24, 1
   7              		.eabi_attribute 25, 1
   8              		.eabi_attribute 26, 1
   9              		.eabi_attribute 30, 6
  10              		.eabi_attribute 34, 0
  11              		.eabi_attribute 18, 4
  12              		.code	16
  13              		.file	"i2cKommunikation.c"
  14              		.text
  15              	.Ltext0:
  16              		.cfi_sections	.debug_frame
  17              		.comm	I2CBuf,5,4
  18              		.section	.text.initI2C,"ax",%progbits
  19              		.align	2
  20              		.global	initI2C
  21              		.code	16
  22              		.thumb_func
  23              		.type	initI2C, %function
  24              	initI2C:
  25              	.LFB33:
  26              		.file 1 ".\\i2cKommunikation.c"
   1:.\i2cKommunikation.c **** /* ========================================
   2:.\i2cKommunikation.c ****  *
   3:.\i2cKommunikation.c ****  * Copyright Baby Watch, 2015
   4:.\i2cKommunikation.c ****  * All Rights Reserved
   5:.\i2cKommunikation.c ****  * UNPUBLISHED, LICENSED SOFTWARE.
   6:.\i2cKommunikation.c ****  *
   7:.\i2cKommunikation.c ****  * CONFIDENTIAL AND PROPRIETARY INFORMATION
   8:.\i2cKommunikation.c ****  * WHICH IS THE PROPERTY OF Baby Watch.
   9:.\i2cKommunikation.c ****  *
  10:.\i2cKommunikation.c ****  * ========================================
  11:.\i2cKommunikation.c **** */
  12:.\i2cKommunikation.c **** //========================================================================
  13:.\i2cKommunikation.c **** // FILENAME : i2cKommunikation.c
  14:.\i2cKommunikation.c **** // CREATED : 03-03-2015
  15:.\i2cKommunikation.c **** // AUTHOR  : Jeppe Hofni
  16:.\i2cKommunikation.c **** // DESCR.  : h file for PSoC4
  17:.\i2cKommunikation.c **** //
  18:.\i2cKommunikation.c **** //------------------------------------------------------------------------
  19:.\i2cKommunikation.c **** //
  20:.\i2cKommunikation.c **** // REV.  DATE/AUTHOR  CHANGE DESCRIPTION
  21:.\i2cKommunikation.c **** // 0.1  03-03-2015 - Jeppe - First writeup of i2cKommunikation.c
  22:.\i2cKommunikation.c **** // 0.2	30-04-2015 - Jeppe - EZI2C implemented
  23:.\i2cKommunikation.c **** // 0.3	09-04-2015 - Jeppe - I2C tested
  24:.\i2cKommunikation.c **** //------------------------------------------------------------------------
  25:.\i2cKommunikation.c **** // KNOWN ISSUES:
  26:.\i2cKommunikation.c **** // REV. - ISSUE(S)
  27:.\i2cKommunikation.c **** // 0.1 - Needs to be sorted proper
  28:.\i2cKommunikation.c **** // 0.2 - SensorFortolker needs finished implementation
  29:.\i2cKommunikation.c **** // 0.3 - Non known issuses
  30:.\i2cKommunikation.c **** //========================================================================
  31:.\i2cKommunikation.c **** // includes
ARM GAS  C:\Users\Jeppe\AppData\Local\Temp\ccX95nJ5.s 			page 2


  32:.\i2cKommunikation.c **** #include "i2cKommunikation.h"
  33:.\i2cKommunikation.c **** 
  34:.\i2cKommunikation.c **** // Function declarations
  35:.\i2cKommunikation.c **** 
  36:.\i2cKommunikation.c ****     
  37:.\i2cKommunikation.c **** 
  38:.\i2cKommunikation.c **** /* Function Name: initI2C
  39:.\i2cKommunikation.c ****    Summary:
  40:.\i2cKommunikation.c ****     Sets up the I2C bus, and enables it.
  41:.\i2cKommunikation.c **** */
  42:.\i2cKommunikation.c **** void initI2C(void)
  43:.\i2cKommunikation.c **** {
  27              		.loc 1 43 0
  28              		.cfi_startproc
  29 0000 80B5     		push	{r7, lr}
  30              		.cfi_def_cfa_offset 8
  31              		.cfi_offset 7, -8
  32              		.cfi_offset 14, -4
  33 0002 00AF     		add	r7, sp, #0
  34              		.cfi_def_cfa_register 7
  44:.\i2cKommunikation.c ****     I2CBuf[I2C_ID_REG] = 0xFB; // ID
  35              		.loc 1 44 0
  36 0004 0D4B     		ldr	r3, .L2
  37 0006 FB22     		mov	r2, #251
  38 0008 1A70     		strb	r2, [r3]
  45:.\i2cKommunikation.c ****     I2CBuf[I2C_ONOFF_REG] = 0xF0; // ON_OFF
  39              		.loc 1 45 0
  40 000a 0C4B     		ldr	r3, .L2
  41 000c F022     		mov	r2, #240
  42 000e 5A70     		strb	r2, [r3, #1]
  46:.\i2cKommunikation.c ****     I2CBuf[I2C_FREK_REG] = 0x00; // Frekvens
  43              		.loc 1 46 0
  44 0010 0A4B     		ldr	r3, .L2
  45 0012 0022     		mov	r2, #0
  46 0014 9A70     		strb	r2, [r3, #2]
  47:.\i2cKommunikation.c ****     I2CBuf[I2C_VINK_REG] = 0x00; // Vinkeludsving
  47              		.loc 1 47 0
  48 0016 094B     		ldr	r3, .L2
  49 0018 0022     		mov	r2, #0
  50 001a DA70     		strb	r2, [r3, #3]
  48:.\i2cKommunikation.c ****     I2CBuf[I2C_STAT_REG] = 0x00; // Status
  51              		.loc 1 48 0
  52 001c 074B     		ldr	r3, .L2
  53 001e 0022     		mov	r2, #0
  54 0020 1A71     		strb	r2, [r3, #4]
  49:.\i2cKommunikation.c ****    
  50:.\i2cKommunikation.c ****     I2CVuggesystem_EzI2CSetAddress1(I2C_DEV_ADDR);
  55              		.loc 1 50 0
  56 0022 0820     		mov	r0, #8
  57 0024 FFF7FEFF 		bl	I2CVuggesystem_EzI2CSetAddress1
  51:.\i2cKommunikation.c ****     I2CVuggesystem_EzI2CSetBuffer1(I2C_BUF_SIZE,4,&I2CBuf[0]);
  58              		.loc 1 51 0
  59 0028 044B     		ldr	r3, .L2
  60 002a 0520     		mov	r0, #5
  61 002c 0421     		mov	r1, #4
  62 002e 1A1C     		mov	r2, r3
  63 0030 FFF7FEFF 		bl	I2CVuggesystem_EzI2CSetBuffer1
ARM GAS  C:\Users\Jeppe\AppData\Local\Temp\ccX95nJ5.s 			page 3


  52:.\i2cKommunikation.c ****     I2CVuggesystem_Start();
  64              		.loc 1 52 0
  65 0034 FFF7FEFF 		bl	I2CVuggesystem_Start
  53:.\i2cKommunikation.c ****     
  54:.\i2cKommunikation.c **** }
  66              		.loc 1 54 0
  67 0038 BD46     		mov	sp, r7
  68              		@ sp needed
  69 003a 80BD     		pop	{r7, pc}
  70              	.L3:
  71              		.align	2
  72              	.L2:
  73 003c 00000000 		.word	I2CBuf
  74              		.cfi_endproc
  75              	.LFE33:
  76              		.size	initI2C, .-initI2C
  77              		.section	.text.sendConKom,"ax",%progbits
  78              		.align	2
  79              		.global	sendConKom
  80              		.code	16
  81              		.thumb_func
  82              		.type	sendConKom, %function
  83              	sendConKom:
  84              	.LFB34:
  55:.\i2cKommunikation.c **** 
  56:.\i2cKommunikation.c **** /* Function Name: sendConKom
  57:.\i2cKommunikation.c ****    Summary:
  58:.\i2cKommunikation.c ****     Returns pointer to I2C transmite buffer
  59:.\i2cKommunikation.c **** */
  60:.\i2cKommunikation.c **** uint8* sendConKom()
  61:.\i2cKommunikation.c **** {
  85              		.loc 1 61 0
  86              		.cfi_startproc
  87 0000 80B5     		push	{r7, lr}
  88              		.cfi_def_cfa_offset 8
  89              		.cfi_offset 7, -8
  90              		.cfi_offset 14, -4
  91 0002 00AF     		add	r7, sp, #0
  92              		.cfi_def_cfa_register 7
  62:.\i2cKommunikation.c ****     return I2CBuf;
  93              		.loc 1 62 0
  94 0004 014B     		ldr	r3, .L6
  63:.\i2cKommunikation.c **** }
  95              		.loc 1 63 0
  96 0006 181C     		mov	r0, r3
  97 0008 BD46     		mov	sp, r7
  98              		@ sp needed
  99 000a 80BD     		pop	{r7, pc}
 100              	.L7:
 101              		.align	2
 102              	.L6:
 103 000c 00000000 		.word	I2CBuf
 104              		.cfi_endproc
 105              	.LFE34:
 106              		.size	sendConKom, .-sendConKom
 107              		.text
 108              	.Letext0:
ARM GAS  C:\Users\Jeppe\AppData\Local\Temp\ccX95nJ5.s 			page 4


 109              		.file 2 ".\\Generated_Source\\PSoC4/cytypes.h"
 110              		.file 3 ".\\i2cKommunikation.h"