ARM GAS  C:\Users\Felix\AppData\Local\Temp\ccyXa2fE.s 			page 1


   1              		.cpu cortex-m0
   2              		.fpu softvfp
   3              		.eabi_attribute 20, 1
   4              		.eabi_attribute 21, 1
   5              		.eabi_attribute 23, 3
   6              		.eabi_attribute 24, 1
   7              		.eabi_attribute 25, 1
   8              		.eabi_attribute 26, 1
   9              		.eabi_attribute 30, 6
  10              		.eabi_attribute 34, 0
  11              		.eabi_attribute 18, 4
  12              		.code	16
  13              		.file	"I2CVuggesystem_EZI2C.c"
  14              		.text
  15              	.Ltext0:
  16              		.cfi_sections	.debug_frame
  17              		.comm	I2CVuggesystem_curStatus,1,1
  18              		.comm	I2CVuggesystem_fsmState,1,1
  19              		.comm	I2CVuggesystem_dataBuffer1,4,4
  20              		.comm	I2CVuggesystem_bufSizeBuf1,2,2
  21              		.comm	I2CVuggesystem_protectBuf1,2,2
  22              		.comm	I2CVuggesystem_offsetBuf1,1,1
  23              		.comm	I2CVuggesystem_indexBuf1,2,2
  24              		.section	.text.I2CVuggesystem_EzI2CInit,"ax",%progbits
  25              		.align	2
  26              		.global	I2CVuggesystem_EzI2CInit
  27              		.code	16
  28              		.thumb_func
  29              		.type	I2CVuggesystem_EzI2CInit, %function
  30              	I2CVuggesystem_EzI2CInit:
  31              	.LFB0:
  32              		.file 1 ".\\Generated_Source\\PSoC4\\I2CVuggesystem_EZI2C.c"
   1:.\Generated_Source\PSoC4/I2CVuggesystem_EZI2C.c **** /*******************************************************************************
   2:.\Generated_Source\PSoC4/I2CVuggesystem_EZI2C.c **** * File Name: I2CVuggesystem_EZI2C.c
   3:.\Generated_Source\PSoC4/I2CVuggesystem_EZI2C.c **** * Version 2.0
   4:.\Generated_Source\PSoC4/I2CVuggesystem_EZI2C.c **** *
   5:.\Generated_Source\PSoC4/I2CVuggesystem_EZI2C.c **** * Description:
   6:.\Generated_Source\PSoC4/I2CVuggesystem_EZI2C.c **** *  This file provides the source code to the API for the SCB Component in
   7:.\Generated_Source\PSoC4/I2CVuggesystem_EZI2C.c **** *  EZI2C mode.
   8:.\Generated_Source\PSoC4/I2CVuggesystem_EZI2C.c **** *
   9:.\Generated_Source\PSoC4/I2CVuggesystem_EZI2C.c **** * Note:
  10:.\Generated_Source\PSoC4/I2CVuggesystem_EZI2C.c **** *
  11:.\Generated_Source\PSoC4/I2CVuggesystem_EZI2C.c **** *******************************************************************************
  12:.\Generated_Source\PSoC4/I2CVuggesystem_EZI2C.c **** * Copyright 2013-2014, Cypress Semiconductor Corporation.  All rights reserved.
  13:.\Generated_Source\PSoC4/I2CVuggesystem_EZI2C.c **** * You may use this file only in accordance with the license, terms, conditions,
  14:.\Generated_Source\PSoC4/I2CVuggesystem_EZI2C.c **** * disclaimers, and limitations in the end user license agreement accompanying
  15:.\Generated_Source\PSoC4/I2CVuggesystem_EZI2C.c **** * the software package with which this file was provided.
  16:.\Generated_Source\PSoC4/I2CVuggesystem_EZI2C.c **** *******************************************************************************/
  17:.\Generated_Source\PSoC4/I2CVuggesystem_EZI2C.c **** 
  18:.\Generated_Source\PSoC4/I2CVuggesystem_EZI2C.c **** #include "I2CVuggesystem_PVT.h"
  19:.\Generated_Source\PSoC4/I2CVuggesystem_EZI2C.c **** #include "I2CVuggesystem_EZI2C_PVT.h"
  20:.\Generated_Source\PSoC4/I2CVuggesystem_EZI2C.c **** 
  21:.\Generated_Source\PSoC4/I2CVuggesystem_EZI2C.c **** 
  22:.\Generated_Source\PSoC4/I2CVuggesystem_EZI2C.c **** /***************************************
  23:.\Generated_Source\PSoC4/I2CVuggesystem_EZI2C.c **** *      EZI2C Private Vars
  24:.\Generated_Source\PSoC4/I2CVuggesystem_EZI2C.c **** ***************************************/
  25:.\Generated_Source\PSoC4/I2CVuggesystem_EZI2C.c **** 
ARM GAS  C:\Users\Felix\AppData\Local\Temp\ccyXa2fE.s 			page 2


  26:.\Generated_Source\PSoC4/I2CVuggesystem_EZI2C.c **** volatile uint8 I2CVuggesystem_curStatus; /* Status byte */
  27:.\Generated_Source\PSoC4/I2CVuggesystem_EZI2C.c **** uint8 I2CVuggesystem_fsmState;           /* FSM state   */
  28:.\Generated_Source\PSoC4/I2CVuggesystem_EZI2C.c **** 
  29:.\Generated_Source\PSoC4/I2CVuggesystem_EZI2C.c **** /* Variables intended to be used with Buffer 1: Primary slave address */
  30:.\Generated_Source\PSoC4/I2CVuggesystem_EZI2C.c **** volatile uint8 * I2CVuggesystem_dataBuffer1; /* Pointer to data buffer 1 */
  31:.\Generated_Source\PSoC4/I2CVuggesystem_EZI2C.c **** uint16 I2CVuggesystem_bufSizeBuf1; /* Size of buffer 1 in bytes      */
  32:.\Generated_Source\PSoC4/I2CVuggesystem_EZI2C.c **** uint16 I2CVuggesystem_protectBuf1; /* Start index of write protected area buffer 1 */
  33:.\Generated_Source\PSoC4/I2CVuggesystem_EZI2C.c **** uint8 I2CVuggesystem_offsetBuf1; /* Current offset within buffer 1 */
  34:.\Generated_Source\PSoC4/I2CVuggesystem_EZI2C.c **** uint16 I2CVuggesystem_indexBuf1;  /* Current index within buffer 1  */
  35:.\Generated_Source\PSoC4/I2CVuggesystem_EZI2C.c **** 
  36:.\Generated_Source\PSoC4/I2CVuggesystem_EZI2C.c **** #if(I2CVuggesystem_SECONDARY_ADDRESS_ENABLE_CONST)
  37:.\Generated_Source\PSoC4/I2CVuggesystem_EZI2C.c ****     uint8 I2CVuggesystem_addrBuf1; /* Primary slave address. Used for software comparison   */
  38:.\Generated_Source\PSoC4/I2CVuggesystem_EZI2C.c ****     uint8 I2CVuggesystem_addrBuf2; /* Secondary slave address. Used for software comparison */
  39:.\Generated_Source\PSoC4/I2CVuggesystem_EZI2C.c **** 
  40:.\Generated_Source\PSoC4/I2CVuggesystem_EZI2C.c ****     /* Variables intended to be used with Buffer 2: Primary slave address */
  41:.\Generated_Source\PSoC4/I2CVuggesystem_EZI2C.c ****     volatile uint8 * I2CVuggesystem_dataBuffer2; /* Pointer to data buffer 2 */
  42:.\Generated_Source\PSoC4/I2CVuggesystem_EZI2C.c ****     uint16 I2CVuggesystem_bufSizeBuf2; /* Size of buffer 2 in bytes      */
  43:.\Generated_Source\PSoC4/I2CVuggesystem_EZI2C.c ****     uint16 I2CVuggesystem_protectBuf2; /* Start index of write protected area buffer 2 */
  44:.\Generated_Source\PSoC4/I2CVuggesystem_EZI2C.c ****     uint8 I2CVuggesystem_offsetBuf2; /* Current offset within buffer 2 */
  45:.\Generated_Source\PSoC4/I2CVuggesystem_EZI2C.c ****     uint16 I2CVuggesystem_indexBuf2;  /* Current index within buffer 2  */
  46:.\Generated_Source\PSoC4/I2CVuggesystem_EZI2C.c **** #endif /* (I2CVuggesystem_SECONDARY_ADDRESS_ENABLE_CONST) */
  47:.\Generated_Source\PSoC4/I2CVuggesystem_EZI2C.c **** 
  48:.\Generated_Source\PSoC4/I2CVuggesystem_EZI2C.c **** 
  49:.\Generated_Source\PSoC4/I2CVuggesystem_EZI2C.c **** /***************************************
  50:.\Generated_Source\PSoC4/I2CVuggesystem_EZI2C.c **** *      EZI2C Private Functions
  51:.\Generated_Source\PSoC4/I2CVuggesystem_EZI2C.c **** ***************************************/
  52:.\Generated_Source\PSoC4/I2CVuggesystem_EZI2C.c **** 
  53:.\Generated_Source\PSoC4/I2CVuggesystem_EZI2C.c **** #if(I2CVuggesystem_SECONDARY_ADDRESS_ENABLE_CONST)
  54:.\Generated_Source\PSoC4/I2CVuggesystem_EZI2C.c ****     static uint32 I2CVuggesystem_EzI2CUpdateRxMatchReg(uint32 addr1, uint32 addr2);
  55:.\Generated_Source\PSoC4/I2CVuggesystem_EZI2C.c **** #endif /* (I2CVuggesystem_SECONDARY_ADDRESS_ENABLE_CONST) */
  56:.\Generated_Source\PSoC4/I2CVuggesystem_EZI2C.c **** 
  57:.\Generated_Source\PSoC4/I2CVuggesystem_EZI2C.c **** #if(I2CVuggesystem_SCB_MODE_UNCONFIG_CONST_CFG)
  58:.\Generated_Source\PSoC4/I2CVuggesystem_EZI2C.c **** 
  59:.\Generated_Source\PSoC4/I2CVuggesystem_EZI2C.c ****     /***************************************
  60:.\Generated_Source\PSoC4/I2CVuggesystem_EZI2C.c ****     *  Configuration Structure Initialization
  61:.\Generated_Source\PSoC4/I2CVuggesystem_EZI2C.c ****     ***************************************/
  62:.\Generated_Source\PSoC4/I2CVuggesystem_EZI2C.c **** 
  63:.\Generated_Source\PSoC4/I2CVuggesystem_EZI2C.c ****     /* Constant configuration of EZI2C */
  64:.\Generated_Source\PSoC4/I2CVuggesystem_EZI2C.c ****     const I2CVuggesystem_EZI2C_INIT_STRUCT I2CVuggesystem_configEzI2C =
  65:.\Generated_Source\PSoC4/I2CVuggesystem_EZI2C.c ****     {
  66:.\Generated_Source\PSoC4/I2CVuggesystem_EZI2C.c ****         I2CVuggesystem_EZI2C_CLOCK_STRETCHING,
  67:.\Generated_Source\PSoC4/I2CVuggesystem_EZI2C.c ****         I2CVuggesystem_EZI2C_MEDIAN_FILTER_ENABLE,
  68:.\Generated_Source\PSoC4/I2CVuggesystem_EZI2C.c ****         I2CVuggesystem_EZI2C_NUMBER_OF_ADDRESSES,
  69:.\Generated_Source\PSoC4/I2CVuggesystem_EZI2C.c ****         I2CVuggesystem_EZI2C_PRIMARY_SLAVE_ADDRESS,
  70:.\Generated_Source\PSoC4/I2CVuggesystem_EZI2C.c ****         I2CVuggesystem_EZI2C_SECONDARY_SLAVE_ADDRESS,
  71:.\Generated_Source\PSoC4/I2CVuggesystem_EZI2C.c ****         I2CVuggesystem_EZI2C_SUB_ADDRESS_SIZE,
  72:.\Generated_Source\PSoC4/I2CVuggesystem_EZI2C.c ****         I2CVuggesystem_EZI2C_WAKE_ENABLE,
  73:.\Generated_Source\PSoC4/I2CVuggesystem_EZI2C.c ****         I2CVuggesystem_EZI2C_BYTE_MODE_ENABLE
  74:.\Generated_Source\PSoC4/I2CVuggesystem_EZI2C.c ****     };
  75:.\Generated_Source\PSoC4/I2CVuggesystem_EZI2C.c **** 
  76:.\Generated_Source\PSoC4/I2CVuggesystem_EZI2C.c ****     /*******************************************************************************
  77:.\Generated_Source\PSoC4/I2CVuggesystem_EZI2C.c ****     * Function Name: I2CVuggesystem_EzI2CInit
  78:.\Generated_Source\PSoC4/I2CVuggesystem_EZI2C.c ****     ********************************************************************************
  79:.\Generated_Source\PSoC4/I2CVuggesystem_EZI2C.c ****     *
  80:.\Generated_Source\PSoC4/I2CVuggesystem_EZI2C.c ****     * Summary:
  81:.\Generated_Source\PSoC4/I2CVuggesystem_EZI2C.c ****     *  Configures the SCB for the EZI2C operation.
  82:.\Generated_Source\PSoC4/I2CVuggesystem_EZI2C.c ****     *
ARM GAS  C:\Users\Felix\AppData\Local\Temp\ccyXa2fE.s 			page 3


  83:.\Generated_Source\PSoC4/I2CVuggesystem_EZI2C.c ****     * Parameters:
  84:.\Generated_Source\PSoC4/I2CVuggesystem_EZI2C.c ****     *  config:  Pointer to a structure that contains the following ordered list of
  85:.\Generated_Source\PSoC4/I2CVuggesystem_EZI2C.c ****     *           fields. These fields match the selections available in the
  86:.\Generated_Source\PSoC4/I2CVuggesystem_EZI2C.c ****     *           customizer.
  87:.\Generated_Source\PSoC4/I2CVuggesystem_EZI2C.c ****     *
  88:.\Generated_Source\PSoC4/I2CVuggesystem_EZI2C.c ****     * Return:
  89:.\Generated_Source\PSoC4/I2CVuggesystem_EZI2C.c ****     *  None
  90:.\Generated_Source\PSoC4/I2CVuggesystem_EZI2C.c ****     *
  91:.\Generated_Source\PSoC4/I2CVuggesystem_EZI2C.c ****     *******************************************************************************/
  92:.\Generated_Source\PSoC4/I2CVuggesystem_EZI2C.c ****     void I2CVuggesystem_EzI2CInit(const I2CVuggesystem_EZI2C_INIT_STRUCT *config)
  93:.\Generated_Source\PSoC4/I2CVuggesystem_EZI2C.c ****     {
  94:.\Generated_Source\PSoC4/I2CVuggesystem_EZI2C.c ****         if(NULL == config)
  95:.\Generated_Source\PSoC4/I2CVuggesystem_EZI2C.c ****         {
  96:.\Generated_Source\PSoC4/I2CVuggesystem_EZI2C.c ****             CYASSERT(0u != 0u); /* Halt execution due to bad function parameter */
  97:.\Generated_Source\PSoC4/I2CVuggesystem_EZI2C.c ****         }
  98:.\Generated_Source\PSoC4/I2CVuggesystem_EZI2C.c ****         else
  99:.\Generated_Source\PSoC4/I2CVuggesystem_EZI2C.c ****         {
 100:.\Generated_Source\PSoC4/I2CVuggesystem_EZI2C.c ****             /* Configure pins */
 101:.\Generated_Source\PSoC4/I2CVuggesystem_EZI2C.c ****             I2CVuggesystem_SetPins(I2CVuggesystem_SCB_MODE_EZI2C, I2CVuggesystem_DUMMY_PARAM,
 102:.\Generated_Source\PSoC4/I2CVuggesystem_EZI2C.c ****                                                                       I2CVuggesystem_DUMMY_PARAM);
 103:.\Generated_Source\PSoC4/I2CVuggesystem_EZI2C.c **** 
 104:.\Generated_Source\PSoC4/I2CVuggesystem_EZI2C.c ****             /* Store internal configuration */
 105:.\Generated_Source\PSoC4/I2CVuggesystem_EZI2C.c ****             I2CVuggesystem_scbMode       = (uint8) I2CVuggesystem_SCB_MODE_EZI2C;
 106:.\Generated_Source\PSoC4/I2CVuggesystem_EZI2C.c ****             I2CVuggesystem_scbEnableWake = (uint8) config->enableWake;
 107:.\Generated_Source\PSoC4/I2CVuggesystem_EZI2C.c ****             I2CVuggesystem_scbEnableIntr = (uint8) I2CVuggesystem_SCB_IRQ_INTERNAL;
 108:.\Generated_Source\PSoC4/I2CVuggesystem_EZI2C.c **** 
 109:.\Generated_Source\PSoC4/I2CVuggesystem_EZI2C.c ****             I2CVuggesystem_numberOfAddr  = (uint8) config->numberOfAddresses;
 110:.\Generated_Source\PSoC4/I2CVuggesystem_EZI2C.c ****             I2CVuggesystem_subAddrSize   = (uint8) config->subAddrSize;
 111:.\Generated_Source\PSoC4/I2CVuggesystem_EZI2C.c **** 
 112:.\Generated_Source\PSoC4/I2CVuggesystem_EZI2C.c ****         #if (I2CVuggesystem_CY_SCBIP_V0)
 113:.\Generated_Source\PSoC4/I2CVuggesystem_EZI2C.c ****             /* Adjust SDA filter settings. Ticket ID#150521 */
 114:.\Generated_Source\PSoC4/I2CVuggesystem_EZI2C.c ****             I2CVuggesystem_SET_I2C_CFG_SDA_FILT_TRIM(I2CVuggesystem_EC_AM_I2C_CFG_SDA_FILT_TRIM);
 115:.\Generated_Source\PSoC4/I2CVuggesystem_EZI2C.c ****         #endif /* (I2CVuggesystem_CY_SCBIP_V0) */
 116:.\Generated_Source\PSoC4/I2CVuggesystem_EZI2C.c **** 
 117:.\Generated_Source\PSoC4/I2CVuggesystem_EZI2C.c ****             /* Adjust AF and DF filter settings, AF = 1, DF = 0. Ticket ID#176179 */
 118:.\Generated_Source\PSoC4/I2CVuggesystem_EZI2C.c ****             I2CVuggesystem_I2C_CFG_ANALOG_FITER_ENABLE;
 119:.\Generated_Source\PSoC4/I2CVuggesystem_EZI2C.c **** 
 120:.\Generated_Source\PSoC4/I2CVuggesystem_EZI2C.c ****             /* Configure I2C interface */
 121:.\Generated_Source\PSoC4/I2CVuggesystem_EZI2C.c ****             I2CVuggesystem_CTRL_REG     = I2CVuggesystem_GET_CTRL_BYTE_MODE  (config->enableByteMod
 122:.\Generated_Source\PSoC4/I2CVuggesystem_EZI2C.c ****                                             I2CVuggesystem_GET_CTRL_ADDR_ACCEPT(config->numberOfAdd
 123:.\Generated_Source\PSoC4/I2CVuggesystem_EZI2C.c ****                                             I2CVuggesystem_GET_CTRL_EC_AM_MODE (config->enableWake)
 124:.\Generated_Source\PSoC4/I2CVuggesystem_EZI2C.c **** 
 125:.\Generated_Source\PSoC4/I2CVuggesystem_EZI2C.c ****             I2CVuggesystem_I2C_CTRL_REG = I2CVuggesystem_EZI2C_CTRL;
 126:.\Generated_Source\PSoC4/I2CVuggesystem_EZI2C.c **** 
 127:.\Generated_Source\PSoC4/I2CVuggesystem_EZI2C.c ****             /* Configure RX direction */
 128:.\Generated_Source\PSoC4/I2CVuggesystem_EZI2C.c ****             I2CVuggesystem_RX_CTRL_REG = I2CVuggesystem_EZI2C_RX_CTRL |
 129:.\Generated_Source\PSoC4/I2CVuggesystem_EZI2C.c ****                                         I2CVuggesystem_GET_RX_CTRL_MEDIAN(I2CVuggesystem_DIGITAL_FI
 130:.\Generated_Source\PSoC4/I2CVuggesystem_EZI2C.c ****                                                 ;
 131:.\Generated_Source\PSoC4/I2CVuggesystem_EZI2C.c ****             I2CVuggesystem_RX_FIFO_CTRL_REG = I2CVuggesystem_CLEAR_REG;
 132:.\Generated_Source\PSoC4/I2CVuggesystem_EZI2C.c **** 
 133:.\Generated_Source\PSoC4/I2CVuggesystem_EZI2C.c ****             /* Set default address and mask */
 134:.\Generated_Source\PSoC4/I2CVuggesystem_EZI2C.c ****             if(I2CVuggesystem_EZI2C_PRIMARY_ADDRESS == config->numberOfAddresses)
 135:.\Generated_Source\PSoC4/I2CVuggesystem_EZI2C.c ****             {
 136:.\Generated_Source\PSoC4/I2CVuggesystem_EZI2C.c ****                 I2CVuggesystem_RX_MATCH_REG = I2CVuggesystem_EzI2CUpdateRxMatchReg(config->primaryS
 137:.\Generated_Source\PSoC4/I2CVuggesystem_EZI2C.c ****                                                                                        config->prim
 138:.\Generated_Source\PSoC4/I2CVuggesystem_EZI2C.c ****             }
 139:.\Generated_Source\PSoC4/I2CVuggesystem_EZI2C.c ****             else
ARM GAS  C:\Users\Felix\AppData\Local\Temp\ccyXa2fE.s 			page 4


 140:.\Generated_Source\PSoC4/I2CVuggesystem_EZI2C.c ****             {
 141:.\Generated_Source\PSoC4/I2CVuggesystem_EZI2C.c ****                 I2CVuggesystem_RX_MATCH_REG = I2CVuggesystem_EzI2CUpdateRxMatchReg(config->primaryS
 142:.\Generated_Source\PSoC4/I2CVuggesystem_EZI2C.c ****                                                                                        config->seco
 143:.\Generated_Source\PSoC4/I2CVuggesystem_EZI2C.c ****             }
 144:.\Generated_Source\PSoC4/I2CVuggesystem_EZI2C.c **** 
 145:.\Generated_Source\PSoC4/I2CVuggesystem_EZI2C.c ****             /* Configure TX direction */
 146:.\Generated_Source\PSoC4/I2CVuggesystem_EZI2C.c ****             I2CVuggesystem_TX_CTRL_REG      = I2CVuggesystem_EZI2C_TX_CTRL;
 147:.\Generated_Source\PSoC4/I2CVuggesystem_EZI2C.c ****             I2CVuggesystem_TX_FIFO_CTRL_REG = ((0u != (config->enableClockStretch)) ?
 148:.\Generated_Source\PSoC4/I2CVuggesystem_EZI2C.c ****                                                  I2CVuggesystem_CLEAR_REG : I2CVuggesystem_EZI2C_TX
 149:.\Generated_Source\PSoC4/I2CVuggesystem_EZI2C.c **** 
 150:.\Generated_Source\PSoC4/I2CVuggesystem_EZI2C.c ****             /* Configure interrupt sources */
 151:.\Generated_Source\PSoC4/I2CVuggesystem_EZI2C.c ****         #if (!I2CVuggesystem_CY_SCBIP_V1)
 152:.\Generated_Source\PSoC4/I2CVuggesystem_EZI2C.c ****            I2CVuggesystem_INTR_SPI_EC_MASK_REG = I2CVuggesystem_NO_INTR_SOURCES;
 153:.\Generated_Source\PSoC4/I2CVuggesystem_EZI2C.c ****         #endif /* (!I2CVuggesystem_CY_SCBIP_V1) */
 154:.\Generated_Source\PSoC4/I2CVuggesystem_EZI2C.c **** 
 155:.\Generated_Source\PSoC4/I2CVuggesystem_EZI2C.c ****             I2CVuggesystem_INTR_I2C_EC_MASK_REG = I2CVuggesystem_NO_INTR_SOURCES;
 156:.\Generated_Source\PSoC4/I2CVuggesystem_EZI2C.c ****             I2CVuggesystem_INTR_MASTER_MASK_REG = I2CVuggesystem_NO_INTR_SOURCES;
 157:.\Generated_Source\PSoC4/I2CVuggesystem_EZI2C.c ****             I2CVuggesystem_INTR_SLAVE_MASK_REG  = I2CVuggesystem_EZI2C_INTR_SLAVE_MASK;
 158:.\Generated_Source\PSoC4/I2CVuggesystem_EZI2C.c ****             I2CVuggesystem_INTR_TX_MASK_REG     = I2CVuggesystem_NO_INTR_SOURCES;
 159:.\Generated_Source\PSoC4/I2CVuggesystem_EZI2C.c **** 
 160:.\Generated_Source\PSoC4/I2CVuggesystem_EZI2C.c ****             /* Configure interrupt with EZI2C handler but do not enable it */
 161:.\Generated_Source\PSoC4/I2CVuggesystem_EZI2C.c ****             CyIntDisable    (I2CVuggesystem_ISR_NUMBER);
 162:.\Generated_Source\PSoC4/I2CVuggesystem_EZI2C.c ****             CyIntSetPriority(I2CVuggesystem_ISR_NUMBER, I2CVuggesystem_ISR_PRIORITY);
 163:.\Generated_Source\PSoC4/I2CVuggesystem_EZI2C.c ****             (void) CyIntSetVector(I2CVuggesystem_ISR_NUMBER, (0u != (config->enableClockStretch)) ?
 164:.\Generated_Source\PSoC4/I2CVuggesystem_EZI2C.c ****                                                                       (&I2CVuggesystem_EZI2C_STRETC
 165:.\Generated_Source\PSoC4/I2CVuggesystem_EZI2C.c ****                                                                       (&I2CVuggesystem_EZI2C_NO_STR
 166:.\Generated_Source\PSoC4/I2CVuggesystem_EZI2C.c **** 
 167:.\Generated_Source\PSoC4/I2CVuggesystem_EZI2C.c ****             if(0u != (config->enableClockStretch))
 168:.\Generated_Source\PSoC4/I2CVuggesystem_EZI2C.c ****             {
 169:.\Generated_Source\PSoC4/I2CVuggesystem_EZI2C.c ****                 /* Configure interrupt sources */
 170:.\Generated_Source\PSoC4/I2CVuggesystem_EZI2C.c ****                 I2CVuggesystem_INTR_SLAVE_MASK_REG |= I2CVuggesystem_INTR_SLAVE_I2C_ADDR_MATCH;
 171:.\Generated_Source\PSoC4/I2CVuggesystem_EZI2C.c ****                 I2CVuggesystem_INTR_RX_MASK_REG     = I2CVuggesystem_NO_INTR_SOURCES;
 172:.\Generated_Source\PSoC4/I2CVuggesystem_EZI2C.c ****             }
 173:.\Generated_Source\PSoC4/I2CVuggesystem_EZI2C.c ****             else
 174:.\Generated_Source\PSoC4/I2CVuggesystem_EZI2C.c ****             {
 175:.\Generated_Source\PSoC4/I2CVuggesystem_EZI2C.c ****                 /* Enable Auto ACK/NACK features */
 176:.\Generated_Source\PSoC4/I2CVuggesystem_EZI2C.c ****                 I2CVuggesystem_I2C_CTRL_REG |= I2CVuggesystem_EZI2C_CTRL_AUTO;
 177:.\Generated_Source\PSoC4/I2CVuggesystem_EZI2C.c **** 
 178:.\Generated_Source\PSoC4/I2CVuggesystem_EZI2C.c ****                 /* Configure RX interrupt source */
 179:.\Generated_Source\PSoC4/I2CVuggesystem_EZI2C.c ****                 I2CVuggesystem_INTR_SLAVE_MASK_REG |= I2CVuggesystem_INTR_SLAVE_I2C_START;
 180:.\Generated_Source\PSoC4/I2CVuggesystem_EZI2C.c ****                 I2CVuggesystem_INTR_RX_MASK_REG     = I2CVuggesystem_INTR_RX_NOT_EMPTY;
 181:.\Generated_Source\PSoC4/I2CVuggesystem_EZI2C.c ****             }
 182:.\Generated_Source\PSoC4/I2CVuggesystem_EZI2C.c **** 
 183:.\Generated_Source\PSoC4/I2CVuggesystem_EZI2C.c ****             /* Configure global variables */
 184:.\Generated_Source\PSoC4/I2CVuggesystem_EZI2C.c ****             I2CVuggesystem_fsmState = I2CVuggesystem_EZI2C_FSM_IDLE;
 185:.\Generated_Source\PSoC4/I2CVuggesystem_EZI2C.c **** 
 186:.\Generated_Source\PSoC4/I2CVuggesystem_EZI2C.c ****             I2CVuggesystem_curStatus  = 0u;
 187:.\Generated_Source\PSoC4/I2CVuggesystem_EZI2C.c ****             I2CVuggesystem_indexBuf1  = 0u;
 188:.\Generated_Source\PSoC4/I2CVuggesystem_EZI2C.c ****             I2CVuggesystem_offsetBuf1 = 0u;
 189:.\Generated_Source\PSoC4/I2CVuggesystem_EZI2C.c ****             I2CVuggesystem_indexBuf2  = 0u;
 190:.\Generated_Source\PSoC4/I2CVuggesystem_EZI2C.c ****             I2CVuggesystem_offsetBuf2 = 0u;
 191:.\Generated_Source\PSoC4/I2CVuggesystem_EZI2C.c **** 
 192:.\Generated_Source\PSoC4/I2CVuggesystem_EZI2C.c ****             I2CVuggesystem_addrBuf1 = (uint8) config->primarySlaveAddr;
 193:.\Generated_Source\PSoC4/I2CVuggesystem_EZI2C.c ****             I2CVuggesystem_addrBuf2 = (uint8) config->secondarySlaveAddr;
 194:.\Generated_Source\PSoC4/I2CVuggesystem_EZI2C.c ****         }
 195:.\Generated_Source\PSoC4/I2CVuggesystem_EZI2C.c ****     }
 196:.\Generated_Source\PSoC4/I2CVuggesystem_EZI2C.c **** 
ARM GAS  C:\Users\Felix\AppData\Local\Temp\ccyXa2fE.s 			page 5


 197:.\Generated_Source\PSoC4/I2CVuggesystem_EZI2C.c **** #else
 198:.\Generated_Source\PSoC4/I2CVuggesystem_EZI2C.c **** 
 199:.\Generated_Source\PSoC4/I2CVuggesystem_EZI2C.c ****     /*******************************************************************************
 200:.\Generated_Source\PSoC4/I2CVuggesystem_EZI2C.c ****     * Function Name: I2CVuggesystem_EzI2CInit
 201:.\Generated_Source\PSoC4/I2CVuggesystem_EZI2C.c ****     ********************************************************************************
 202:.\Generated_Source\PSoC4/I2CVuggesystem_EZI2C.c ****     *
 203:.\Generated_Source\PSoC4/I2CVuggesystem_EZI2C.c ****     * Summary:
 204:.\Generated_Source\PSoC4/I2CVuggesystem_EZI2C.c ****     *  Configures the SCB for the EZI2C operation.
 205:.\Generated_Source\PSoC4/I2CVuggesystem_EZI2C.c ****     *
 206:.\Generated_Source\PSoC4/I2CVuggesystem_EZI2C.c ****     * Parameters:
 207:.\Generated_Source\PSoC4/I2CVuggesystem_EZI2C.c ****     *  None
 208:.\Generated_Source\PSoC4/I2CVuggesystem_EZI2C.c ****     *
 209:.\Generated_Source\PSoC4/I2CVuggesystem_EZI2C.c ****     * Return:
 210:.\Generated_Source\PSoC4/I2CVuggesystem_EZI2C.c ****     *  None
 211:.\Generated_Source\PSoC4/I2CVuggesystem_EZI2C.c ****     *
 212:.\Generated_Source\PSoC4/I2CVuggesystem_EZI2C.c ****     *******************************************************************************/
 213:.\Generated_Source\PSoC4/I2CVuggesystem_EZI2C.c ****     void I2CVuggesystem_EzI2CInit(void)
 214:.\Generated_Source\PSoC4/I2CVuggesystem_EZI2C.c ****     {
  33              		.loc 1 214 0
  34              		.cfi_startproc
  35 0000 80B5     		push	{r7, lr}
  36              		.cfi_def_cfa_offset 8
  37              		.cfi_offset 7, -8
  38              		.cfi_offset 14, -4
  39 0002 00AF     		add	r7, sp, #0
  40              		.cfi_def_cfa_register 7
 215:.\Generated_Source\PSoC4/I2CVuggesystem_EZI2C.c ****         /* Configure I2C interface */
 216:.\Generated_Source\PSoC4/I2CVuggesystem_EZI2C.c ****         I2CVuggesystem_CTRL_REG     = I2CVuggesystem_EZI2C_DEFAULT_CTRL;
  41              		.loc 1 216 0
  42 0004 234B     		ldr	r3, .L2
  43 0006 0022     		mov	r2, #0
  44 0008 1A60     		str	r2, [r3]
 217:.\Generated_Source\PSoC4/I2CVuggesystem_EZI2C.c ****         I2CVuggesystem_I2C_CTRL_REG = I2CVuggesystem_EZI2C_DEFAULT_I2C_CTRL;
  45              		.loc 1 217 0
  46 000a 234B     		ldr	r3, .L2+4
  47 000c 234A     		ldr	r2, .L2+8
  48 000e 1A60     		str	r2, [r3]
 218:.\Generated_Source\PSoC4/I2CVuggesystem_EZI2C.c **** 
 219:.\Generated_Source\PSoC4/I2CVuggesystem_EZI2C.c ****     #if (I2CVuggesystem_CY_SCBIP_V0)
 220:.\Generated_Source\PSoC4/I2CVuggesystem_EZI2C.c ****         /* Adjust SDA filter settings. Ticket ID#150521 */
 221:.\Generated_Source\PSoC4/I2CVuggesystem_EZI2C.c ****         I2CVuggesystem_SET_I2C_CFG_SDA_FILT_TRIM(I2CVuggesystem_EC_AM_I2C_CFG_SDA_FILT_TRIM);
  49              		.loc 1 221 0
  50 0010 234B     		ldr	r3, .L2+12
  51 0012 234A     		ldr	r2, .L2+12
  52 0014 1268     		ldr	r2, [r2]
  53 0016 0C21     		mov	r1, #12
  54 0018 0A43     		orr	r2, r1
  55 001a 1A60     		str	r2, [r3]
 222:.\Generated_Source\PSoC4/I2CVuggesystem_EZI2C.c ****     #endif /* (I2CVuggesystem_CY_SCBIP_V0) */
 223:.\Generated_Source\PSoC4/I2CVuggesystem_EZI2C.c **** 
 224:.\Generated_Source\PSoC4/I2CVuggesystem_EZI2C.c ****         /* Configure RX direction */
 225:.\Generated_Source\PSoC4/I2CVuggesystem_EZI2C.c ****         I2CVuggesystem_RX_CTRL_REG      = I2CVuggesystem_EZI2C_DEFAULT_RX_CTRL;
  56              		.loc 1 225 0
  57 001c 214B     		ldr	r3, .L2+16
  58 001e 224A     		ldr	r2, .L2+20
  59 0020 1A60     		str	r2, [r3]
 226:.\Generated_Source\PSoC4/I2CVuggesystem_EZI2C.c ****         I2CVuggesystem_RX_FIFO_CTRL_REG = I2CVuggesystem_EZI2C_DEFAULT_RX_FIFO_CTRL;
ARM GAS  C:\Users\Felix\AppData\Local\Temp\ccyXa2fE.s 			page 6


  60              		.loc 1 226 0
  61 0022 224B     		ldr	r3, .L2+24
  62 0024 0022     		mov	r2, #0
  63 0026 1A60     		str	r2, [r3]
 227:.\Generated_Source\PSoC4/I2CVuggesystem_EZI2C.c **** 
 228:.\Generated_Source\PSoC4/I2CVuggesystem_EZI2C.c ****         /* Set default address and mask */
 229:.\Generated_Source\PSoC4/I2CVuggesystem_EZI2C.c ****         I2CVuggesystem_RX_MATCH_REG     = I2CVuggesystem_EZI2C_DEFAULT_RX_MATCH;
  64              		.loc 1 229 0
  65 0028 214B     		ldr	r3, .L2+28
  66 002a 224A     		ldr	r2, .L2+32
  67 002c 1A60     		str	r2, [r3]
 230:.\Generated_Source\PSoC4/I2CVuggesystem_EZI2C.c **** 
 231:.\Generated_Source\PSoC4/I2CVuggesystem_EZI2C.c ****         /* Configure TX direction */
 232:.\Generated_Source\PSoC4/I2CVuggesystem_EZI2C.c ****         I2CVuggesystem_TX_CTRL_REG      = I2CVuggesystem_EZI2C_DEFAULT_TX_CTRL;
  68              		.loc 1 232 0
  69 002e 224B     		ldr	r3, .L2+36
  70 0030 1D4A     		ldr	r2, .L2+20
  71 0032 1A60     		str	r2, [r3]
 233:.\Generated_Source\PSoC4/I2CVuggesystem_EZI2C.c ****         I2CVuggesystem_TX_FIFO_CTRL_REG = I2CVuggesystem_EZI2C_DEFAULT_TX_FIFO_CTRL;
  72              		.loc 1 233 0
  73 0034 214B     		ldr	r3, .L2+40
  74 0036 0022     		mov	r2, #0
  75 0038 1A60     		str	r2, [r3]
 234:.\Generated_Source\PSoC4/I2CVuggesystem_EZI2C.c **** 
 235:.\Generated_Source\PSoC4/I2CVuggesystem_EZI2C.c ****         /* Configure interrupt with EZI2C handler but do not enable it */
 236:.\Generated_Source\PSoC4/I2CVuggesystem_EZI2C.c ****     #if !defined (CY_EXTERNAL_INTERRUPT_CONFIG)
 237:.\Generated_Source\PSoC4/I2CVuggesystem_EZI2C.c ****         CyIntDisable    (I2CVuggesystem_ISR_NUMBER);
  76              		.loc 1 237 0
  77 003a 0A20     		mov	r0, #10
  78 003c FFF7FEFF 		bl	CyIntDisable
 238:.\Generated_Source\PSoC4/I2CVuggesystem_EZI2C.c ****         CyIntSetPriority(I2CVuggesystem_ISR_NUMBER, I2CVuggesystem_ISR_PRIORITY);
  79              		.loc 1 238 0
  80 0040 0A20     		mov	r0, #10
  81 0042 0321     		mov	r1, #3
  82 0044 FFF7FEFF 		bl	CyIntSetPriority
 239:.\Generated_Source\PSoC4/I2CVuggesystem_EZI2C.c **** 
 240:.\Generated_Source\PSoC4/I2CVuggesystem_EZI2C.c ****     #if (I2CVuggesystem_EZI2C_SCL_STRETCH_ENABLE_CONST)
 241:.\Generated_Source\PSoC4/I2CVuggesystem_EZI2C.c ****         (void) CyIntSetVector(I2CVuggesystem_ISR_NUMBER, &I2CVuggesystem_EZI2C_STRETCH_ISR);
  83              		.loc 1 241 0
  84 0048 1D4B     		ldr	r3, .L2+44
  85 004a 0A20     		mov	r0, #10
  86 004c 191C     		mov	r1, r3
  87 004e FFF7FEFF 		bl	CyIntSetVector
 242:.\Generated_Source\PSoC4/I2CVuggesystem_EZI2C.c ****     #else
 243:.\Generated_Source\PSoC4/I2CVuggesystem_EZI2C.c ****         (void) CyIntSetVector(I2CVuggesystem_ISR_NUMBER, &I2CVuggesystem_EZI2C_NO_STRETCH_ISR);
 244:.\Generated_Source\PSoC4/I2CVuggesystem_EZI2C.c ****     #endif /* (I2CVuggesystem_EZI2C_SCL_STRETCH_ENABLE_CONST) */
 245:.\Generated_Source\PSoC4/I2CVuggesystem_EZI2C.c **** 
 246:.\Generated_Source\PSoC4/I2CVuggesystem_EZI2C.c ****     #endif /* !defined (CY_EXTERNAL_INTERRUPT_CONFIG) */
 247:.\Generated_Source\PSoC4/I2CVuggesystem_EZI2C.c **** 
 248:.\Generated_Source\PSoC4/I2CVuggesystem_EZI2C.c ****         /* Configure interrupt sources */
 249:.\Generated_Source\PSoC4/I2CVuggesystem_EZI2C.c ****     #if (!I2CVuggesystem_CY_SCBIP_V1)
 250:.\Generated_Source\PSoC4/I2CVuggesystem_EZI2C.c ****         I2CVuggesystem_INTR_SPI_EC_MASK_REG = I2CVuggesystem_EZI2C_DEFAULT_INTR_SPI_EC_MASK;
  88              		.loc 1 250 0
  89 0052 1C4B     		ldr	r3, .L2+48
  90 0054 0022     		mov	r2, #0
  91 0056 1A60     		str	r2, [r3]
 251:.\Generated_Source\PSoC4/I2CVuggesystem_EZI2C.c ****     #endif /* (!I2CVuggesystem_CY_SCBIP_V1) */
ARM GAS  C:\Users\Felix\AppData\Local\Temp\ccyXa2fE.s 			page 7


 252:.\Generated_Source\PSoC4/I2CVuggesystem_EZI2C.c **** 
 253:.\Generated_Source\PSoC4/I2CVuggesystem_EZI2C.c ****         I2CVuggesystem_INTR_I2C_EC_MASK_REG = I2CVuggesystem_EZI2C_DEFAULT_INTR_I2C_EC_MASK;
  92              		.loc 1 253 0
  93 0058 1B4B     		ldr	r3, .L2+52
  94 005a 0022     		mov	r2, #0
  95 005c 1A60     		str	r2, [r3]
 254:.\Generated_Source\PSoC4/I2CVuggesystem_EZI2C.c ****         I2CVuggesystem_INTR_SLAVE_MASK_REG  = I2CVuggesystem_EZI2C_DEFAULT_INTR_SLAVE_MASK;
  96              		.loc 1 254 0
  97 005e 1B4B     		ldr	r3, .L2+56
  98 0060 5222     		mov	r2, #82
  99 0062 FF32     		add	r2, r2, #255
 100 0064 1A60     		str	r2, [r3]
 255:.\Generated_Source\PSoC4/I2CVuggesystem_EZI2C.c ****         I2CVuggesystem_INTR_MASTER_MASK_REG = I2CVuggesystem_EZI2C_DEFAULT_INTR_MASTER_MASK;
 101              		.loc 1 255 0
 102 0066 1A4B     		ldr	r3, .L2+60
 103 0068 0022     		mov	r2, #0
 104 006a 1A60     		str	r2, [r3]
 256:.\Generated_Source\PSoC4/I2CVuggesystem_EZI2C.c ****         I2CVuggesystem_INTR_RX_MASK_REG     = I2CVuggesystem_EZI2C_DEFAULT_INTR_RX_MASK;
 105              		.loc 1 256 0
 106 006c 194B     		ldr	r3, .L2+64
 107 006e 0022     		mov	r2, #0
 108 0070 1A60     		str	r2, [r3]
 257:.\Generated_Source\PSoC4/I2CVuggesystem_EZI2C.c ****         I2CVuggesystem_INTR_TX_MASK_REG     = I2CVuggesystem_EZI2C_DEFAULT_INTR_TX_MASK;
 109              		.loc 1 257 0
 110 0072 194B     		ldr	r3, .L2+68
 111 0074 0022     		mov	r2, #0
 112 0076 1A60     		str	r2, [r3]
 258:.\Generated_Source\PSoC4/I2CVuggesystem_EZI2C.c **** 
 259:.\Generated_Source\PSoC4/I2CVuggesystem_EZI2C.c ****         /* Configure global variables */
 260:.\Generated_Source\PSoC4/I2CVuggesystem_EZI2C.c ****         I2CVuggesystem_fsmState = I2CVuggesystem_EZI2C_FSM_IDLE;
 113              		.loc 1 260 0
 114 0078 184B     		ldr	r3, .L2+72
 115 007a 0022     		mov	r2, #0
 116 007c 1A70     		strb	r2, [r3]
 261:.\Generated_Source\PSoC4/I2CVuggesystem_EZI2C.c **** 
 262:.\Generated_Source\PSoC4/I2CVuggesystem_EZI2C.c ****         I2CVuggesystem_curStatus  = 0u;
 117              		.loc 1 262 0
 118 007e 184B     		ldr	r3, .L2+76
 119 0080 0022     		mov	r2, #0
 120 0082 1A70     		strb	r2, [r3]
 263:.\Generated_Source\PSoC4/I2CVuggesystem_EZI2C.c ****         I2CVuggesystem_indexBuf1  = 0u;
 121              		.loc 1 263 0
 122 0084 174B     		ldr	r3, .L2+80
 123 0086 0022     		mov	r2, #0
 124 0088 1A80     		strh	r2, [r3]
 264:.\Generated_Source\PSoC4/I2CVuggesystem_EZI2C.c ****         I2CVuggesystem_offsetBuf1 = 0u;
 125              		.loc 1 264 0
 126 008a 174B     		ldr	r3, .L2+84
 127 008c 0022     		mov	r2, #0
 128 008e 1A70     		strb	r2, [r3]
 265:.\Generated_Source\PSoC4/I2CVuggesystem_EZI2C.c **** 
 266:.\Generated_Source\PSoC4/I2CVuggesystem_EZI2C.c ****     #if(I2CVuggesystem_SECONDARY_ADDRESS_ENABLE_CONST)
 267:.\Generated_Source\PSoC4/I2CVuggesystem_EZI2C.c ****         I2CVuggesystem_indexBuf2  = 0u;
 268:.\Generated_Source\PSoC4/I2CVuggesystem_EZI2C.c ****         I2CVuggesystem_offsetBuf2 = 0u;
 269:.\Generated_Source\PSoC4/I2CVuggesystem_EZI2C.c **** 
 270:.\Generated_Source\PSoC4/I2CVuggesystem_EZI2C.c ****         I2CVuggesystem_addrBuf1 = I2CVuggesystem_EZI2C_PRIMARY_SLAVE_ADDRESS;
 271:.\Generated_Source\PSoC4/I2CVuggesystem_EZI2C.c ****         I2CVuggesystem_addrBuf2 = I2CVuggesystem_EZI2C_SECONDARY_SLAVE_ADDRESS;
ARM GAS  C:\Users\Felix\AppData\Local\Temp\ccyXa2fE.s 			page 8


 272:.\Generated_Source\PSoC4/I2CVuggesystem_EZI2C.c ****     #endif /* (I2CVuggesystem_SECONDARY_ADDRESS_ENABLE_CONST) */
 273:.\Generated_Source\PSoC4/I2CVuggesystem_EZI2C.c ****     }
 129              		.loc 1 273 0
 130 0090 BD46     		mov	sp, r7
 131              		@ sp needed
 132 0092 80BD     		pop	{r7, pc}
 133              	.L3:
 134              		.align	2
 135              	.L2:
 136 0094 00000640 		.word	1074135040
 137 0098 60000640 		.word	1074135136
 138 009c 00080040 		.word	1073743872
 139 00a0 70000640 		.word	1074135152
 140 00a4 00030640 		.word	1074135808
 141 00a8 07010080 		.word	-2147483385
 142 00ac 04030640 		.word	1074135812
 143 00b0 10030640 		.word	1074135824
 144 00b4 1000FE00 		.word	16646160
 145 00b8 00020640 		.word	1074135552
 146 00bc 04020640 		.word	1074135556
 147 00c0 00000000 		.word	I2CVuggesystem_EZI2C_STRETCH_ISR
 148 00c4 C80E0640 		.word	1074138824
 149 00c8 880E0640 		.word	1074138760
 150 00cc 480F0640 		.word	1074138952
 151 00d0 080F0640 		.word	1074138888
 152 00d4 C80F0640 		.word	1074139080
 153 00d8 880F0640 		.word	1074139016
 154 00dc 00000000 		.word	I2CVuggesystem_fsmState
 155 00e0 00000000 		.word	I2CVuggesystem_curStatus
 156 00e4 00000000 		.word	I2CVuggesystem_indexBuf1
 157 00e8 00000000 		.word	I2CVuggesystem_offsetBuf1
 158              		.cfi_endproc
 159              	.LFE0:
 160              		.size	I2CVuggesystem_EzI2CInit, .-I2CVuggesystem_EzI2CInit
 161              		.section	.text.I2CVuggesystem_EzI2CStop,"ax",%progbits
 162              		.align	2
 163              		.global	I2CVuggesystem_EzI2CStop
 164              		.code	16
 165              		.thumb_func
 166              		.type	I2CVuggesystem_EzI2CStop, %function
 167              	I2CVuggesystem_EzI2CStop:
 168              	.LFB1:
 274:.\Generated_Source\PSoC4/I2CVuggesystem_EZI2C.c **** #endif /* (I2CVuggesystem_SCB_MODE_UNCONFIG_CONST_CFG) */
 275:.\Generated_Source\PSoC4/I2CVuggesystem_EZI2C.c **** 
 276:.\Generated_Source\PSoC4/I2CVuggesystem_EZI2C.c **** 
 277:.\Generated_Source\PSoC4/I2CVuggesystem_EZI2C.c **** /*******************************************************************************
 278:.\Generated_Source\PSoC4/I2CVuggesystem_EZI2C.c **** * Function Name: I2CVuggesystem_EzI2CStop
 279:.\Generated_Source\PSoC4/I2CVuggesystem_EZI2C.c **** ********************************************************************************
 280:.\Generated_Source\PSoC4/I2CVuggesystem_EZI2C.c **** *
 281:.\Generated_Source\PSoC4/I2CVuggesystem_EZI2C.c **** * Summary:
 282:.\Generated_Source\PSoC4/I2CVuggesystem_EZI2C.c **** *  Resets the EZI2C FSM into a default state and disables TX interrupt sources.
 283:.\Generated_Source\PSoC4/I2CVuggesystem_EZI2C.c **** *
 284:.\Generated_Source\PSoC4/I2CVuggesystem_EZI2C.c **** * Parameters:
 285:.\Generated_Source\PSoC4/I2CVuggesystem_EZI2C.c **** *  None
 286:.\Generated_Source\PSoC4/I2CVuggesystem_EZI2C.c **** *
 287:.\Generated_Source\PSoC4/I2CVuggesystem_EZI2C.c **** * Return:
 288:.\Generated_Source\PSoC4/I2CVuggesystem_EZI2C.c **** *  None
ARM GAS  C:\Users\Felix\AppData\Local\Temp\ccyXa2fE.s 			page 9


 289:.\Generated_Source\PSoC4/I2CVuggesystem_EZI2C.c **** *
 290:.\Generated_Source\PSoC4/I2CVuggesystem_EZI2C.c **** *******************************************************************************/
 291:.\Generated_Source\PSoC4/I2CVuggesystem_EZI2C.c **** void I2CVuggesystem_EzI2CStop(void)
 292:.\Generated_Source\PSoC4/I2CVuggesystem_EZI2C.c **** {
 169              		.loc 1 292 0
 170              		.cfi_startproc
 171 0000 80B5     		push	{r7, lr}
 172              		.cfi_def_cfa_offset 8
 173              		.cfi_offset 7, -8
 174              		.cfi_offset 14, -4
 175 0002 00AF     		add	r7, sp, #0
 176              		.cfi_def_cfa_register 7
 293:.\Generated_Source\PSoC4/I2CVuggesystem_EZI2C.c ****     /* Disable TX interrupt sources in order not to  cause the false interrupts
 294:.\Generated_Source\PSoC4/I2CVuggesystem_EZI2C.c ****     * trigger. The incoming transaction will enable an appropriate TX interrupt.
 295:.\Generated_Source\PSoC4/I2CVuggesystem_EZI2C.c ****     */
 296:.\Generated_Source\PSoC4/I2CVuggesystem_EZI2C.c ****     I2CVuggesystem_SetTxInterruptMode(I2CVuggesystem_NO_INTR_SOURCES);
 177              		.loc 1 296 0
 178 0004 054B     		ldr	r3, .L5
 179 0006 0022     		mov	r2, #0
 180 0008 1A60     		str	r2, [r3]
 297:.\Generated_Source\PSoC4/I2CVuggesystem_EZI2C.c **** 
 298:.\Generated_Source\PSoC4/I2CVuggesystem_EZI2C.c **** #if(I2CVuggesystem_CY_SCBIP_V0)
 299:.\Generated_Source\PSoC4/I2CVuggesystem_EZI2C.c ****     /* Clear pending interrupt as after the block is disabled, the TX FIFO
 300:.\Generated_Source\PSoC4/I2CVuggesystem_EZI2C.c ****     * becomes empty and the block does not gate the interrupt sources when
 301:.\Generated_Source\PSoC4/I2CVuggesystem_EZI2C.c ****     * disabled.
 302:.\Generated_Source\PSoC4/I2CVuggesystem_EZI2C.c ****     */
 303:.\Generated_Source\PSoC4/I2CVuggesystem_EZI2C.c ****     I2CVuggesystem_ClearPendingInt();
 181              		.loc 1 303 0
 182 000a 0A20     		mov	r0, #10
 183 000c FFF7FEFF 		bl	CyIntClearPending
 304:.\Generated_Source\PSoC4/I2CVuggesystem_EZI2C.c **** #endif /* (I2CVuggesystem_CY_SCBIP_V0) */
 305:.\Generated_Source\PSoC4/I2CVuggesystem_EZI2C.c **** 
 306:.\Generated_Source\PSoC4/I2CVuggesystem_EZI2C.c ****     I2CVuggesystem_fsmState = I2CVuggesystem_EZI2C_FSM_IDLE;
 184              		.loc 1 306 0
 185 0010 034B     		ldr	r3, .L5+4
 186 0012 0022     		mov	r2, #0
 187 0014 1A70     		strb	r2, [r3]
 307:.\Generated_Source\PSoC4/I2CVuggesystem_EZI2C.c **** }
 188              		.loc 1 307 0
 189 0016 BD46     		mov	sp, r7
 190              		@ sp needed
 191 0018 80BD     		pop	{r7, pc}
 192              	.L6:
 193 001a C046     		.align	2
 194              	.L5:
 195 001c 880F0640 		.word	1074139016
 196 0020 00000000 		.word	I2CVuggesystem_fsmState
 197              		.cfi_endproc
 198              	.LFE1:
 199              		.size	I2CVuggesystem_EzI2CStop, .-I2CVuggesystem_EzI2CStop
 200              		.section	.text.I2CVuggesystem_EzI2CGetActivity,"ax",%progbits
 201              		.align	2
 202              		.global	I2CVuggesystem_EzI2CGetActivity
 203              		.code	16
 204              		.thumb_func
 205              		.type	I2CVuggesystem_EzI2CGetActivity, %function
 206              	I2CVuggesystem_EzI2CGetActivity:
ARM GAS  C:\Users\Felix\AppData\Local\Temp\ccyXa2fE.s 			page 10


 207              	.LFB2:
 308:.\Generated_Source\PSoC4/I2CVuggesystem_EZI2C.c **** 
 309:.\Generated_Source\PSoC4/I2CVuggesystem_EZI2C.c **** 
 310:.\Generated_Source\PSoC4/I2CVuggesystem_EZI2C.c **** /*******************************************************************************
 311:.\Generated_Source\PSoC4/I2CVuggesystem_EZI2C.c **** * Function Name: I2CVuggesystem_EzI2CGetActivity
 312:.\Generated_Source\PSoC4/I2CVuggesystem_EZI2C.c **** ********************************************************************************
 313:.\Generated_Source\PSoC4/I2CVuggesystem_EZI2C.c **** *
 314:.\Generated_Source\PSoC4/I2CVuggesystem_EZI2C.c **** * Summary:
 315:.\Generated_Source\PSoC4/I2CVuggesystem_EZI2C.c **** *  Returns the EZI2C slave status.
 316:.\Generated_Source\PSoC4/I2CVuggesystem_EZI2C.c **** *  The read, write and error status flags reset to zero after this function
 317:.\Generated_Source\PSoC4/I2CVuggesystem_EZI2C.c **** *  call. The busy status flag is cleared when the transaction intended for
 318:.\Generated_Source\PSoC4/I2CVuggesystem_EZI2C.c **** *  the EZI2C slave completes.
 319:.\Generated_Source\PSoC4/I2CVuggesystem_EZI2C.c **** *
 320:.\Generated_Source\PSoC4/I2CVuggesystem_EZI2C.c **** * Parameters:
 321:.\Generated_Source\PSoC4/I2CVuggesystem_EZI2C.c **** *  None
 322:.\Generated_Source\PSoC4/I2CVuggesystem_EZI2C.c **** *
 323:.\Generated_Source\PSoC4/I2CVuggesystem_EZI2C.c **** * Return:
 324:.\Generated_Source\PSoC4/I2CVuggesystem_EZI2C.c **** *  Returns the status of the EZI2C Slave activity.
 325:.\Generated_Source\PSoC4/I2CVuggesystem_EZI2C.c **** *
 326:.\Generated_Source\PSoC4/I2CVuggesystem_EZI2C.c **** *******************************************************************************/
 327:.\Generated_Source\PSoC4/I2CVuggesystem_EZI2C.c **** uint32 I2CVuggesystem_EzI2CGetActivity(void)
 328:.\Generated_Source\PSoC4/I2CVuggesystem_EZI2C.c **** {
 208              		.loc 1 328 0
 209              		.cfi_startproc
 210 0000 80B5     		push	{r7, lr}
 211              		.cfi_def_cfa_offset 8
 212              		.cfi_offset 7, -8
 213              		.cfi_offset 14, -4
 214 0002 82B0     		sub	sp, sp, #8
 215              		.cfi_def_cfa_offset 16
 216 0004 00AF     		add	r7, sp, #0
 217              		.cfi_def_cfa_register 7
 329:.\Generated_Source\PSoC4/I2CVuggesystem_EZI2C.c ****     uint32 status;
 330:.\Generated_Source\PSoC4/I2CVuggesystem_EZI2C.c **** 
 331:.\Generated_Source\PSoC4/I2CVuggesystem_EZI2C.c ****     I2CVuggesystem_DisableInt();  /* Lock from interruption */
 218              		.loc 1 331 0
 219 0006 0A20     		mov	r0, #10
 220 0008 FFF7FEFF 		bl	CyIntDisable
 332:.\Generated_Source\PSoC4/I2CVuggesystem_EZI2C.c **** 
 333:.\Generated_Source\PSoC4/I2CVuggesystem_EZI2C.c ****     status = I2CVuggesystem_curStatus;
 221              		.loc 1 333 0
 222 000c 094B     		ldr	r3, .L9
 223 000e 1B78     		ldrb	r3, [r3]
 224 0010 DBB2     		uxtb	r3, r3
 225 0012 7B60     		str	r3, [r7, #4]
 334:.\Generated_Source\PSoC4/I2CVuggesystem_EZI2C.c **** 
 335:.\Generated_Source\PSoC4/I2CVuggesystem_EZI2C.c ****     /* Relay on address match event from HW as bus busy status */
 336:.\Generated_Source\PSoC4/I2CVuggesystem_EZI2C.c ****     #if(I2CVuggesystem_EZI2C_SCL_STRETCH_DISABLE)
 337:.\Generated_Source\PSoC4/I2CVuggesystem_EZI2C.c ****     {
 338:.\Generated_Source\PSoC4/I2CVuggesystem_EZI2C.c ****         /* For I2CVuggesystem_CY_SCBIP_V0 the wake is prohibited by customizer */
 339:.\Generated_Source\PSoC4/I2CVuggesystem_EZI2C.c ****         #if(I2CVuggesystem_EZI2C_EC_AM_ENABLE)
 340:.\Generated_Source\PSoC4/I2CVuggesystem_EZI2C.c ****         {
 341:.\Generated_Source\PSoC4/I2CVuggesystem_EZI2C.c ****             status |= I2CVuggesystem_CHECK_INTR_I2C_EC(I2CVuggesystem_INTR_I2C_EC_WAKE_UP) ?
 342:.\Generated_Source\PSoC4/I2CVuggesystem_EZI2C.c ****                         I2CVuggesystem_EZI2C_STATUS_BUSY : 0u;
 343:.\Generated_Source\PSoC4/I2CVuggesystem_EZI2C.c ****         }
 344:.\Generated_Source\PSoC4/I2CVuggesystem_EZI2C.c ****         #else
 345:.\Generated_Source\PSoC4/I2CVuggesystem_EZI2C.c ****         {
ARM GAS  C:\Users\Felix\AppData\Local\Temp\ccyXa2fE.s 			page 11


 346:.\Generated_Source\PSoC4/I2CVuggesystem_EZI2C.c ****             status |= I2CVuggesystem_CHECK_INTR_SLAVE(I2CVuggesystem_INTR_SLAVE_I2C_ADDR_MATCH) ?
 347:.\Generated_Source\PSoC4/I2CVuggesystem_EZI2C.c ****                         I2CVuggesystem_EZI2C_STATUS_BUSY : 0u;
 348:.\Generated_Source\PSoC4/I2CVuggesystem_EZI2C.c ****         }
 349:.\Generated_Source\PSoC4/I2CVuggesystem_EZI2C.c ****         #endif
 350:.\Generated_Source\PSoC4/I2CVuggesystem_EZI2C.c ****     }
 351:.\Generated_Source\PSoC4/I2CVuggesystem_EZI2C.c ****     #endif
 352:.\Generated_Source\PSoC4/I2CVuggesystem_EZI2C.c **** 
 353:.\Generated_Source\PSoC4/I2CVuggesystem_EZI2C.c ****     I2CVuggesystem_curStatus &= ((uint8) ~I2CVuggesystem_EZI2C_CLEAR_STATUS);
 226              		.loc 1 353 0
 227 0014 074B     		ldr	r3, .L9
 228 0016 1B78     		ldrb	r3, [r3]
 229 0018 DBB2     		uxtb	r3, r3
 230 001a 1F22     		mov	r2, #31
 231 001c 9343     		bic	r3, r2
 232 001e DAB2     		uxtb	r2, r3
 233 0020 044B     		ldr	r3, .L9
 234 0022 1A70     		strb	r2, [r3]
 354:.\Generated_Source\PSoC4/I2CVuggesystem_EZI2C.c **** 
 355:.\Generated_Source\PSoC4/I2CVuggesystem_EZI2C.c ****     I2CVuggesystem_EnableInt();   /* Release lock */
 235              		.loc 1 355 0
 236 0024 0A20     		mov	r0, #10
 237 0026 FFF7FEFF 		bl	CyIntEnable
 356:.\Generated_Source\PSoC4/I2CVuggesystem_EZI2C.c **** 
 357:.\Generated_Source\PSoC4/I2CVuggesystem_EZI2C.c ****     return(status);
 238              		.loc 1 357 0
 239 002a 7B68     		ldr	r3, [r7, #4]
 358:.\Generated_Source\PSoC4/I2CVuggesystem_EZI2C.c **** }
 240              		.loc 1 358 0
 241 002c 181C     		mov	r0, r3
 242 002e BD46     		mov	sp, r7
 243 0030 02B0     		add	sp, sp, #8
 244              		@ sp needed
 245 0032 80BD     		pop	{r7, pc}
 246              	.L10:
 247              		.align	2
 248              	.L9:
 249 0034 00000000 		.word	I2CVuggesystem_curStatus
 250              		.cfi_endproc
 251              	.LFE2:
 252              		.size	I2CVuggesystem_EzI2CGetActivity, .-I2CVuggesystem_EzI2CGetActivity
 253              		.section	.text.I2CVuggesystem_EzI2CSetAddress1,"ax",%progbits
 254              		.align	2
 255              		.global	I2CVuggesystem_EzI2CSetAddress1
 256              		.code	16
 257              		.thumb_func
 258              		.type	I2CVuggesystem_EzI2CSetAddress1, %function
 259              	I2CVuggesystem_EzI2CSetAddress1:
 260              	.LFB3:
 359:.\Generated_Source\PSoC4/I2CVuggesystem_EZI2C.c **** 
 360:.\Generated_Source\PSoC4/I2CVuggesystem_EZI2C.c **** 
 361:.\Generated_Source\PSoC4/I2CVuggesystem_EZI2C.c **** /*******************************************************************************
 362:.\Generated_Source\PSoC4/I2CVuggesystem_EZI2C.c **** * Function Name: I2CVuggesystem_EzI2CSetAddress1
 363:.\Generated_Source\PSoC4/I2CVuggesystem_EZI2C.c **** ********************************************************************************
 364:.\Generated_Source\PSoC4/I2CVuggesystem_EZI2C.c **** *
 365:.\Generated_Source\PSoC4/I2CVuggesystem_EZI2C.c **** * Summary:
 366:.\Generated_Source\PSoC4/I2CVuggesystem_EZI2C.c **** *  Sets the primary I2C slave address.
 367:.\Generated_Source\PSoC4/I2CVuggesystem_EZI2C.c **** *
ARM GAS  C:\Users\Felix\AppData\Local\Temp\ccyXa2fE.s 			page 12


 368:.\Generated_Source\PSoC4/I2CVuggesystem_EZI2C.c **** * Parameters:
 369:.\Generated_Source\PSoC4/I2CVuggesystem_EZI2C.c **** *  address: I2C slave address for the secondary device.
 370:.\Generated_Source\PSoC4/I2CVuggesystem_EZI2C.c **** *           This address is the 7-bit right-justified slave address and does
 371:.\Generated_Source\PSoC4/I2CVuggesystem_EZI2C.c **** *           not include the R/W bit.
 372:.\Generated_Source\PSoC4/I2CVuggesystem_EZI2C.c **** *           This value may be any address between 0 and 127 (0x00 to 0x7F).
 373:.\Generated_Source\PSoC4/I2CVuggesystem_EZI2C.c **** *
 374:.\Generated_Source\PSoC4/I2CVuggesystem_EZI2C.c **** * Return:
 375:.\Generated_Source\PSoC4/I2CVuggesystem_EZI2C.c **** *  None
 376:.\Generated_Source\PSoC4/I2CVuggesystem_EZI2C.c **** *
 377:.\Generated_Source\PSoC4/I2CVuggesystem_EZI2C.c **** *******************************************************************************/
 378:.\Generated_Source\PSoC4/I2CVuggesystem_EZI2C.c **** void I2CVuggesystem_EzI2CSetAddress1(uint32 address)
 379:.\Generated_Source\PSoC4/I2CVuggesystem_EZI2C.c **** {
 261              		.loc 1 379 0
 262              		.cfi_startproc
 263 0000 80B5     		push	{r7, lr}
 264              		.cfi_def_cfa_offset 8
 265              		.cfi_offset 7, -8
 266              		.cfi_offset 14, -4
 267 0002 84B0     		sub	sp, sp, #16
 268              		.cfi_def_cfa_offset 24
 269 0004 00AF     		add	r7, sp, #0
 270              		.cfi_def_cfa_register 7
 271 0006 7860     		str	r0, [r7, #4]
 272              	.LBB2:
 380:.\Generated_Source\PSoC4/I2CVuggesystem_EZI2C.c ****     #if(I2CVuggesystem_SECONDARY_ADDRESS_ENABLE)
 381:.\Generated_Source\PSoC4/I2CVuggesystem_EZI2C.c ****     {
 382:.\Generated_Source\PSoC4/I2CVuggesystem_EZI2C.c ****         I2CVuggesystem_addrBuf1 = (uint8) address;
 383:.\Generated_Source\PSoC4/I2CVuggesystem_EZI2C.c **** 
 384:.\Generated_Source\PSoC4/I2CVuggesystem_EZI2C.c ****         I2CVuggesystem_RX_MATCH_REG = I2CVuggesystem_EzI2CUpdateRxMatchReg(address,
 385:.\Generated_Source\PSoC4/I2CVuggesystem_EZI2C.c ****                                                                                (uint32) I2CVuggesys
 386:.\Generated_Source\PSoC4/I2CVuggesystem_EZI2C.c ****     }
 387:.\Generated_Source\PSoC4/I2CVuggesystem_EZI2C.c ****     #else
 388:.\Generated_Source\PSoC4/I2CVuggesystem_EZI2C.c ****     {
 389:.\Generated_Source\PSoC4/I2CVuggesystem_EZI2C.c ****         uint32 matchReg;
 390:.\Generated_Source\PSoC4/I2CVuggesystem_EZI2C.c **** 
 391:.\Generated_Source\PSoC4/I2CVuggesystem_EZI2C.c ****         matchReg = I2CVuggesystem_RX_MATCH_REG;
 273              		.loc 1 391 0
 274 0008 094B     		ldr	r3, .L12
 275 000a 1B68     		ldr	r3, [r3]
 276 000c FB60     		str	r3, [r7, #12]
 392:.\Generated_Source\PSoC4/I2CVuggesystem_EZI2C.c **** 
 393:.\Generated_Source\PSoC4/I2CVuggesystem_EZI2C.c ****         matchReg &= ((uint32) ~I2CVuggesystem_RX_MATCH_ADDR_MASK);            /* Clear address bits
 277              		.loc 1 393 0
 278 000e FB68     		ldr	r3, [r7, #12]
 279 0010 FF22     		mov	r2, #255
 280 0012 9343     		bic	r3, r2
 281 0014 FB60     		str	r3, [r7, #12]
 394:.\Generated_Source\PSoC4/I2CVuggesystem_EZI2C.c ****         matchReg |= ((uint32)  I2CVuggesystem_GET_I2C_8BIT_ADDRESS(address)); /* Set mask */
 282              		.loc 1 394 0
 283 0016 7B68     		ldr	r3, [r7, #4]
 284 0018 5A00     		lsl	r2, r3, #1
 285 001a FF23     		mov	r3, #255
 286 001c 1340     		and	r3, r2
 287 001e FA68     		ldr	r2, [r7, #12]
 288 0020 1343     		orr	r3, r2
 289 0022 FB60     		str	r3, [r7, #12]
 395:.\Generated_Source\PSoC4/I2CVuggesystem_EZI2C.c **** 
ARM GAS  C:\Users\Felix\AppData\Local\Temp\ccyXa2fE.s 			page 13


 396:.\Generated_Source\PSoC4/I2CVuggesystem_EZI2C.c ****         I2CVuggesystem_RX_MATCH_REG = matchReg;
 290              		.loc 1 396 0
 291 0024 024B     		ldr	r3, .L12
 292 0026 FA68     		ldr	r2, [r7, #12]
 293 0028 1A60     		str	r2, [r3]
 294              	.LBE2:
 397:.\Generated_Source\PSoC4/I2CVuggesystem_EZI2C.c ****     }
 398:.\Generated_Source\PSoC4/I2CVuggesystem_EZI2C.c ****     #endif
 399:.\Generated_Source\PSoC4/I2CVuggesystem_EZI2C.c **** }
 295              		.loc 1 399 0
 296 002a BD46     		mov	sp, r7
 297 002c 04B0     		add	sp, sp, #16
 298              		@ sp needed
 299 002e 80BD     		pop	{r7, pc}
 300              	.L13:
 301              		.align	2
 302              	.L12:
 303 0030 10030640 		.word	1074135824
 304              		.cfi_endproc
 305              	.LFE3:
 306              		.size	I2CVuggesystem_EzI2CSetAddress1, .-I2CVuggesystem_EzI2CSetAddress1
 307              		.section	.text.I2CVuggesystem_EzI2CGetAddress1,"ax",%progbits
 308              		.align	2
 309              		.global	I2CVuggesystem_EzI2CGetAddress1
 310              		.code	16
 311              		.thumb_func
 312              		.type	I2CVuggesystem_EzI2CGetAddress1, %function
 313              	I2CVuggesystem_EzI2CGetAddress1:
 314              	.LFB4:
 400:.\Generated_Source\PSoC4/I2CVuggesystem_EZI2C.c **** 
 401:.\Generated_Source\PSoC4/I2CVuggesystem_EZI2C.c **** 
 402:.\Generated_Source\PSoC4/I2CVuggesystem_EZI2C.c **** /*******************************************************************************
 403:.\Generated_Source\PSoC4/I2CVuggesystem_EZI2C.c **** * Function Name: I2CVuggesystem_EzI2CGetAddress1
 404:.\Generated_Source\PSoC4/I2CVuggesystem_EZI2C.c **** ********************************************************************************
 405:.\Generated_Source\PSoC4/I2CVuggesystem_EZI2C.c **** *
 406:.\Generated_Source\PSoC4/I2CVuggesystem_EZI2C.c **** * Summary:
 407:.\Generated_Source\PSoC4/I2CVuggesystem_EZI2C.c **** *  Gets the primary I2C slave 7-bit address.
 408:.\Generated_Source\PSoC4/I2CVuggesystem_EZI2C.c **** *
 409:.\Generated_Source\PSoC4/I2CVuggesystem_EZI2C.c **** * Parameters:
 410:.\Generated_Source\PSoC4/I2CVuggesystem_EZI2C.c **** *  None
 411:.\Generated_Source\PSoC4/I2CVuggesystem_EZI2C.c **** *
 412:.\Generated_Source\PSoC4/I2CVuggesystem_EZI2C.c **** * Return:
 413:.\Generated_Source\PSoC4/I2CVuggesystem_EZI2C.c **** *  Returns I2C slave address for the primary device.
 414:.\Generated_Source\PSoC4/I2CVuggesystem_EZI2C.c **** *  This address is the 7-bit right-justified slave address and does not
 415:.\Generated_Source\PSoC4/I2CVuggesystem_EZI2C.c **** *  include the R/W bit.
 416:.\Generated_Source\PSoC4/I2CVuggesystem_EZI2C.c **** *  This value may be any address between 0 and 127 (0x00 to 0x7F).
 417:.\Generated_Source\PSoC4/I2CVuggesystem_EZI2C.c **** *
 418:.\Generated_Source\PSoC4/I2CVuggesystem_EZI2C.c **** *******************************************************************************/
 419:.\Generated_Source\PSoC4/I2CVuggesystem_EZI2C.c **** uint32 I2CVuggesystem_EzI2CGetAddress1(void)
 420:.\Generated_Source\PSoC4/I2CVuggesystem_EZI2C.c **** {
 315              		.loc 1 420 0
 316              		.cfi_startproc
 317 0000 80B5     		push	{r7, lr}
 318              		.cfi_def_cfa_offset 8
 319              		.cfi_offset 7, -8
 320              		.cfi_offset 14, -4
 321 0002 82B0     		sub	sp, sp, #8
ARM GAS  C:\Users\Felix\AppData\Local\Temp\ccyXa2fE.s 			page 14


 322              		.cfi_def_cfa_offset 16
 323 0004 00AF     		add	r7, sp, #0
 324              		.cfi_def_cfa_register 7
 421:.\Generated_Source\PSoC4/I2CVuggesystem_EZI2C.c ****     uint32 address;
 422:.\Generated_Source\PSoC4/I2CVuggesystem_EZI2C.c **** 
 423:.\Generated_Source\PSoC4/I2CVuggesystem_EZI2C.c ****     #if(I2CVuggesystem_SECONDARY_ADDRESS_ENABLE)
 424:.\Generated_Source\PSoC4/I2CVuggesystem_EZI2C.c ****     {
 425:.\Generated_Source\PSoC4/I2CVuggesystem_EZI2C.c ****         address = (uint32) I2CVuggesystem_addrBuf1;
 426:.\Generated_Source\PSoC4/I2CVuggesystem_EZI2C.c ****     }
 427:.\Generated_Source\PSoC4/I2CVuggesystem_EZI2C.c ****     #else
 428:.\Generated_Source\PSoC4/I2CVuggesystem_EZI2C.c ****     {
 429:.\Generated_Source\PSoC4/I2CVuggesystem_EZI2C.c ****         address = (I2CVuggesystem_GET_RX_MATCH_ADDR(I2CVuggesystem_RX_MATCH_REG) >>
 325              		.loc 1 429 0
 326 0006 054B     		ldr	r3, .L16
 327 0008 1A68     		ldr	r2, [r3]
 328 000a FF23     		mov	r3, #255
 329 000c 1340     		and	r3, r2
 330 000e 5B08     		lsr	r3, r3, #1
 331 0010 7B60     		str	r3, [r7, #4]
 430:.\Generated_Source\PSoC4/I2CVuggesystem_EZI2C.c ****                    I2CVuggesystem_I2C_SLAVE_ADDR_POS);
 431:.\Generated_Source\PSoC4/I2CVuggesystem_EZI2C.c ****     }
 432:.\Generated_Source\PSoC4/I2CVuggesystem_EZI2C.c ****     #endif
 433:.\Generated_Source\PSoC4/I2CVuggesystem_EZI2C.c **** 
 434:.\Generated_Source\PSoC4/I2CVuggesystem_EZI2C.c ****     return(address);
 332              		.loc 1 434 0
 333 0012 7B68     		ldr	r3, [r7, #4]
 435:.\Generated_Source\PSoC4/I2CVuggesystem_EZI2C.c **** }
 334              		.loc 1 435 0
 335 0014 181C     		mov	r0, r3
 336 0016 BD46     		mov	sp, r7
 337 0018 02B0     		add	sp, sp, #8
 338              		@ sp needed
 339 001a 80BD     		pop	{r7, pc}
 340              	.L17:
 341              		.align	2
 342              	.L16:
 343 001c 10030640 		.word	1074135824
 344              		.cfi_endproc
 345              	.LFE4:
 346              		.size	I2CVuggesystem_EzI2CGetAddress1, .-I2CVuggesystem_EzI2CGetAddress1
 347              		.section	.text.I2CVuggesystem_EzI2CSetBuffer1,"ax",%progbits
 348              		.align	2
 349              		.global	I2CVuggesystem_EzI2CSetBuffer1
 350              		.code	16
 351              		.thumb_func
 352              		.type	I2CVuggesystem_EzI2CSetBuffer1, %function
 353              	I2CVuggesystem_EzI2CSetBuffer1:
 354              	.LFB5:
 436:.\Generated_Source\PSoC4/I2CVuggesystem_EZI2C.c **** 
 437:.\Generated_Source\PSoC4/I2CVuggesystem_EZI2C.c **** 
 438:.\Generated_Source\PSoC4/I2CVuggesystem_EZI2C.c **** /*******************************************************************************
 439:.\Generated_Source\PSoC4/I2CVuggesystem_EZI2C.c **** * Function Name: I2CVuggesystem_EzI2CSetBuffer1
 440:.\Generated_Source\PSoC4/I2CVuggesystem_EZI2C.c **** ********************************************************************************
 441:.\Generated_Source\PSoC4/I2CVuggesystem_EZI2C.c **** *
 442:.\Generated_Source\PSoC4/I2CVuggesystem_EZI2C.c **** * Summary:
 443:.\Generated_Source\PSoC4/I2CVuggesystem_EZI2C.c **** *  Sets up the data buffer to be exposed to the I2C master on a primary slave
 444:.\Generated_Source\PSoC4/I2CVuggesystem_EZI2C.c **** *  address request.
ARM GAS  C:\Users\Felix\AppData\Local\Temp\ccyXa2fE.s 			page 15


 445:.\Generated_Source\PSoC4/I2CVuggesystem_EZI2C.c **** *
 446:.\Generated_Source\PSoC4/I2CVuggesystem_EZI2C.c **** * Parameters:
 447:.\Generated_Source\PSoC4/I2CVuggesystem_EZI2C.c **** *  bufSize: Size of the buffer in bytes.
 448:.\Generated_Source\PSoC4/I2CVuggesystem_EZI2C.c **** *  rwBoundary: Sets how many bytes are writeable in the beginning of the buffer.
 449:.\Generated_Source\PSoC4/I2CVuggesystem_EZI2C.c **** *              This value must be less than or equal to the buffer size.
 450:.\Generated_Source\PSoC4/I2CVuggesystem_EZI2C.c **** *              Data located at offset rwBoundry and greater are read only.
 451:.\Generated_Source\PSoC4/I2CVuggesystem_EZI2C.c **** *  buffer: Pointer to the data buffer.
 452:.\Generated_Source\PSoC4/I2CVuggesystem_EZI2C.c **** *
 453:.\Generated_Source\PSoC4/I2CVuggesystem_EZI2C.c **** * Return:
 454:.\Generated_Source\PSoC4/I2CVuggesystem_EZI2C.c **** *  None
 455:.\Generated_Source\PSoC4/I2CVuggesystem_EZI2C.c **** *
 456:.\Generated_Source\PSoC4/I2CVuggesystem_EZI2C.c **** *******************************************************************************/
 457:.\Generated_Source\PSoC4/I2CVuggesystem_EZI2C.c **** void I2CVuggesystem_EzI2CSetBuffer1(uint32 bufSize, uint32 rwBoundary, volatile uint8 * buffer)
 458:.\Generated_Source\PSoC4/I2CVuggesystem_EZI2C.c **** {
 355              		.loc 1 458 0
 356              		.cfi_startproc
 357 0000 80B5     		push	{r7, lr}
 358              		.cfi_def_cfa_offset 8
 359              		.cfi_offset 7, -8
 360              		.cfi_offset 14, -4
 361 0002 84B0     		sub	sp, sp, #16
 362              		.cfi_def_cfa_offset 24
 363 0004 00AF     		add	r7, sp, #0
 364              		.cfi_def_cfa_register 7
 365 0006 F860     		str	r0, [r7, #12]
 366 0008 B960     		str	r1, [r7, #8]
 367 000a 7A60     		str	r2, [r7, #4]
 459:.\Generated_Source\PSoC4/I2CVuggesystem_EZI2C.c ****     if (NULL != buffer)
 368              		.loc 1 459 0
 369 000c 7B68     		ldr	r3, [r7, #4]
 370 000e 002B     		cmp	r3, #0
 371 0010 10D0     		beq	.L18
 460:.\Generated_Source\PSoC4/I2CVuggesystem_EZI2C.c ****     {
 461:.\Generated_Source\PSoC4/I2CVuggesystem_EZI2C.c ****         I2CVuggesystem_DisableInt();  /* Lock from interruption */
 372              		.loc 1 461 0
 373 0012 0A20     		mov	r0, #10
 374 0014 FFF7FEFF 		bl	CyIntDisable
 462:.\Generated_Source\PSoC4/I2CVuggesystem_EZI2C.c **** 
 463:.\Generated_Source\PSoC4/I2CVuggesystem_EZI2C.c ****         I2CVuggesystem_dataBuffer1 =  buffer;
 375              		.loc 1 463 0
 376 0018 084B     		ldr	r3, .L20
 377 001a 7A68     		ldr	r2, [r7, #4]
 378 001c 1A60     		str	r2, [r3]
 464:.\Generated_Source\PSoC4/I2CVuggesystem_EZI2C.c ****         I2CVuggesystem_bufSizeBuf1 = (uint16) bufSize;
 379              		.loc 1 464 0
 380 001e FB68     		ldr	r3, [r7, #12]
 381 0020 9AB2     		uxth	r2, r3
 382 0022 074B     		ldr	r3, .L20+4
 383 0024 1A80     		strh	r2, [r3]
 465:.\Generated_Source\PSoC4/I2CVuggesystem_EZI2C.c ****         I2CVuggesystem_protectBuf1 = (uint16) rwBoundary;
 384              		.loc 1 465 0
 385 0026 BB68     		ldr	r3, [r7, #8]
 386 0028 9AB2     		uxth	r2, r3
 387 002a 064B     		ldr	r3, .L20+8
 388 002c 1A80     		strh	r2, [r3]
 466:.\Generated_Source\PSoC4/I2CVuggesystem_EZI2C.c **** 
 467:.\Generated_Source\PSoC4/I2CVuggesystem_EZI2C.c ****         I2CVuggesystem_EnableInt();   /* Release lock */
ARM GAS  C:\Users\Felix\AppData\Local\Temp\ccyXa2fE.s 			page 16


 389              		.loc 1 467 0
 390 002e 0A20     		mov	r0, #10
 391 0030 FFF7FEFF 		bl	CyIntEnable
 392              	.L18:
 468:.\Generated_Source\PSoC4/I2CVuggesystem_EZI2C.c ****     }
 469:.\Generated_Source\PSoC4/I2CVuggesystem_EZI2C.c **** }
 393              		.loc 1 469 0
 394 0034 BD46     		mov	sp, r7
 395 0036 04B0     		add	sp, sp, #16
 396              		@ sp needed
 397 0038 80BD     		pop	{r7, pc}
 398              	.L21:
 399 003a C046     		.align	2
 400              	.L20:
 401 003c 00000000 		.word	I2CVuggesystem_dataBuffer1
 402 0040 00000000 		.word	I2CVuggesystem_bufSizeBuf1
 403 0044 00000000 		.word	I2CVuggesystem_protectBuf1
 404              		.cfi_endproc
 405              	.LFE5:
 406              		.size	I2CVuggesystem_EzI2CSetBuffer1, .-I2CVuggesystem_EzI2CSetBuffer1
 407              		.section	.text.I2CVuggesystem_EzI2CSetReadBoundaryBuffer1,"ax",%progbits
 408              		.align	2
 409              		.global	I2CVuggesystem_EzI2CSetReadBoundaryBuffer1
 410              		.code	16
 411              		.thumb_func
 412              		.type	I2CVuggesystem_EzI2CSetReadBoundaryBuffer1, %function
 413              	I2CVuggesystem_EzI2CSetReadBoundaryBuffer1:
 414              	.LFB6:
 470:.\Generated_Source\PSoC4/I2CVuggesystem_EZI2C.c **** 
 471:.\Generated_Source\PSoC4/I2CVuggesystem_EZI2C.c **** 
 472:.\Generated_Source\PSoC4/I2CVuggesystem_EZI2C.c **** /*******************************************************************************
 473:.\Generated_Source\PSoC4/I2CVuggesystem_EZI2C.c **** * Function Name: I2CVuggesystem_EzI2CSetReadBoundaryBuffer1
 474:.\Generated_Source\PSoC4/I2CVuggesystem_EZI2C.c **** ********************************************************************************
 475:.\Generated_Source\PSoC4/I2CVuggesystem_EZI2C.c **** *
 476:.\Generated_Source\PSoC4/I2CVuggesystem_EZI2C.c **** * Summary:
 477:.\Generated_Source\PSoC4/I2CVuggesystem_EZI2C.c **** *  Sets the read only boundary in the data buffer to be exposed to the I2C
 478:.\Generated_Source\PSoC4/I2CVuggesystem_EZI2C.c **** *  master on a primary slave address request.
 479:.\Generated_Source\PSoC4/I2CVuggesystem_EZI2C.c **** *
 480:.\Generated_Source\PSoC4/I2CVuggesystem_EZI2C.c **** * Parameters:
 481:.\Generated_Source\PSoC4/I2CVuggesystem_EZI2C.c **** *  rwBoundry: Sets how many bytes are writeable in the beginning of the buffer.
 482:.\Generated_Source\PSoC4/I2CVuggesystem_EZI2C.c **** *             This value must be less than or equal to the buffer size.
 483:.\Generated_Source\PSoC4/I2CVuggesystem_EZI2C.c **** *             Data located at offset rwBoundry and greater are read only.
 484:.\Generated_Source\PSoC4/I2CVuggesystem_EZI2C.c **** *
 485:.\Generated_Source\PSoC4/I2CVuggesystem_EZI2C.c **** * Return:
 486:.\Generated_Source\PSoC4/I2CVuggesystem_EZI2C.c **** *  None
 487:.\Generated_Source\PSoC4/I2CVuggesystem_EZI2C.c **** *
 488:.\Generated_Source\PSoC4/I2CVuggesystem_EZI2C.c **** *******************************************************************************/
 489:.\Generated_Source\PSoC4/I2CVuggesystem_EZI2C.c **** void I2CVuggesystem_EzI2CSetReadBoundaryBuffer1(uint32 rwBoundary)
 490:.\Generated_Source\PSoC4/I2CVuggesystem_EZI2C.c **** {
 415              		.loc 1 490 0
 416              		.cfi_startproc
 417 0000 80B5     		push	{r7, lr}
 418              		.cfi_def_cfa_offset 8
 419              		.cfi_offset 7, -8
 420              		.cfi_offset 14, -4
 421 0002 82B0     		sub	sp, sp, #8
 422              		.cfi_def_cfa_offset 16
ARM GAS  C:\Users\Felix\AppData\Local\Temp\ccyXa2fE.s 			page 17


 423 0004 00AF     		add	r7, sp, #0
 424              		.cfi_def_cfa_register 7
 425 0006 7860     		str	r0, [r7, #4]
 491:.\Generated_Source\PSoC4/I2CVuggesystem_EZI2C.c ****     I2CVuggesystem_protectBuf1 = (uint16) rwBoundary;
 426              		.loc 1 491 0
 427 0008 7B68     		ldr	r3, [r7, #4]
 428 000a 9AB2     		uxth	r2, r3
 429 000c 024B     		ldr	r3, .L23
 430 000e 1A80     		strh	r2, [r3]
 492:.\Generated_Source\PSoC4/I2CVuggesystem_EZI2C.c **** }
 431              		.loc 1 492 0
 432 0010 BD46     		mov	sp, r7
 433 0012 02B0     		add	sp, sp, #8
 434              		@ sp needed
 435 0014 80BD     		pop	{r7, pc}
 436              	.L24:
 437 0016 C046     		.align	2
 438              	.L23:
 439 0018 00000000 		.word	I2CVuggesystem_protectBuf1
 440              		.cfi_endproc
 441              	.LFE6:
 442              		.size	I2CVuggesystem_EzI2CSetReadBoundaryBuffer1, .-I2CVuggesystem_EzI2CSetReadBoundaryBuffer1
 443              		.text
 444              	.Letext0:
 445              		.file 2 ".\\Generated_Source\\PSoC4/cytypes.h"