ARM GAS  C:\Users\Jeppe\AppData\Local\Temp\ccdvuPvF.s 			page 1


   1              		.cpu cortex-m0
   2              		.fpu softvfp
   3              		.eabi_attribute 20, 1
   4              		.eabi_attribute 21, 1
   5              		.eabi_attribute 23, 3
   6              		.eabi_attribute 24, 1
   7              		.eabi_attribute 25, 1
   8              		.eabi_attribute 26, 1
   9              		.eabi_attribute 30, 6
  10              		.eabi_attribute 34, 0
  11              		.eabi_attribute 18, 4
  12              		.code	16
  13              		.file	"I2CVuggesystem_EZI2C_INT.c"
  14              		.text
  15              	.Ltext0:
  16              		.cfi_sections	.debug_frame
  17              		.section	.text.I2CVuggesystem_EZI2C_STRETCH_ISR,"ax",%progbits
  18              		.align	2
  19              		.global	I2CVuggesystem_EZI2C_STRETCH_ISR
  20              		.code	16
  21              		.thumb_func
  22              		.type	I2CVuggesystem_EZI2C_STRETCH_ISR, %function
  23              	I2CVuggesystem_EZI2C_STRETCH_ISR:
  24              	.LFB0:
  25              		.file 1 ".\\Generated_Source\\PSoC4\\I2CVuggesystem_EZI2C_INT.c"
   1:.\Generated_Source\PSoC4/I2CVuggesystem_EZI2C_INT.c **** /*******************************************************************************
   2:.\Generated_Source\PSoC4/I2CVuggesystem_EZI2C_INT.c **** * File Name: I2CVuggesystem_EZI2C_INT.c
   3:.\Generated_Source\PSoC4/I2CVuggesystem_EZI2C_INT.c **** * Version 2.0
   4:.\Generated_Source\PSoC4/I2CVuggesystem_EZI2C_INT.c **** *
   5:.\Generated_Source\PSoC4/I2CVuggesystem_EZI2C_INT.c **** * Description:
   6:.\Generated_Source\PSoC4/I2CVuggesystem_EZI2C_INT.c **** *  This file provides the source code to the Interrupt Service Routine for
   7:.\Generated_Source\PSoC4/I2CVuggesystem_EZI2C_INT.c **** *  the SCB Component in EZI2C mode.
   8:.\Generated_Source\PSoC4/I2CVuggesystem_EZI2C_INT.c **** *
   9:.\Generated_Source\PSoC4/I2CVuggesystem_EZI2C_INT.c **** * Note:
  10:.\Generated_Source\PSoC4/I2CVuggesystem_EZI2C_INT.c **** *
  11:.\Generated_Source\PSoC4/I2CVuggesystem_EZI2C_INT.c **** ********************************************************************************
  12:.\Generated_Source\PSoC4/I2CVuggesystem_EZI2C_INT.c **** * Copyright 2013-2014, Cypress Semiconductor Corporation.  All rights reserved.
  13:.\Generated_Source\PSoC4/I2CVuggesystem_EZI2C_INT.c **** * You may use this file only in accordance with the license, terms, conditions,
  14:.\Generated_Source\PSoC4/I2CVuggesystem_EZI2C_INT.c **** * disclaimers, and limitations in the end user license agreement accompanying
  15:.\Generated_Source\PSoC4/I2CVuggesystem_EZI2C_INT.c **** * the software package with which this file was provided.
  16:.\Generated_Source\PSoC4/I2CVuggesystem_EZI2C_INT.c **** *******************************************************************************/
  17:.\Generated_Source\PSoC4/I2CVuggesystem_EZI2C_INT.c **** 
  18:.\Generated_Source\PSoC4/I2CVuggesystem_EZI2C_INT.c **** #include "I2CVuggesystem_PVT.h"
  19:.\Generated_Source\PSoC4/I2CVuggesystem_EZI2C_INT.c **** #include "I2CVuggesystem_EZI2C_PVT.h"
  20:.\Generated_Source\PSoC4/I2CVuggesystem_EZI2C_INT.c **** 
  21:.\Generated_Source\PSoC4/I2CVuggesystem_EZI2C_INT.c **** #if(I2CVuggesystem_EZI2C_SCL_STRETCH_ENABLE_CONST)
  22:.\Generated_Source\PSoC4/I2CVuggesystem_EZI2C_INT.c ****     /*******************************************************************************
  23:.\Generated_Source\PSoC4/I2CVuggesystem_EZI2C_INT.c ****     * Function Name: I2CVuggesystem_EZI2C_STRETCH_ISR
  24:.\Generated_Source\PSoC4/I2CVuggesystem_EZI2C_INT.c ****     ********************************************************************************
  25:.\Generated_Source\PSoC4/I2CVuggesystem_EZI2C_INT.c ****     *
  26:.\Generated_Source\PSoC4/I2CVuggesystem_EZI2C_INT.c ****     * Summary:
  27:.\Generated_Source\PSoC4/I2CVuggesystem_EZI2C_INT.c ****     *  Handles the Interrupt Service Routine for the SCB EZI2C mode. The clock stretching is
  28:.\Generated_Source\PSoC4/I2CVuggesystem_EZI2C_INT.c ****     *  used during operation.
  29:.\Generated_Source\PSoC4/I2CVuggesystem_EZI2C_INT.c ****     *
  30:.\Generated_Source\PSoC4/I2CVuggesystem_EZI2C_INT.c ****     * Parameters:
  31:.\Generated_Source\PSoC4/I2CVuggesystem_EZI2C_INT.c ****     *  None
  32:.\Generated_Source\PSoC4/I2CVuggesystem_EZI2C_INT.c ****     *
ARM GAS  C:\Users\Jeppe\AppData\Local\Temp\ccdvuPvF.s 			page 2


  33:.\Generated_Source\PSoC4/I2CVuggesystem_EZI2C_INT.c ****     * Return:
  34:.\Generated_Source\PSoC4/I2CVuggesystem_EZI2C_INT.c ****     *  None
  35:.\Generated_Source\PSoC4/I2CVuggesystem_EZI2C_INT.c ****     *
  36:.\Generated_Source\PSoC4/I2CVuggesystem_EZI2C_INT.c ****     *******************************************************************************/
  37:.\Generated_Source\PSoC4/I2CVuggesystem_EZI2C_INT.c ****     CY_ISR_PROTO(I2CVuggesystem_EZI2C_STRETCH_ISR)
  38:.\Generated_Source\PSoC4/I2CVuggesystem_EZI2C_INT.c ****     {
  26              		.loc 1 38 0
  27              		.cfi_startproc
  28 0000 80B5     		push	{r7, lr}
  29              		.cfi_def_cfa_offset 8
  30              		.cfi_offset 7, -8
  31              		.cfi_offset 14, -4
  32 0002 88B0     		sub	sp, sp, #32
  33              		.cfi_def_cfa_offset 40
  34 0004 00AF     		add	r7, sp, #0
  35              		.cfi_def_cfa_register 7
  39:.\Generated_Source\PSoC4/I2CVuggesystem_EZI2C_INT.c ****         static uint16 locBufSize;
  40:.\Generated_Source\PSoC4/I2CVuggesystem_EZI2C_INT.c ****         uint32 locIndex;
  41:.\Generated_Source\PSoC4/I2CVuggesystem_EZI2C_INT.c ****         uint32 locStatus;
  42:.\Generated_Source\PSoC4/I2CVuggesystem_EZI2C_INT.c **** 
  43:.\Generated_Source\PSoC4/I2CVuggesystem_EZI2C_INT.c ****         uint32 endTransfer;
  44:.\Generated_Source\PSoC4/I2CVuggesystem_EZI2C_INT.c ****         uint32 fifoIndex;
  45:.\Generated_Source\PSoC4/I2CVuggesystem_EZI2C_INT.c ****         uint32 locByte;
  46:.\Generated_Source\PSoC4/I2CVuggesystem_EZI2C_INT.c **** 
  47:.\Generated_Source\PSoC4/I2CVuggesystem_EZI2C_INT.c ****         uint32 locIntrCause;
  48:.\Generated_Source\PSoC4/I2CVuggesystem_EZI2C_INT.c ****         uint32 locIntrSlave;
  49:.\Generated_Source\PSoC4/I2CVuggesystem_EZI2C_INT.c **** 
  50:.\Generated_Source\PSoC4/I2CVuggesystem_EZI2C_INT.c ****     #if(I2CVuggesystem_SECONDARY_ADDRESS_ENABLE_CONST)
  51:.\Generated_Source\PSoC4/I2CVuggesystem_EZI2C_INT.c ****         /* Variable intended to be used with either buffer */
  52:.\Generated_Source\PSoC4/I2CVuggesystem_EZI2C_INT.c ****         static volatile uint8 * I2CVuggesystem_dataBuffer; /* Pointer to data buffer              *
  53:.\Generated_Source\PSoC4/I2CVuggesystem_EZI2C_INT.c ****         static uint16 I2CVuggesystem_bufSizeBuf;           /* Size of buffer in bytes             *
  54:.\Generated_Source\PSoC4/I2CVuggesystem_EZI2C_INT.c ****         static uint16 I2CVuggesystem_protectBuf;           /* Start index of write protected area *
  55:.\Generated_Source\PSoC4/I2CVuggesystem_EZI2C_INT.c **** 
  56:.\Generated_Source\PSoC4/I2CVuggesystem_EZI2C_INT.c ****         static uint8 activeAddress;
  57:.\Generated_Source\PSoC4/I2CVuggesystem_EZI2C_INT.c ****         uint32 ackResponse;
  58:.\Generated_Source\PSoC4/I2CVuggesystem_EZI2C_INT.c **** 
  59:.\Generated_Source\PSoC4/I2CVuggesystem_EZI2C_INT.c ****         ackResponse = I2CVuggesystem_EZI2C_ACK_RECEIVED_ADDRESS;
  60:.\Generated_Source\PSoC4/I2CVuggesystem_EZI2C_INT.c ****     #endif /* (I2CVuggesystem_SECONDARY_ADDRESS_ENABLE_CONST) */
  61:.\Generated_Source\PSoC4/I2CVuggesystem_EZI2C_INT.c **** 
  62:.\Generated_Source\PSoC4/I2CVuggesystem_EZI2C_INT.c ****     #if !defined (CY_REMOVE_I2CVuggesystem_CUSTOM_INTR_HANDLER)
  63:.\Generated_Source\PSoC4/I2CVuggesystem_EZI2C_INT.c ****         if(NULL != I2CVuggesystem_customIntrHandler)
  36              		.loc 1 63 0
  37 0006 CD4B     		ldr	r3, .L40
  38 0008 1B68     		ldr	r3, [r3]
  39 000a 002B     		cmp	r3, #0
  40 000c 02D0     		beq	.L2
  64:.\Generated_Source\PSoC4/I2CVuggesystem_EZI2C_INT.c ****         {
  65:.\Generated_Source\PSoC4/I2CVuggesystem_EZI2C_INT.c ****             I2CVuggesystem_customIntrHandler();
  41              		.loc 1 65 0
  42 000e CB4B     		ldr	r3, .L40
  43 0010 1B68     		ldr	r3, [r3]
  44 0012 9847     		blx	r3
  45              	.L2:
  66:.\Generated_Source\PSoC4/I2CVuggesystem_EZI2C_INT.c ****         }
  67:.\Generated_Source\PSoC4/I2CVuggesystem_EZI2C_INT.c ****     #else
  68:.\Generated_Source\PSoC4/I2CVuggesystem_EZI2C_INT.c ****         CY_I2CVuggesystem_CUSTOM_INTR_HANDLER();
  69:.\Generated_Source\PSoC4/I2CVuggesystem_EZI2C_INT.c ****     #endif /* !defined (CY_REMOVE_I2CVuggesystem_CUSTOM_INTR_HANDLER) */
ARM GAS  C:\Users\Jeppe\AppData\Local\Temp\ccdvuPvF.s 			page 3


  70:.\Generated_Source\PSoC4/I2CVuggesystem_EZI2C_INT.c **** 
  71:.\Generated_Source\PSoC4/I2CVuggesystem_EZI2C_INT.c ****         /* Make local copy of global variable */
  72:.\Generated_Source\PSoC4/I2CVuggesystem_EZI2C_INT.c ****         locIndex = I2CVuggesystem_EZI2C_GET_INDEX(activeAddress);
  46              		.loc 1 72 0
  47 0014 CA4B     		ldr	r3, .L40+4
  48 0016 1B88     		ldrh	r3, [r3]
  49 0018 FB61     		str	r3, [r7, #28]
  73:.\Generated_Source\PSoC4/I2CVuggesystem_EZI2C_INT.c **** 
  74:.\Generated_Source\PSoC4/I2CVuggesystem_EZI2C_INT.c ****         /* Get interrupt sources */
  75:.\Generated_Source\PSoC4/I2CVuggesystem_EZI2C_INT.c ****         locIntrSlave = I2CVuggesystem_GetSlaveInterruptSource();
  50              		.loc 1 75 0
  51 001a CA4B     		ldr	r3, .L40+8
  52 001c 1B68     		ldr	r3, [r3]
  53 001e FB60     		str	r3, [r7, #12]
  76:.\Generated_Source\PSoC4/I2CVuggesystem_EZI2C_INT.c ****         locIntrCause = I2CVuggesystem_GetInterruptCause();
  54              		.loc 1 76 0
  55 0020 C94B     		ldr	r3, .L40+12
  56 0022 1B68     		ldr	r3, [r3]
  57 0024 BB60     		str	r3, [r7, #8]
  77:.\Generated_Source\PSoC4/I2CVuggesystem_EZI2C_INT.c **** 
  78:.\Generated_Source\PSoC4/I2CVuggesystem_EZI2C_INT.c ****         /* INTR_SLAVE.I2C_ARB_LOST and INTR_SLAVE_I2C.BUS_ERROR */
  79:.\Generated_Source\PSoC4/I2CVuggesystem_EZI2C_INT.c ****         /* Handles errors on the bus. There are cases when both bits are set.
  80:.\Generated_Source\PSoC4/I2CVuggesystem_EZI2C_INT.c ****         * The error recovery is common: re-enable the scb IP. The content of the RX FIFO is lost.
  81:.\Generated_Source\PSoC4/I2CVuggesystem_EZI2C_INT.c ****         */
  82:.\Generated_Source\PSoC4/I2CVuggesystem_EZI2C_INT.c ****         if(0u != (locIntrSlave & (I2CVuggesystem_INTR_SLAVE_I2C_ARB_LOST |
  58              		.loc 1 82 0
  59 0026 FA68     		ldr	r2, [r7, #12]
  60 0028 0223     		mov	r3, #2
  61 002a FF33     		add	r3, r3, #255
  62 002c 1340     		and	r3, r2
  63 002e 57D0     		beq	.L3
  83:.\Generated_Source\PSoC4/I2CVuggesystem_EZI2C_INT.c ****                                   I2CVuggesystem_INTR_SLAVE_I2C_BUS_ERROR)))
  84:.\Generated_Source\PSoC4/I2CVuggesystem_EZI2C_INT.c ****         {
  85:.\Generated_Source\PSoC4/I2CVuggesystem_EZI2C_INT.c ****             I2CVuggesystem_CTRL_REG &= (uint32) ~I2CVuggesystem_CTRL_ENABLED; /* Disable SCB block 
  64              		.loc 1 85 0
  65 0030 C64B     		ldr	r3, .L40+16
  66 0032 C64A     		ldr	r2, .L40+16
  67 0034 1268     		ldr	r2, [r2]
  68 0036 5200     		lsl	r2, r2, #1
  69 0038 5208     		lsr	r2, r2, #1
  70 003a 1A60     		str	r2, [r3]
  86:.\Generated_Source\PSoC4/I2CVuggesystem_EZI2C_INT.c **** 
  87:.\Generated_Source\PSoC4/I2CVuggesystem_EZI2C_INT.c ****         #if(I2CVuggesystem_CY_SCBIP_V0)
  88:.\Generated_Source\PSoC4/I2CVuggesystem_EZI2C_INT.c ****             if(0u != ((uint8) I2CVuggesystem_EZI2C_STATUS_BUSY & I2CVuggesystem_curStatus))
  71              		.loc 1 88 0
  72 003c C44B     		ldr	r3, .L40+20
  73 003e 1B78     		ldrb	r3, [r3]
  74 0040 DAB2     		uxtb	r2, r3
  75 0042 2023     		mov	r3, #32
  76 0044 1340     		and	r3, r2
  77 0046 DBB2     		uxtb	r3, r3
  78 0048 002B     		cmp	r3, #0
  79 004a 2CD0     		beq	.L4
  89:.\Generated_Source\PSoC4/I2CVuggesystem_EZI2C_INT.c ****         #endif /* (I2CVuggesystem_CY_SCBIP_V0) */
  90:.\Generated_Source\PSoC4/I2CVuggesystem_EZI2C_INT.c ****             {
  91:.\Generated_Source\PSoC4/I2CVuggesystem_EZI2C_INT.c ****                 I2CVuggesystem_curStatus &= (uint8) ~I2CVuggesystem_EZI2C_STATUS_BUSY;
  80              		.loc 1 91 0
ARM GAS  C:\Users\Jeppe\AppData\Local\Temp\ccdvuPvF.s 			page 4


  81 004c C04B     		ldr	r3, .L40+20
  82 004e 1B78     		ldrb	r3, [r3]
  83 0050 DBB2     		uxtb	r3, r3
  84 0052 2022     		mov	r2, #32
  85 0054 9343     		bic	r3, r2
  86 0056 DAB2     		uxtb	r2, r3
  87 0058 BD4B     		ldr	r3, .L40+20
  88 005a 1A70     		strb	r2, [r3]
  92:.\Generated_Source\PSoC4/I2CVuggesystem_EZI2C_INT.c ****                 I2CVuggesystem_curStatus |= (uint8)  I2CVuggesystem_EZI2C_STATUS_ERR;
  89              		.loc 1 92 0
  90 005c BC4B     		ldr	r3, .L40+20
  91 005e 1B78     		ldrb	r3, [r3]
  92 0060 DBB2     		uxtb	r3, r3
  93 0062 1022     		mov	r2, #16
  94 0064 1343     		orr	r3, r2
  95 0066 DAB2     		uxtb	r2, r3
  96 0068 B94B     		ldr	r3, .L40+20
  97 006a 1A70     		strb	r2, [r3]
  93:.\Generated_Source\PSoC4/I2CVuggesystem_EZI2C_INT.c **** 
  94:.\Generated_Source\PSoC4/I2CVuggesystem_EZI2C_INT.c ****                 /* INTR_TX_EMPTY is enabled in the address phase to receive data */
  95:.\Generated_Source\PSoC4/I2CVuggesystem_EZI2C_INT.c ****                 if(0u == (I2CVuggesystem_GetTxInterruptMode() & I2CVuggesystem_INTR_TX_EMPTY))
  98              		.loc 1 95 0
  99 006c B94B     		ldr	r3, .L40+24
 100 006e 1A68     		ldr	r2, [r3]
 101 0070 1023     		mov	r3, #16
 102 0072 1340     		and	r3, r2
 103 0074 0FD1     		bne	.L5
  96:.\Generated_Source\PSoC4/I2CVuggesystem_EZI2C_INT.c ****                 {
  97:.\Generated_Source\PSoC4/I2CVuggesystem_EZI2C_INT.c ****                     /* Write complete */
  98:.\Generated_Source\PSoC4/I2CVuggesystem_EZI2C_INT.c ****                     if(I2CVuggesystem_indexBuf1 != I2CVuggesystem_offsetBuf1)
 104              		.loc 1 98 0
 105 0076 B84B     		ldr	r3, .L40+28
 106 0078 1B78     		ldrb	r3, [r3]
 107 007a 1A1C     		mov	r2, r3
 108 007c B04B     		ldr	r3, .L40+4
 109 007e 1B88     		ldrh	r3, [r3]
 110 0080 9A42     		cmp	r2, r3
 111 0082 10D0     		beq	.L4
  99:.\Generated_Source\PSoC4/I2CVuggesystem_EZI2C_INT.c ****                     {
 100:.\Generated_Source\PSoC4/I2CVuggesystem_EZI2C_INT.c ****                         I2CVuggesystem_curStatus |= (uint8) I2CVuggesystem_INTR_SLAVE_I2C_WRITE_STO
 112              		.loc 1 100 0
 113 0084 B24B     		ldr	r3, .L40+20
 114 0086 1B78     		ldrb	r3, [r3]
 115 0088 DBB2     		uxtb	r3, r3
 116 008a 0822     		mov	r2, #8
 117 008c 1343     		orr	r3, r2
 118 008e DAB2     		uxtb	r2, r3
 119 0090 AF4B     		ldr	r3, .L40+20
 120 0092 1A70     		strb	r2, [r3]
 121 0094 07E0     		b	.L4
 122              	.L5:
 101:.\Generated_Source\PSoC4/I2CVuggesystem_EZI2C_INT.c ****                     }
 102:.\Generated_Source\PSoC4/I2CVuggesystem_EZI2C_INT.c ****                 }
 103:.\Generated_Source\PSoC4/I2CVuggesystem_EZI2C_INT.c ****                 else
 104:.\Generated_Source\PSoC4/I2CVuggesystem_EZI2C_INT.c ****                 {
 105:.\Generated_Source\PSoC4/I2CVuggesystem_EZI2C_INT.c ****                     /* Read complete */
 106:.\Generated_Source\PSoC4/I2CVuggesystem_EZI2C_INT.c ****                     I2CVuggesystem_curStatus |= (uint8) I2CVuggesystem_INTR_SLAVE_I2C_NACK;
ARM GAS  C:\Users\Jeppe\AppData\Local\Temp\ccdvuPvF.s 			page 5


 123              		.loc 1 106 0
 124 0096 AE4B     		ldr	r3, .L40+20
 125 0098 1B78     		ldrb	r3, [r3]
 126 009a DBB2     		uxtb	r3, r3
 127 009c 0222     		mov	r2, #2
 128 009e 1343     		orr	r3, r2
 129 00a0 DAB2     		uxtb	r2, r3
 130 00a2 AB4B     		ldr	r3, .L40+20
 131 00a4 1A70     		strb	r2, [r3]
 132              	.L4:
 107:.\Generated_Source\PSoC4/I2CVuggesystem_EZI2C_INT.c ****                 }
 108:.\Generated_Source\PSoC4/I2CVuggesystem_EZI2C_INT.c ****             }
 109:.\Generated_Source\PSoC4/I2CVuggesystem_EZI2C_INT.c **** 
 110:.\Generated_Source\PSoC4/I2CVuggesystem_EZI2C_INT.c ****             I2CVuggesystem_DISABLE_SLAVE_AUTO_DATA;
 133              		.loc 1 110 0 discriminator 1
 134 00a6 AD4B     		ldr	r3, .L40+32
 135 00a8 AC4A     		ldr	r2, .L40+32
 136 00aa 1168     		ldr	r1, [r2]
 137 00ac AC4A     		ldr	r2, .L40+36
 138 00ae 0A40     		and	r2, r1
 139 00b0 1A60     		str	r2, [r3]
 111:.\Generated_Source\PSoC4/I2CVuggesystem_EZI2C_INT.c **** 
 112:.\Generated_Source\PSoC4/I2CVuggesystem_EZI2C_INT.c ****             /* Disable TX and RX interrupt sources */
 113:.\Generated_Source\PSoC4/I2CVuggesystem_EZI2C_INT.c ****             I2CVuggesystem_SetRxInterruptMode(I2CVuggesystem_NO_INTR_SOURCES);
 140              		.loc 1 113 0 discriminator 1
 141 00b2 AC4B     		ldr	r3, .L40+40
 142 00b4 0022     		mov	r2, #0
 143 00b6 1A60     		str	r2, [r3]
 114:.\Generated_Source\PSoC4/I2CVuggesystem_EZI2C_INT.c ****             I2CVuggesystem_SetTxInterruptMode(I2CVuggesystem_NO_INTR_SOURCES);
 144              		.loc 1 114 0 discriminator 1
 145 00b8 A64B     		ldr	r3, .L40+24
 146 00ba 0022     		mov	r2, #0
 147 00bc 1A60     		str	r2, [r3]
 115:.\Generated_Source\PSoC4/I2CVuggesystem_EZI2C_INT.c **** 
 116:.\Generated_Source\PSoC4/I2CVuggesystem_EZI2C_INT.c ****         #if(I2CVuggesystem_CY_SCBIP_V0)
 117:.\Generated_Source\PSoC4/I2CVuggesystem_EZI2C_INT.c ****             /* Clear interrupt sources as they are not automatically cleared after SCB is disabled 
 118:.\Generated_Source\PSoC4/I2CVuggesystem_EZI2C_INT.c ****             I2CVuggesystem_ClearRxInterruptSource(I2CVuggesystem_INTR_RX_ALL);
 148              		.loc 1 118 0 discriminator 1
 149 00be AA4B     		ldr	r3, .L40+44
 150 00c0 AA4A     		ldr	r2, .L40+48
 151 00c2 1A60     		str	r2, [r3]
 119:.\Generated_Source\PSoC4/I2CVuggesystem_EZI2C_INT.c ****             I2CVuggesystem_ClearSlaveInterruptSource(I2CVuggesystem_INTR_SLAVE_ALL);
 152              		.loc 1 119 0 discriminator 1
 153 00c4 9F4B     		ldr	r3, .L40+8
 154 00c6 AA4A     		ldr	r2, .L40+52
 155 00c8 1A60     		str	r2, [r3]
 120:.\Generated_Source\PSoC4/I2CVuggesystem_EZI2C_INT.c ****         #endif /* (I2CVuggesystem_CY_SCBIP_V0) */
 121:.\Generated_Source\PSoC4/I2CVuggesystem_EZI2C_INT.c **** 
 122:.\Generated_Source\PSoC4/I2CVuggesystem_EZI2C_INT.c ****             I2CVuggesystem_fsmState = I2CVuggesystem_EZI2C_FSM_IDLE;
 156              		.loc 1 122 0 discriminator 1
 157 00ca AA4B     		ldr	r3, .L40+56
 158 00cc 0022     		mov	r2, #0
 159 00ce 1A70     		strb	r2, [r3]
 123:.\Generated_Source\PSoC4/I2CVuggesystem_EZI2C_INT.c **** 
 124:.\Generated_Source\PSoC4/I2CVuggesystem_EZI2C_INT.c ****             I2CVuggesystem_CTRL_REG |= (uint32) I2CVuggesystem_CTRL_ENABLED;  /* Enable SCB block *
 160              		.loc 1 124 0 discriminator 1
 161 00d0 9E4B     		ldr	r3, .L40+16
ARM GAS  C:\Users\Jeppe\AppData\Local\Temp\ccdvuPvF.s 			page 6


 162 00d2 9E4A     		ldr	r2, .L40+16
 163 00d4 1268     		ldr	r2, [r2]
 164 00d6 8021     		mov	r1, #128
 165 00d8 0906     		lsl	r1, r1, #24
 166 00da 0A43     		orr	r2, r1
 167 00dc 1A60     		str	r2, [r3]
 168 00de 99E1     		b	.L7
 169              	.L3:
 125:.\Generated_Source\PSoC4/I2CVuggesystem_EZI2C_INT.c ****         }
 126:.\Generated_Source\PSoC4/I2CVuggesystem_EZI2C_INT.c ****         else
 127:.\Generated_Source\PSoC4/I2CVuggesystem_EZI2C_INT.c ****         {
 128:.\Generated_Source\PSoC4/I2CVuggesystem_EZI2C_INT.c ****             /* INTR_I2C_EC_WAKE_UP */
 129:.\Generated_Source\PSoC4/I2CVuggesystem_EZI2C_INT.c ****             /* Wakes up device from deep sleep */
 130:.\Generated_Source\PSoC4/I2CVuggesystem_EZI2C_INT.c ****             if(0u != (locIntrCause & I2CVuggesystem_INTR_CAUSE_I2C_EC))
 170              		.loc 1 130 0
 171 00e0 BA68     		ldr	r2, [r7, #8]
 172 00e2 1023     		mov	r3, #16
 173 00e4 1340     		and	r3, r2
 174 00e6 02D0     		beq	.L8
 131:.\Generated_Source\PSoC4/I2CVuggesystem_EZI2C_INT.c ****             {
 132:.\Generated_Source\PSoC4/I2CVuggesystem_EZI2C_INT.c ****                 /* Disables wakeup interrupt source but does not clear it. It is cleared in INTR_SL
 133:.\Generated_Source\PSoC4/I2CVuggesystem_EZI2C_INT.c ****                 I2CVuggesystem_SetI2CExtClkInterruptMode(I2CVuggesystem_NO_INTR_SOURCES);
 175              		.loc 1 133 0
 176 00e8 A34B     		ldr	r3, .L40+60
 177 00ea 0022     		mov	r2, #0
 178 00ec 1A60     		str	r2, [r3]
 179              	.L8:
 134:.\Generated_Source\PSoC4/I2CVuggesystem_EZI2C_INT.c ****             }
 135:.\Generated_Source\PSoC4/I2CVuggesystem_EZI2C_INT.c **** 
 136:.\Generated_Source\PSoC4/I2CVuggesystem_EZI2C_INT.c ****             if(0u != (locIntrCause & (I2CVuggesystem_INTR_CAUSE_RX | I2CVuggesystem_INTR_CAUSE_SLAV
 180              		.loc 1 136 0
 181 00ee BA68     		ldr	r2, [r7, #8]
 182 00f0 0A23     		mov	r3, #10
 183 00f2 1340     		and	r3, r2
 184 00f4 00D1     		bne	.LCB147
 185 00f6 C4E0     		b	.L9	@long jump
 186              	.LCB147:
 137:.\Generated_Source\PSoC4/I2CVuggesystem_EZI2C_INT.c ****             {
 138:.\Generated_Source\PSoC4/I2CVuggesystem_EZI2C_INT.c ****                 /* INTR_RX.NOT_EMPTY */
 139:.\Generated_Source\PSoC4/I2CVuggesystem_EZI2C_INT.c ****                 /* Receives data byte-by-byte. Does not use RX FIFO capabilities */
 140:.\Generated_Source\PSoC4/I2CVuggesystem_EZI2C_INT.c ****                 if (0u != (I2CVuggesystem_GetRxInterruptSourceMasked() & I2CVuggesystem_INTR_RX_NOT
 187              		.loc 1 140 0
 188 00f8 A04B     		ldr	r3, .L40+64
 189 00fa 1A68     		ldr	r2, [r3]
 190 00fc 0423     		mov	r3, #4
 191 00fe 1340     		and	r3, r2
 192 0100 00D1     		bne	.LCB153
 193 0102 6FE0     		b	.L10	@long jump
 194              	.LCB153:
 141:.\Generated_Source\PSoC4/I2CVuggesystem_EZI2C_INT.c ****                 {
 142:.\Generated_Source\PSoC4/I2CVuggesystem_EZI2C_INT.c ****                 #if(I2CVuggesystem_SECONDARY_ADDRESS_ENABLE_CONST)
 143:.\Generated_Source\PSoC4/I2CVuggesystem_EZI2C_INT.c ****                     /* If I2C_STOP service is delayed to I2C_ADDR_MATCH the address byte is in the 
 144:.\Generated_Source\PSoC4/I2CVuggesystem_EZI2C_INT.c ****                     * RX_NOT_EMPTY is enabled. The address byte has to stay into RX FIFO therefore
 145:.\Generated_Source\PSoC4/I2CVuggesystem_EZI2C_INT.c ****                     * RX.NOT_EMPTY service has to be skipped. The address byte has to be read by I2
 146:.\Generated_Source\PSoC4/I2CVuggesystem_EZI2C_INT.c ****                     */
 147:.\Generated_Source\PSoC4/I2CVuggesystem_EZI2C_INT.c ****                     if (0u == (locIntrCause & I2CVuggesystem_INTR_CAUSE_SLAVE))
 148:.\Generated_Source\PSoC4/I2CVuggesystem_EZI2C_INT.c ****                 #endif /* (I2CVuggesystem_SECONDARY_ADDRESS_ENABLE_CONST) */
ARM GAS  C:\Users\Jeppe\AppData\Local\Temp\ccdvuPvF.s 			page 7


 149:.\Generated_Source\PSoC4/I2CVuggesystem_EZI2C_INT.c ****                     {
 150:.\Generated_Source\PSoC4/I2CVuggesystem_EZI2C_INT.c ****                         locByte = I2CVuggesystem_RX_FIFO_RD_REG;
 195              		.loc 1 150 0
 196 0104 9E4B     		ldr	r3, .L40+68
 197 0106 1B68     		ldr	r3, [r3]
 198 0108 7B60     		str	r3, [r7, #4]
 151:.\Generated_Source\PSoC4/I2CVuggesystem_EZI2C_INT.c **** 
 152:.\Generated_Source\PSoC4/I2CVuggesystem_EZI2C_INT.c ****                         switch(I2CVuggesystem_fsmState)
 199              		.loc 1 152 0
 200 010a 9A4B     		ldr	r3, .L40+56
 201 010c 1B78     		ldrb	r3, [r3]
 202 010e 002B     		cmp	r3, #0
 203 0110 1CD0     		beq	.L12
 204 0112 012B     		cmp	r3, #1
 205 0114 5ED1     		bne	.L39
 153:.\Generated_Source\PSoC4/I2CVuggesystem_EZI2C_INT.c ****                         {
 154:.\Generated_Source\PSoC4/I2CVuggesystem_EZI2C_INT.c ****                         case I2CVuggesystem_EZI2C_FSM_BYTE_WRITE:
 155:.\Generated_Source\PSoC4/I2CVuggesystem_EZI2C_INT.c ****                             if(0u != locBufSize)
 206              		.loc 1 155 0
 207 0116 9B4B     		ldr	r3, .L40+72
 208 0118 1B88     		ldrh	r3, [r3]
 209 011a 002B     		cmp	r3, #0
 210 011c 13D0     		beq	.L14
 156:.\Generated_Source\PSoC4/I2CVuggesystem_EZI2C_INT.c ****                             {
 157:.\Generated_Source\PSoC4/I2CVuggesystem_EZI2C_INT.c ****                                 /* Store data byte and ACK */
 158:.\Generated_Source\PSoC4/I2CVuggesystem_EZI2C_INT.c ****                                 I2CVuggesystem_I2C_SLAVE_GENERATE_ACK;
 211              		.loc 1 158 0
 212 011e 9A4B     		ldr	r3, .L40+76
 213 0120 0122     		mov	r2, #1
 214 0122 1A60     		str	r2, [r3]
 159:.\Generated_Source\PSoC4/I2CVuggesystem_EZI2C_INT.c **** 
 160:.\Generated_Source\PSoC4/I2CVuggesystem_EZI2C_INT.c ****                                 I2CVuggesystem_dataBuffer1[locIndex] = (uint8) locByte;
 215              		.loc 1 160 0
 216 0124 994B     		ldr	r3, .L40+80
 217 0126 1A68     		ldr	r2, [r3]
 218 0128 FB69     		ldr	r3, [r7, #28]
 219 012a D318     		add	r3, r2, r3
 220 012c 7A68     		ldr	r2, [r7, #4]
 221 012e D2B2     		uxtb	r2, r2
 222 0130 1A70     		strb	r2, [r3]
 161:.\Generated_Source\PSoC4/I2CVuggesystem_EZI2C_INT.c ****                                 locIndex++;
 223              		.loc 1 161 0
 224 0132 FB69     		ldr	r3, [r7, #28]
 225 0134 0133     		add	r3, r3, #1
 226 0136 FB61     		str	r3, [r7, #28]
 162:.\Generated_Source\PSoC4/I2CVuggesystem_EZI2C_INT.c ****                                 locBufSize--;
 227              		.loc 1 162 0
 228 0138 924B     		ldr	r3, .L40+72
 229 013a 1B88     		ldrh	r3, [r3]
 230 013c 013B     		sub	r3, r3, #1
 231 013e 9AB2     		uxth	r2, r3
 232 0140 904B     		ldr	r3, .L40+72
 233 0142 1A80     		strh	r2, [r3]
 163:.\Generated_Source\PSoC4/I2CVuggesystem_EZI2C_INT.c ****                             }
 164:.\Generated_Source\PSoC4/I2CVuggesystem_EZI2C_INT.c ****                             else
 165:.\Generated_Source\PSoC4/I2CVuggesystem_EZI2C_INT.c ****                             {
 166:.\Generated_Source\PSoC4/I2CVuggesystem_EZI2C_INT.c ****                                 /* Discard data byte and NACK */
ARM GAS  C:\Users\Jeppe\AppData\Local\Temp\ccdvuPvF.s 			page 8


 167:.\Generated_Source\PSoC4/I2CVuggesystem_EZI2C_INT.c ****                                 I2CVuggesystem_I2C_SLAVE_GENERATE_NACK;
 168:.\Generated_Source\PSoC4/I2CVuggesystem_EZI2C_INT.c ****                             }
 169:.\Generated_Source\PSoC4/I2CVuggesystem_EZI2C_INT.c ****                             break;
 234              		.loc 1 169 0
 235 0144 4AE0     		b	.L16
 236              	.L14:
 167:.\Generated_Source\PSoC4/I2CVuggesystem_EZI2C_INT.c ****                                 I2CVuggesystem_I2C_SLAVE_GENERATE_NACK;
 237              		.loc 1 167 0
 238 0146 FFF7FEFF 		bl	I2CVuggesystem_I2CSlaveNackGeneration
 239              		.loc 1 169 0
 240 014a 47E0     		b	.L16
 241              	.L12:
 170:.\Generated_Source\PSoC4/I2CVuggesystem_EZI2C_INT.c **** 
 171:.\Generated_Source\PSoC4/I2CVuggesystem_EZI2C_INT.c ****                     #if(I2CVuggesystem_SUB_ADDRESS_SIZE16_CONST)
 172:.\Generated_Source\PSoC4/I2CVuggesystem_EZI2C_INT.c ****                         case I2CVuggesystem_EZI2C_FSM_OFFSET_HI8:
 173:.\Generated_Source\PSoC4/I2CVuggesystem_EZI2C_INT.c **** 
 174:.\Generated_Source\PSoC4/I2CVuggesystem_EZI2C_INT.c ****                             I2CVuggesystem_I2C_SLAVE_GENERATE_ACK;
 175:.\Generated_Source\PSoC4/I2CVuggesystem_EZI2C_INT.c **** 
 176:.\Generated_Source\PSoC4/I2CVuggesystem_EZI2C_INT.c ****                             /* Store offset most significant byre */
 177:.\Generated_Source\PSoC4/I2CVuggesystem_EZI2C_INT.c ****                             locBufSize = (uint16) ((uint8) locByte);
 178:.\Generated_Source\PSoC4/I2CVuggesystem_EZI2C_INT.c **** 
 179:.\Generated_Source\PSoC4/I2CVuggesystem_EZI2C_INT.c ****                             I2CVuggesystem_fsmState = I2CVuggesystem_EZI2C_FSM_OFFSET_LO8;
 180:.\Generated_Source\PSoC4/I2CVuggesystem_EZI2C_INT.c **** 
 181:.\Generated_Source\PSoC4/I2CVuggesystem_EZI2C_INT.c ****                             break;
 182:.\Generated_Source\PSoC4/I2CVuggesystem_EZI2C_INT.c ****                     #endif /* (I2CVuggesystem_SUB_ADDRESS_SIZE16_CONST) */
 183:.\Generated_Source\PSoC4/I2CVuggesystem_EZI2C_INT.c **** 
 184:.\Generated_Source\PSoC4/I2CVuggesystem_EZI2C_INT.c ****                         case I2CVuggesystem_EZI2C_FSM_OFFSET_LO8:
 185:.\Generated_Source\PSoC4/I2CVuggesystem_EZI2C_INT.c **** 
 186:.\Generated_Source\PSoC4/I2CVuggesystem_EZI2C_INT.c ****                             #if (I2CVuggesystem_SUB_ADDRESS_SIZE16)
 187:.\Generated_Source\PSoC4/I2CVuggesystem_EZI2C_INT.c ****                             {
 188:.\Generated_Source\PSoC4/I2CVuggesystem_EZI2C_INT.c ****                                 /* Collect 2 bytes offset */
 189:.\Generated_Source\PSoC4/I2CVuggesystem_EZI2C_INT.c ****                                 locByte = ((uint32) ((uint32) locBufSize << 8u)) | locByte;
 190:.\Generated_Source\PSoC4/I2CVuggesystem_EZI2C_INT.c ****                             }
 191:.\Generated_Source\PSoC4/I2CVuggesystem_EZI2C_INT.c ****                             #endif
 192:.\Generated_Source\PSoC4/I2CVuggesystem_EZI2C_INT.c **** 
 193:.\Generated_Source\PSoC4/I2CVuggesystem_EZI2C_INT.c ****                             /* Check offset against buffer size */
 194:.\Generated_Source\PSoC4/I2CVuggesystem_EZI2C_INT.c ****                             if(locByte < (uint32) I2CVuggesystem_bufSizeBuf1)
 242              		.loc 1 194 0
 243 014c 904B     		ldr	r3, .L40+84
 244 014e 1B88     		ldrh	r3, [r3]
 245 0150 1A1C     		mov	r2, r3
 246 0152 7B68     		ldr	r3, [r7, #4]
 247 0154 9A42     		cmp	r2, r3
 248 0156 3AD9     		bls	.L17
 195:.\Generated_Source\PSoC4/I2CVuggesystem_EZI2C_INT.c ****                             {
 196:.\Generated_Source\PSoC4/I2CVuggesystem_EZI2C_INT.c ****                                 I2CVuggesystem_I2C_SLAVE_GENERATE_ACK;
 249              		.loc 1 196 0
 250 0158 8B4B     		ldr	r3, .L40+76
 251 015a 0122     		mov	r2, #1
 252 015c 1A60     		str	r2, [r3]
 197:.\Generated_Source\PSoC4/I2CVuggesystem_EZI2C_INT.c **** 
 198:.\Generated_Source\PSoC4/I2CVuggesystem_EZI2C_INT.c ****                                 /* Update local buffer index with new offset */
 199:.\Generated_Source\PSoC4/I2CVuggesystem_EZI2C_INT.c ****                                 locIndex = locByte;
 253              		.loc 1 199 0
 254 015e 7B68     		ldr	r3, [r7, #4]
 255 0160 FB61     		str	r3, [r7, #28]
 200:.\Generated_Source\PSoC4/I2CVuggesystem_EZI2C_INT.c **** 
ARM GAS  C:\Users\Jeppe\AppData\Local\Temp\ccdvuPvF.s 			page 9


 201:.\Generated_Source\PSoC4/I2CVuggesystem_EZI2C_INT.c ****                                 /* Get available buffer size to write */
 202:.\Generated_Source\PSoC4/I2CVuggesystem_EZI2C_INT.c ****                                 locBufSize = (uint16) ((locByte < I2CVuggesystem_protectBuf1) ?
 256              		.loc 1 202 0
 257 0162 8C4B     		ldr	r3, .L40+88
 258 0164 1B88     		ldrh	r3, [r3]
 259 0166 1A1C     		mov	r2, r3
 260 0168 7B68     		ldr	r3, [r7, #4]
 261 016a 9A42     		cmp	r2, r3
 262 016c 06D9     		bls	.L18
 263              		.loc 1 202 0 is_stmt 0 discriminator 1
 264 016e 894B     		ldr	r3, .L40+88
 265 0170 1A88     		ldrh	r2, [r3]
 266 0172 7B68     		ldr	r3, [r7, #4]
 267 0174 9BB2     		uxth	r3, r3
 268 0176 D31A     		sub	r3, r2, r3
 269 0178 9BB2     		uxth	r3, r3
 270 017a 00E0     		b	.L19
 271              	.L18:
 272              		.loc 1 202 0 discriminator 2
 273 017c 0023     		mov	r3, #0
 274              	.L19:
 275              		.loc 1 202 0 discriminator 3
 276 017e 814A     		ldr	r2, .L40+72
 277 0180 1380     		strh	r3, [r2]
 203:.\Generated_Source\PSoC4/I2CVuggesystem_EZI2C_INT.c ****                                                        (I2CVuggesystem_protectBuf1 - locByte) : (0u
 204:.\Generated_Source\PSoC4/I2CVuggesystem_EZI2C_INT.c **** 
 205:.\Generated_Source\PSoC4/I2CVuggesystem_EZI2C_INT.c ****                             #if(I2CVuggesystem_CY_SCBIP_V0)
 206:.\Generated_Source\PSoC4/I2CVuggesystem_EZI2C_INT.c **** 
 207:.\Generated_Source\PSoC4/I2CVuggesystem_EZI2C_INT.c ****                                 if(locBufSize < I2CVuggesystem_EZI2C_FIFO_SIZE)
 278              		.loc 1 207 0 is_stmt 1 discriminator 3
 279 0182 804B     		ldr	r3, .L40+72
 280 0184 1B88     		ldrh	r3, [r3]
 281 0186 072B     		cmp	r3, #7
 282 0188 03D8     		bhi	.L20
 208:.\Generated_Source\PSoC4/I2CVuggesystem_EZI2C_INT.c ****                                 {
 209:.\Generated_Source\PSoC4/I2CVuggesystem_EZI2C_INT.c ****                                     /* Set FSM state to receive byte by byte */
 210:.\Generated_Source\PSoC4/I2CVuggesystem_EZI2C_INT.c ****                                     I2CVuggesystem_fsmState = I2CVuggesystem_EZI2C_FSM_BYTE_WRITE;
 283              		.loc 1 210 0
 284 018a 7A4B     		ldr	r3, .L40+56
 285 018c 0122     		mov	r2, #1
 286 018e 1A70     		strb	r2, [r3]
 287 0190 18E0     		b	.L21
 288              	.L20:
 211:.\Generated_Source\PSoC4/I2CVuggesystem_EZI2C_INT.c ****                                 }
 212:.\Generated_Source\PSoC4/I2CVuggesystem_EZI2C_INT.c ****                                 /* Receive RX FIFO chunks */
 213:.\Generated_Source\PSoC4/I2CVuggesystem_EZI2C_INT.c ****                                 else if(locBufSize == I2CVuggesystem_EZI2C_FIFO_SIZE)
 289              		.loc 1 213 0
 290 0192 7C4B     		ldr	r3, .L40+72
 291 0194 1B88     		ldrh	r3, [r3]
 292 0196 082B     		cmp	r3, #8
 293 0198 0AD1     		bne	.L22
 214:.\Generated_Source\PSoC4/I2CVuggesystem_EZI2C_INT.c ****                                 {
 215:.\Generated_Source\PSoC4/I2CVuggesystem_EZI2C_INT.c ****                                     I2CVuggesystem_ENABLE_SLAVE_AUTO_DATA; /* NACK when RX FIFO is 
 294              		.loc 1 215 0
 295 019a 704B     		ldr	r3, .L40+32
 296 019c 6F4A     		ldr	r2, .L40+32
 297 019e 1268     		ldr	r2, [r2]
ARM GAS  C:\Users\Jeppe\AppData\Local\Temp\ccdvuPvF.s 			page 10


 298 01a0 A021     		mov	r1, #160
 299 01a2 0902     		lsl	r1, r1, #8
 300 01a4 0A43     		orr	r2, r1
 301 01a6 1A60     		str	r2, [r3]
 216:.\Generated_Source\PSoC4/I2CVuggesystem_EZI2C_INT.c ****                                     I2CVuggesystem_SetRxInterruptMode(I2CVuggesystem_NO_INTR_SOURCE
 302              		.loc 1 216 0
 303 01a8 6E4B     		ldr	r3, .L40+40
 304 01aa 0022     		mov	r2, #0
 305 01ac 1A60     		str	r2, [r3]
 306 01ae 09E0     		b	.L21
 307              	.L22:
 217:.\Generated_Source\PSoC4/I2CVuggesystem_EZI2C_INT.c ****                                 }
 218:.\Generated_Source\PSoC4/I2CVuggesystem_EZI2C_INT.c ****                                 else
 219:.\Generated_Source\PSoC4/I2CVuggesystem_EZI2C_INT.c ****                                 {
 220:.\Generated_Source\PSoC4/I2CVuggesystem_EZI2C_INT.c ****                                     I2CVuggesystem_ENABLE_SLAVE_AUTO_DATA_ACK; /* Stretch when RX F
 308              		.loc 1 220 0
 309 01b0 6A4B     		ldr	r3, .L40+32
 310 01b2 6A4A     		ldr	r2, .L40+32
 311 01b4 1268     		ldr	r2, [r2]
 312 01b6 8021     		mov	r1, #128
 313 01b8 8901     		lsl	r1, r1, #6
 314 01ba 0A43     		orr	r2, r1
 315 01bc 1A60     		str	r2, [r3]
 221:.\Generated_Source\PSoC4/I2CVuggesystem_EZI2C_INT.c ****                                     I2CVuggesystem_SetRxInterruptMode(I2CVuggesystem_INTR_RX_FULL);
 316              		.loc 1 221 0
 317 01be 694B     		ldr	r3, .L40+40
 318 01c0 0822     		mov	r2, #8
 319 01c2 1A60     		str	r2, [r3]
 320              	.L21:
 222:.\Generated_Source\PSoC4/I2CVuggesystem_EZI2C_INT.c ****                                 }
 223:.\Generated_Source\PSoC4/I2CVuggesystem_EZI2C_INT.c **** 
 224:.\Generated_Source\PSoC4/I2CVuggesystem_EZI2C_INT.c ****                             #else
 225:.\Generated_Source\PSoC4/I2CVuggesystem_EZI2C_INT.c **** 
 226:.\Generated_Source\PSoC4/I2CVuggesystem_EZI2C_INT.c ****                                 #if(I2CVuggesystem_SECONDARY_ADDRESS_ENABLE)
 227:.\Generated_Source\PSoC4/I2CVuggesystem_EZI2C_INT.c ****                                 {
 228:.\Generated_Source\PSoC4/I2CVuggesystem_EZI2C_INT.c ****                                     /* Set FSM state to receive byte by byte.
 229:.\Generated_Source\PSoC4/I2CVuggesystem_EZI2C_INT.c ****                                     * The byte by byte receive is always chosen for two addresses. 
 230:.\Generated_Source\PSoC4/I2CVuggesystem_EZI2C_INT.c ****                                     */
 231:.\Generated_Source\PSoC4/I2CVuggesystem_EZI2C_INT.c ****                                     I2CVuggesystem_fsmState = I2CVuggesystem_EZI2C_FSM_BYTE_WRITE;
 232:.\Generated_Source\PSoC4/I2CVuggesystem_EZI2C_INT.c ****                                 }
 233:.\Generated_Source\PSoC4/I2CVuggesystem_EZI2C_INT.c ****                                 #else
 234:.\Generated_Source\PSoC4/I2CVuggesystem_EZI2C_INT.c ****                                 {
 235:.\Generated_Source\PSoC4/I2CVuggesystem_EZI2C_INT.c ****                                     if (locBufSize < I2CVuggesystem_EZI2C_FIFO_SIZE)
 236:.\Generated_Source\PSoC4/I2CVuggesystem_EZI2C_INT.c ****                                     {
 237:.\Generated_Source\PSoC4/I2CVuggesystem_EZI2C_INT.c ****                                         /* Set FSM state to receive byte by byte */
 238:.\Generated_Source\PSoC4/I2CVuggesystem_EZI2C_INT.c ****                                         I2CVuggesystem_fsmState = I2CVuggesystem_EZI2C_FSM_BYTE_WRI
 239:.\Generated_Source\PSoC4/I2CVuggesystem_EZI2C_INT.c ****                                     }
 240:.\Generated_Source\PSoC4/I2CVuggesystem_EZI2C_INT.c ****                                     /* Receive RX FIFO chunks */
 241:.\Generated_Source\PSoC4/I2CVuggesystem_EZI2C_INT.c ****                                     else if (locBufSize == I2CVuggesystem_EZI2C_FIFO_SIZE)
 242:.\Generated_Source\PSoC4/I2CVuggesystem_EZI2C_INT.c ****                                     {
 243:.\Generated_Source\PSoC4/I2CVuggesystem_EZI2C_INT.c ****                                         I2CVuggesystem_ENABLE_SLAVE_AUTO_DATA; /* NACK when RX FIFO
 244:.\Generated_Source\PSoC4/I2CVuggesystem_EZI2C_INT.c ****                                         I2CVuggesystem_SetRxInterruptMode(I2CVuggesystem_NO_INTR_SO
 245:.\Generated_Source\PSoC4/I2CVuggesystem_EZI2C_INT.c ****                                     }
 246:.\Generated_Source\PSoC4/I2CVuggesystem_EZI2C_INT.c ****                                     else
 247:.\Generated_Source\PSoC4/I2CVuggesystem_EZI2C_INT.c ****                                     {
 248:.\Generated_Source\PSoC4/I2CVuggesystem_EZI2C_INT.c ****                                         I2CVuggesystem_ENABLE_SLAVE_AUTO_DATA_ACK; /* Stretch when 
 249:.\Generated_Source\PSoC4/I2CVuggesystem_EZI2C_INT.c ****                                         I2CVuggesystem_SetRxInterruptMode(I2CVuggesystem_INTR_RX_FU
ARM GAS  C:\Users\Jeppe\AppData\Local\Temp\ccdvuPvF.s 			page 11


 250:.\Generated_Source\PSoC4/I2CVuggesystem_EZI2C_INT.c ****                                     }
 251:.\Generated_Source\PSoC4/I2CVuggesystem_EZI2C_INT.c ****                                 }
 252:.\Generated_Source\PSoC4/I2CVuggesystem_EZI2C_INT.c ****                                 #endif
 253:.\Generated_Source\PSoC4/I2CVuggesystem_EZI2C_INT.c **** 
 254:.\Generated_Source\PSoC4/I2CVuggesystem_EZI2C_INT.c ****                             #endif /* (I2CVuggesystem_CY_SCBIP_V0) */
 255:.\Generated_Source\PSoC4/I2CVuggesystem_EZI2C_INT.c **** 
 256:.\Generated_Source\PSoC4/I2CVuggesystem_EZI2C_INT.c ****                                 /* Store local offset into global variable */
 257:.\Generated_Source\PSoC4/I2CVuggesystem_EZI2C_INT.c ****                                 I2CVuggesystem_EZI2C_SET_OFFSET(activeAddress, locIndex);
 321              		.loc 1 257 0 discriminator 2
 322 01c4 FB69     		ldr	r3, [r7, #28]
 323 01c6 DAB2     		uxtb	r2, r3
 324 01c8 634B     		ldr	r3, .L40+28
 325 01ca 1A70     		strb	r2, [r3]
 258:.\Generated_Source\PSoC4/I2CVuggesystem_EZI2C_INT.c ****                             }
 259:.\Generated_Source\PSoC4/I2CVuggesystem_EZI2C_INT.c ****                             else
 260:.\Generated_Source\PSoC4/I2CVuggesystem_EZI2C_INT.c ****                             {
 261:.\Generated_Source\PSoC4/I2CVuggesystem_EZI2C_INT.c ****                                 /* Discard offset byte and NACK */
 262:.\Generated_Source\PSoC4/I2CVuggesystem_EZI2C_INT.c ****                                 I2CVuggesystem_I2C_SLAVE_GENERATE_NACK;
 263:.\Generated_Source\PSoC4/I2CVuggesystem_EZI2C_INT.c ****                             }
 264:.\Generated_Source\PSoC4/I2CVuggesystem_EZI2C_INT.c ****                             break;
 326              		.loc 1 264 0 discriminator 2
 327 01cc 06E0     		b	.L16
 328              	.L17:
 262:.\Generated_Source\PSoC4/I2CVuggesystem_EZI2C_INT.c ****                                 I2CVuggesystem_I2C_SLAVE_GENERATE_NACK;
 329              		.loc 1 262 0
 330 01ce FFF7FEFF 		bl	I2CVuggesystem_I2CSlaveNackGeneration
 331              		.loc 1 264 0
 332 01d2 03E0     		b	.L16
 333              	.L39:
 265:.\Generated_Source\PSoC4/I2CVuggesystem_EZI2C_INT.c **** 
 266:.\Generated_Source\PSoC4/I2CVuggesystem_EZI2C_INT.c ****                         default:
 267:.\Generated_Source\PSoC4/I2CVuggesystem_EZI2C_INT.c ****                             CYASSERT(0u != 0u); /* Should never get there */
 334              		.loc 1 267 0
 335 01d4 0020     		mov	r0, #0
 336 01d6 FFF7FEFF 		bl	CyHalt
 268:.\Generated_Source\PSoC4/I2CVuggesystem_EZI2C_INT.c ****                             break;
 337              		.loc 1 268 0
 338 01da C046     		mov	r8, r8
 339              	.L16:
 269:.\Generated_Source\PSoC4/I2CVuggesystem_EZI2C_INT.c ****                         }
 270:.\Generated_Source\PSoC4/I2CVuggesystem_EZI2C_INT.c **** 
 271:.\Generated_Source\PSoC4/I2CVuggesystem_EZI2C_INT.c ****                         I2CVuggesystem_ClearRxInterruptSource(I2CVuggesystem_INTR_RX_NOT_EMPTY);
 340              		.loc 1 271 0
 341 01dc 624B     		ldr	r3, .L40+44
 342 01de 0422     		mov	r2, #4
 343 01e0 1A60     		str	r2, [r3]
 344 01e2 4EE0     		b	.L9
 345              	.L10:
 272:.\Generated_Source\PSoC4/I2CVuggesystem_EZI2C_INT.c ****                     }
 273:.\Generated_Source\PSoC4/I2CVuggesystem_EZI2C_INT.c ****                 }
 274:.\Generated_Source\PSoC4/I2CVuggesystem_EZI2C_INT.c ****                 /* INTR_RX.FULL, INTR_SLAVE.I2C_STOP */
 275:.\Generated_Source\PSoC4/I2CVuggesystem_EZI2C_INT.c ****                 /* Receive FIFO chunks: auto data ACK is enabled */
 276:.\Generated_Source\PSoC4/I2CVuggesystem_EZI2C_INT.c ****                 else if (0u != (I2CVuggesystem_I2C_CTRL_REG & I2CVuggesystem_I2C_CTRL_S_READY_DATA_
 346              		.loc 1 276 0
 347 01e4 5D4B     		ldr	r3, .L40+32
 348 01e6 1A68     		ldr	r2, [r3]
 349 01e8 8023     		mov	r3, #128
ARM GAS  C:\Users\Jeppe\AppData\Local\Temp\ccdvuPvF.s 			page 12


 350 01ea 9B01     		lsl	r3, r3, #6
 351 01ec 1340     		and	r3, r2
 352 01ee 48D0     		beq	.L9
 277:.\Generated_Source\PSoC4/I2CVuggesystem_EZI2C_INT.c ****                 {
 278:.\Generated_Source\PSoC4/I2CVuggesystem_EZI2C_INT.c ****                     /* Slave interrupt (I2C_STOP or I2C_ADDR_MATCH) leads to completion of read.
 279:.\Generated_Source\PSoC4/I2CVuggesystem_EZI2C_INT.c ****                     * A completion event has a higher priority than the FIFO full.
 280:.\Generated_Source\PSoC4/I2CVuggesystem_EZI2C_INT.c ****                     * Read remaining data from RX FIFO.
 281:.\Generated_Source\PSoC4/I2CVuggesystem_EZI2C_INT.c ****                     */
 282:.\Generated_Source\PSoC4/I2CVuggesystem_EZI2C_INT.c ****                     if(0u != (locIntrCause & I2CVuggesystem_INTR_CAUSE_SLAVE))
 353              		.loc 1 282 0
 354 01f0 BA68     		ldr	r2, [r7, #8]
 355 01f2 0223     		mov	r3, #2
 356 01f4 1340     		and	r3, r2
 357 01f6 0DD0     		beq	.L24
 283:.\Generated_Source\PSoC4/I2CVuggesystem_EZI2C_INT.c ****                     {
 284:.\Generated_Source\PSoC4/I2CVuggesystem_EZI2C_INT.c ****                         /* Read remaining bytes from RX FIFO */
 285:.\Generated_Source\PSoC4/I2CVuggesystem_EZI2C_INT.c ****                         fifoIndex = I2CVuggesystem_GET_RX_FIFO_ENTRIES;
 358              		.loc 1 285 0
 359 01f8 674B     		ldr	r3, .L40+92
 360 01fa 1A68     		ldr	r2, [r3]
 361 01fc 0F23     		mov	r3, #15
 362 01fe 1340     		and	r3, r2
 363 0200 3B61     		str	r3, [r7, #16]
 286:.\Generated_Source\PSoC4/I2CVuggesystem_EZI2C_INT.c **** 
 287:.\Generated_Source\PSoC4/I2CVuggesystem_EZI2C_INT.c ****                         #if(I2CVuggesystem_SECONDARY_ADDRESS_ENABLE)
 288:.\Generated_Source\PSoC4/I2CVuggesystem_EZI2C_INT.c ****                         {
 289:.\Generated_Source\PSoC4/I2CVuggesystem_EZI2C_INT.c ****                             /* Update with current address match */
 290:.\Generated_Source\PSoC4/I2CVuggesystem_EZI2C_INT.c ****                             if(I2CVuggesystem_CHECK_INTR_SLAVE_MASKED(I2CVuggesystem_INTR_SLAVE_I2C
 291:.\Generated_Source\PSoC4/I2CVuggesystem_EZI2C_INT.c ****                             {
 292:.\Generated_Source\PSoC4/I2CVuggesystem_EZI2C_INT.c ****                                 /* Update RX FIFO entries as address byte is there now */
 293:.\Generated_Source\PSoC4/I2CVuggesystem_EZI2C_INT.c ****                                 fifoIndex = I2CVuggesystem_GET_RX_FIFO_ENTRIES;
 294:.\Generated_Source\PSoC4/I2CVuggesystem_EZI2C_INT.c **** 
 295:.\Generated_Source\PSoC4/I2CVuggesystem_EZI2C_INT.c ****                                 /* If SR is valid, RX FIFO is full and address is in SHIFTER:
 296:.\Generated_Source\PSoC4/I2CVuggesystem_EZI2C_INT.c ****                                 * read 8 entries and leave address in RX FIFO for further processin
 297:.\Generated_Source\PSoC4/I2CVuggesystem_EZI2C_INT.c ****                                 * If SR is invalid, address is already in RX FIFO: read (entries-1)
 298:.\Generated_Source\PSoC4/I2CVuggesystem_EZI2C_INT.c ****                                 */
 299:.\Generated_Source\PSoC4/I2CVuggesystem_EZI2C_INT.c ****                                 fifoIndex -= ((0u != I2CVuggesystem_GET_RX_FIFO_SR_VALID) ? (0u) : 
 300:.\Generated_Source\PSoC4/I2CVuggesystem_EZI2C_INT.c ****                             }
 301:.\Generated_Source\PSoC4/I2CVuggesystem_EZI2C_INT.c ****                         }
 302:.\Generated_Source\PSoC4/I2CVuggesystem_EZI2C_INT.c ****                         #endif
 303:.\Generated_Source\PSoC4/I2CVuggesystem_EZI2C_INT.c **** 
 304:.\Generated_Source\PSoC4/I2CVuggesystem_EZI2C_INT.c ****                         I2CVuggesystem_DISABLE_SLAVE_AUTO_DATA;
 364              		.loc 1 304 0
 365 0202 564B     		ldr	r3, .L40+32
 366 0204 554A     		ldr	r2, .L40+32
 367 0206 1168     		ldr	r1, [r2]
 368 0208 554A     		ldr	r2, .L40+36
 369 020a 0A40     		and	r2, r1
 370 020c 1A60     		str	r2, [r3]
 305:.\Generated_Source\PSoC4/I2CVuggesystem_EZI2C_INT.c ****                         endTransfer = I2CVuggesystem_EZI2C_CONTINUE_TRANSFER;
 371              		.loc 1 305 0
 372 020e 0123     		mov	r3, #1
 373 0210 7B61     		str	r3, [r7, #20]
 374 0212 14E0     		b	.L25
 375              	.L24:
 306:.\Generated_Source\PSoC4/I2CVuggesystem_EZI2C_INT.c ****                     }
 307:.\Generated_Source\PSoC4/I2CVuggesystem_EZI2C_INT.c ****                     else
ARM GAS  C:\Users\Jeppe\AppData\Local\Temp\ccdvuPvF.s 			page 13


 308:.\Generated_Source\PSoC4/I2CVuggesystem_EZI2C_INT.c ****                     /* INTR_RX_FULL */
 309:.\Generated_Source\PSoC4/I2CVuggesystem_EZI2C_INT.c ****                     /* Continue transfer or disable INTR_RX_FULL to catch completion event. */
 310:.\Generated_Source\PSoC4/I2CVuggesystem_EZI2C_INT.c ****                     {
 311:.\Generated_Source\PSoC4/I2CVuggesystem_EZI2C_INT.c ****                         /* Calculate buffer size available to write data into */
 312:.\Generated_Source\PSoC4/I2CVuggesystem_EZI2C_INT.c ****                         locBufSize -= (uint16) I2CVuggesystem_EZI2C_FIFO_SIZE;
 376              		.loc 1 312 0
 377 0214 5B4B     		ldr	r3, .L40+72
 378 0216 1B88     		ldrh	r3, [r3]
 379 0218 083B     		sub	r3, r3, #8
 380 021a 9AB2     		uxth	r2, r3
 381 021c 594B     		ldr	r3, .L40+72
 382 021e 1A80     		strh	r2, [r3]
 313:.\Generated_Source\PSoC4/I2CVuggesystem_EZI2C_INT.c **** 
 314:.\Generated_Source\PSoC4/I2CVuggesystem_EZI2C_INT.c ****                         if(locBufSize <= I2CVuggesystem_EZI2C_FIFO_SIZE)
 383              		.loc 1 314 0
 384 0220 584B     		ldr	r3, .L40+72
 385 0222 1B88     		ldrh	r3, [r3]
 386 0224 082B     		cmp	r3, #8
 387 0226 05D8     		bhi	.L26
 315:.\Generated_Source\PSoC4/I2CVuggesystem_EZI2C_INT.c ****                         {
 316:.\Generated_Source\PSoC4/I2CVuggesystem_EZI2C_INT.c ****                             /* Send NACK when RX FIFO overflow */
 317:.\Generated_Source\PSoC4/I2CVuggesystem_EZI2C_INT.c ****                             fifoIndex   = locBufSize;
 388              		.loc 1 317 0
 389 0228 564B     		ldr	r3, .L40+72
 390 022a 1B88     		ldrh	r3, [r3]
 391 022c 3B61     		str	r3, [r7, #16]
 318:.\Generated_Source\PSoC4/I2CVuggesystem_EZI2C_INT.c ****                             endTransfer = I2CVuggesystem_EZI2C_COMPLETE_TRANSFER;
 392              		.loc 1 318 0
 393 022e 0023     		mov	r3, #0
 394 0230 7B61     		str	r3, [r7, #20]
 395 0232 04E0     		b	.L25
 396              	.L26:
 319:.\Generated_Source\PSoC4/I2CVuggesystem_EZI2C_INT.c ****                         }
 320:.\Generated_Source\PSoC4/I2CVuggesystem_EZI2C_INT.c ****                         else
 321:.\Generated_Source\PSoC4/I2CVuggesystem_EZI2C_INT.c ****                         {
 322:.\Generated_Source\PSoC4/I2CVuggesystem_EZI2C_INT.c ****                             /* Continue  transaction */
 323:.\Generated_Source\PSoC4/I2CVuggesystem_EZI2C_INT.c ****                             fifoIndex   = I2CVuggesystem_EZI2C_FIFO_SIZE;
 397              		.loc 1 323 0
 398 0234 0823     		mov	r3, #8
 399 0236 3B61     		str	r3, [r7, #16]
 324:.\Generated_Source\PSoC4/I2CVuggesystem_EZI2C_INT.c ****                             endTransfer = I2CVuggesystem_EZI2C_CONTINUE_TRANSFER;
 400              		.loc 1 324 0
 401 0238 0123     		mov	r3, #1
 402 023a 7B61     		str	r3, [r7, #20]
 325:.\Generated_Source\PSoC4/I2CVuggesystem_EZI2C_INT.c ****                         }
 326:.\Generated_Source\PSoC4/I2CVuggesystem_EZI2C_INT.c ****                     }
 327:.\Generated_Source\PSoC4/I2CVuggesystem_EZI2C_INT.c **** 
 328:.\Generated_Source\PSoC4/I2CVuggesystem_EZI2C_INT.c ****                     for(; (0u != fifoIndex); fifoIndex--)
 403              		.loc 1 328 0
 404 023c 0EE0     		b	.L27
 405              	.L25:
 406 023e 0DE0     		b	.L27
 407              	.L28:
 329:.\Generated_Source\PSoC4/I2CVuggesystem_EZI2C_INT.c ****                     {
 330:.\Generated_Source\PSoC4/I2CVuggesystem_EZI2C_INT.c ****                         /* Store data in buffer */
 331:.\Generated_Source\PSoC4/I2CVuggesystem_EZI2C_INT.c ****                         I2CVuggesystem_dataBuffer1[locIndex] = (uint8) I2CVuggesystem_RX_FIFO_RD_RE
 408              		.loc 1 331 0 discriminator 2
ARM GAS  C:\Users\Jeppe\AppData\Local\Temp\ccdvuPvF.s 			page 14


 409 0240 524B     		ldr	r3, .L40+80
 410 0242 1A68     		ldr	r2, [r3]
 411 0244 FB69     		ldr	r3, [r7, #28]
 412 0246 D218     		add	r2, r2, r3
 413 0248 4D4B     		ldr	r3, .L40+68
 414 024a 1B68     		ldr	r3, [r3]
 415 024c DBB2     		uxtb	r3, r3
 416 024e 1370     		strb	r3, [r2]
 332:.\Generated_Source\PSoC4/I2CVuggesystem_EZI2C_INT.c ****                         locIndex++;
 417              		.loc 1 332 0 discriminator 2
 418 0250 FB69     		ldr	r3, [r7, #28]
 419 0252 0133     		add	r3, r3, #1
 420 0254 FB61     		str	r3, [r7, #28]
 328:.\Generated_Source\PSoC4/I2CVuggesystem_EZI2C_INT.c ****                     for(; (0u != fifoIndex); fifoIndex--)
 421              		.loc 1 328 0 discriminator 2
 422 0256 3B69     		ldr	r3, [r7, #16]
 423 0258 013B     		sub	r3, r3, #1
 424 025a 3B61     		str	r3, [r7, #16]
 425              	.L27:
 328:.\Generated_Source\PSoC4/I2CVuggesystem_EZI2C_INT.c ****                     for(; (0u != fifoIndex); fifoIndex--)
 426              		.loc 1 328 0 is_stmt 0 discriminator 1
 427 025c 3B69     		ldr	r3, [r7, #16]
 428 025e 002B     		cmp	r3, #0
 429 0260 EED1     		bne	.L28
 333:.\Generated_Source\PSoC4/I2CVuggesystem_EZI2C_INT.c ****                     }
 334:.\Generated_Source\PSoC4/I2CVuggesystem_EZI2C_INT.c **** 
 335:.\Generated_Source\PSoC4/I2CVuggesystem_EZI2C_INT.c ****                     /* Complete transfer sending NACK when RX FIFO overflow */
 336:.\Generated_Source\PSoC4/I2CVuggesystem_EZI2C_INT.c ****                     if(I2CVuggesystem_EZI2C_COMPLETE_TRANSFER == endTransfer)
 430              		.loc 1 336 0 is_stmt 1
 431 0262 7B69     		ldr	r3, [r7, #20]
 432 0264 002B     		cmp	r3, #0
 433 0266 09D1     		bne	.L29
 337:.\Generated_Source\PSoC4/I2CVuggesystem_EZI2C_INT.c ****                     {
 338:.\Generated_Source\PSoC4/I2CVuggesystem_EZI2C_INT.c ****                         I2CVuggesystem_ENABLE_SLAVE_AUTO_DATA_NACK;
 434              		.loc 1 338 0
 435 0268 3C4B     		ldr	r3, .L40+32
 436 026a 3C4A     		ldr	r2, .L40+32
 437 026c 1268     		ldr	r2, [r2]
 438 026e 8021     		mov	r1, #128
 439 0270 0902     		lsl	r1, r1, #8
 440 0272 0A43     		orr	r2, r1
 441 0274 1A60     		str	r2, [r3]
 339:.\Generated_Source\PSoC4/I2CVuggesystem_EZI2C_INT.c **** 
 340:.\Generated_Source\PSoC4/I2CVuggesystem_EZI2C_INT.c ****                         /* Disable INTR_RX_FULL during last RX FIFO chunk reception */
 341:.\Generated_Source\PSoC4/I2CVuggesystem_EZI2C_INT.c ****                         I2CVuggesystem_SetRxInterruptMode(I2CVuggesystem_NO_INTR_SOURCES);
 442              		.loc 1 341 0
 443 0276 3B4B     		ldr	r3, .L40+40
 444 0278 0022     		mov	r2, #0
 445 027a 1A60     		str	r2, [r3]
 446              	.L29:
 342:.\Generated_Source\PSoC4/I2CVuggesystem_EZI2C_INT.c ****                     }
 343:.\Generated_Source\PSoC4/I2CVuggesystem_EZI2C_INT.c **** 
 344:.\Generated_Source\PSoC4/I2CVuggesystem_EZI2C_INT.c ****                     I2CVuggesystem_ClearRxInterruptSource(I2CVuggesystem_INTR_RX_FULL |
 447              		.loc 1 344 0
 448 027c 3A4B     		ldr	r3, .L40+44
 449 027e 0C22     		mov	r2, #12
 450 0280 1A60     		str	r2, [r3]
ARM GAS  C:\Users\Jeppe\AppData\Local\Temp\ccdvuPvF.s 			page 15


 451              	.L9:
 345:.\Generated_Source\PSoC4/I2CVuggesystem_EZI2C_INT.c ****                                                             I2CVuggesystem_INTR_RX_NOT_EMPTY);
 346:.\Generated_Source\PSoC4/I2CVuggesystem_EZI2C_INT.c ****                 }
 347:.\Generated_Source\PSoC4/I2CVuggesystem_EZI2C_INT.c ****                 else
 348:.\Generated_Source\PSoC4/I2CVuggesystem_EZI2C_INT.c ****                 {
 349:.\Generated_Source\PSoC4/I2CVuggesystem_EZI2C_INT.c ****                     /* Exit for slave interrupts which are not active for RX direction:
 350:.\Generated_Source\PSoC4/I2CVuggesystem_EZI2C_INT.c ****                     * INTR_SLAVE.I2C_ADDR_MATCH and INTR_SLAVE.I2C_STOP while byte-by-byte receptio
 351:.\Generated_Source\PSoC4/I2CVuggesystem_EZI2C_INT.c ****                     */
 352:.\Generated_Source\PSoC4/I2CVuggesystem_EZI2C_INT.c ****                 }
 353:.\Generated_Source\PSoC4/I2CVuggesystem_EZI2C_INT.c ****             }
 354:.\Generated_Source\PSoC4/I2CVuggesystem_EZI2C_INT.c **** 
 355:.\Generated_Source\PSoC4/I2CVuggesystem_EZI2C_INT.c ****             if(0u != (locIntrCause & I2CVuggesystem_INTR_CAUSE_SLAVE))
 452              		.loc 1 355 0
 453 0282 BA68     		ldr	r2, [r7, #8]
 454 0284 0223     		mov	r3, #2
 455 0286 1340     		and	r3, r2
 456 0288 00D1     		bne	.LCB396
 457 028a 9CE0     		b	.L30	@long jump
 458              	.LCB396:
 356:.\Generated_Source\PSoC4/I2CVuggesystem_EZI2C_INT.c ****             {
 357:.\Generated_Source\PSoC4/I2CVuggesystem_EZI2C_INT.c ****                 /* INTR_SLAVE.I2C_STOP */
 358:.\Generated_Source\PSoC4/I2CVuggesystem_EZI2C_INT.c ****                 /* Catch Stop condition: completion of write or read transfer */
 359:.\Generated_Source\PSoC4/I2CVuggesystem_EZI2C_INT.c ****             #if(!I2CVuggesystem_SECONDARY_ADDRESS_ENABLE_CONST)
 360:.\Generated_Source\PSoC4/I2CVuggesystem_EZI2C_INT.c ****                 if(0u != (locIntrSlave & I2CVuggesystem_INTR_SLAVE_I2C_STOP))
 459              		.loc 1 360 0
 460 028c FA68     		ldr	r2, [r7, #12]
 461 028e 1023     		mov	r3, #16
 462 0290 1340     		and	r3, r2
 463 0292 26D0     		beq	.L31
 361:.\Generated_Source\PSoC4/I2CVuggesystem_EZI2C_INT.c ****             #else
 362:.\Generated_Source\PSoC4/I2CVuggesystem_EZI2C_INT.c ****                 /* Prevent triggering when matched address was NACKed */
 363:.\Generated_Source\PSoC4/I2CVuggesystem_EZI2C_INT.c ****                 if((0u != (locIntrSlave & I2CVuggesystem_INTR_SLAVE_I2C_STOP)) &&
 364:.\Generated_Source\PSoC4/I2CVuggesystem_EZI2C_INT.c ****                    (0u != ((uint8) I2CVuggesystem_EZI2C_STATUS_BUSY & I2CVuggesystem_curStatus)))
 365:.\Generated_Source\PSoC4/I2CVuggesystem_EZI2C_INT.c ****             #endif
 366:.\Generated_Source\PSoC4/I2CVuggesystem_EZI2C_INT.c ****                 {
 367:.\Generated_Source\PSoC4/I2CVuggesystem_EZI2C_INT.c ****                     /* Disable TX and RX interrupt sources */
 368:.\Generated_Source\PSoC4/I2CVuggesystem_EZI2C_INT.c ****                     I2CVuggesystem_SetRxInterruptMode(I2CVuggesystem_NO_INTR_SOURCES);
 464              		.loc 1 368 0
 465 0294 334B     		ldr	r3, .L40+40
 466 0296 0022     		mov	r2, #0
 467 0298 1A60     		str	r2, [r3]
 369:.\Generated_Source\PSoC4/I2CVuggesystem_EZI2C_INT.c ****                     I2CVuggesystem_SetTxInterruptMode(I2CVuggesystem_NO_INTR_SOURCES);
 468              		.loc 1 369 0
 469 029a 2E4B     		ldr	r3, .L40+24
 470 029c 0022     		mov	r2, #0
 471 029e 1A60     		str	r2, [r3]
 370:.\Generated_Source\PSoC4/I2CVuggesystem_EZI2C_INT.c **** 
 371:.\Generated_Source\PSoC4/I2CVuggesystem_EZI2C_INT.c ****                     /* Set read completion mask */
 372:.\Generated_Source\PSoC4/I2CVuggesystem_EZI2C_INT.c ****                     locStatus = I2CVuggesystem_INTR_SLAVE_I2C_NACK;
 472              		.loc 1 372 0
 473 02a0 0223     		mov	r3, #2
 474 02a2 BB61     		str	r3, [r7, #24]
 373:.\Generated_Source\PSoC4/I2CVuggesystem_EZI2C_INT.c **** 
 374:.\Generated_Source\PSoC4/I2CVuggesystem_EZI2C_INT.c ****                     /* Check if buffer content was modified: the address phase resets the locIndex 
 375:.\Generated_Source\PSoC4/I2CVuggesystem_EZI2C_INT.c ****                     if(locIndex != I2CVuggesystem_EZI2C_GET_OFFSET(activeAddress))
 475              		.loc 1 375 0
 476 02a4 2C4B     		ldr	r3, .L40+28
ARM GAS  C:\Users\Jeppe\AppData\Local\Temp\ccdvuPvF.s 			page 16


 477 02a6 1B78     		ldrb	r3, [r3]
 478 02a8 1A1C     		mov	r2, r3
 479 02aa FB69     		ldr	r3, [r7, #28]
 480 02ac 9A42     		cmp	r2, r3
 481 02ae 03D0     		beq	.L32
 376:.\Generated_Source\PSoC4/I2CVuggesystem_EZI2C_INT.c ****                     {
 377:.\Generated_Source\PSoC4/I2CVuggesystem_EZI2C_INT.c ****                         locStatus |= I2CVuggesystem_INTR_SLAVE_I2C_WRITE_STOP;
 482              		.loc 1 377 0
 483 02b0 BB69     		ldr	r3, [r7, #24]
 484 02b2 0822     		mov	r2, #8
 485 02b4 1343     		orr	r3, r2
 486 02b6 BB61     		str	r3, [r7, #24]
 487              	.L32:
 378:.\Generated_Source\PSoC4/I2CVuggesystem_EZI2C_INT.c ****                     }
 379:.\Generated_Source\PSoC4/I2CVuggesystem_EZI2C_INT.c **** 
 380:.\Generated_Source\PSoC4/I2CVuggesystem_EZI2C_INT.c ****                     /* Complete read or write transaction */
 381:.\Generated_Source\PSoC4/I2CVuggesystem_EZI2C_INT.c ****                     locStatus &= locIntrSlave;
 488              		.loc 1 381 0
 489 02b8 BB69     		ldr	r3, [r7, #24]
 490 02ba FA68     		ldr	r2, [r7, #12]
 491 02bc 1340     		and	r3, r2
 492 02be BB61     		str	r3, [r7, #24]
 382:.\Generated_Source\PSoC4/I2CVuggesystem_EZI2C_INT.c ****                     I2CVuggesystem_EZI2C_UPDATE_LOC_STATUS(activeAddress, locStatus);
 383:.\Generated_Source\PSoC4/I2CVuggesystem_EZI2C_INT.c ****                     locStatus |= (uint32)  I2CVuggesystem_curStatus;
 493              		.loc 1 383 0
 494 02c0 234B     		ldr	r3, .L40+20
 495 02c2 1B78     		ldrb	r3, [r3]
 496 02c4 DBB2     		uxtb	r3, r3
 497 02c6 BA69     		ldr	r2, [r7, #24]
 498 02c8 1343     		orr	r3, r2
 499 02ca BB61     		str	r3, [r7, #24]
 384:.\Generated_Source\PSoC4/I2CVuggesystem_EZI2C_INT.c ****                     locStatus &= (uint32) ~I2CVuggesystem_EZI2C_STATUS_BUSY;
 500              		.loc 1 384 0
 501 02cc BB69     		ldr	r3, [r7, #24]
 502 02ce 2022     		mov	r2, #32
 503 02d0 9343     		bic	r3, r2
 504 02d2 BB61     		str	r3, [r7, #24]
 385:.\Generated_Source\PSoC4/I2CVuggesystem_EZI2C_INT.c ****                     I2CVuggesystem_curStatus = (uint8) locStatus;
 505              		.loc 1 385 0
 506 02d4 BB69     		ldr	r3, [r7, #24]
 507 02d6 DAB2     		uxtb	r2, r3
 508 02d8 1D4B     		ldr	r3, .L40+20
 509 02da 1A70     		strb	r2, [r3]
 386:.\Generated_Source\PSoC4/I2CVuggesystem_EZI2C_INT.c **** 
 387:.\Generated_Source\PSoC4/I2CVuggesystem_EZI2C_INT.c ****                     I2CVuggesystem_fsmState = I2CVuggesystem_EZI2C_FSM_IDLE;
 510              		.loc 1 387 0
 511 02dc 254B     		ldr	r3, .L40+56
 512 02de 0022     		mov	r2, #0
 513 02e0 1A70     		strb	r2, [r3]
 514              	.L31:
 388:.\Generated_Source\PSoC4/I2CVuggesystem_EZI2C_INT.c **** 
 389:.\Generated_Source\PSoC4/I2CVuggesystem_EZI2C_INT.c ****                     #if(I2CVuggesystem_SECONDARY_ADDRESS_ENABLE)
 390:.\Generated_Source\PSoC4/I2CVuggesystem_EZI2C_INT.c ****                     {
 391:.\Generated_Source\PSoC4/I2CVuggesystem_EZI2C_INT.c ****                         /* Store local index into global variable, before address phase */
 392:.\Generated_Source\PSoC4/I2CVuggesystem_EZI2C_INT.c ****                         I2CVuggesystem_EZI2C_SET_INDEX(activeAddress, locIndex);
 393:.\Generated_Source\PSoC4/I2CVuggesystem_EZI2C_INT.c ****                     }
 394:.\Generated_Source\PSoC4/I2CVuggesystem_EZI2C_INT.c ****                     #endif
ARM GAS  C:\Users\Jeppe\AppData\Local\Temp\ccdvuPvF.s 			page 17


 395:.\Generated_Source\PSoC4/I2CVuggesystem_EZI2C_INT.c ****                 }
 396:.\Generated_Source\PSoC4/I2CVuggesystem_EZI2C_INT.c **** 
 397:.\Generated_Source\PSoC4/I2CVuggesystem_EZI2C_INT.c ****                 /* INTR_SLAVE.I2C_ADDR_MATCH */
 398:.\Generated_Source\PSoC4/I2CVuggesystem_EZI2C_INT.c ****                 /* The matched address is received: the slave starts its operation.
 399:.\Generated_Source\PSoC4/I2CVuggesystem_EZI2C_INT.c ****                 * INTR_SLAVE_I2C_STOP updates the buffer index before the address phase for two add
 400:.\Generated_Source\PSoC4/I2CVuggesystem_EZI2C_INT.c ****                 * This is done to update buffer index correctly before the address phase changes it
 401:.\Generated_Source\PSoC4/I2CVuggesystem_EZI2C_INT.c ****                 */
 402:.\Generated_Source\PSoC4/I2CVuggesystem_EZI2C_INT.c ****                 if(0u != (locIntrSlave & I2CVuggesystem_INTR_SLAVE_I2C_ADDR_MATCH))
 515              		.loc 1 402 0
 516 02e2 FA68     		ldr	r2, [r7, #12]
 517 02e4 4023     		mov	r3, #64
 518 02e6 1340     		and	r3, r2
 519 02e8 6AD0     		beq	.L33
 403:.\Generated_Source\PSoC4/I2CVuggesystem_EZI2C_INT.c ****                 {
 404:.\Generated_Source\PSoC4/I2CVuggesystem_EZI2C_INT.c ****                     #if(I2CVuggesystem_SECONDARY_ADDRESS_ENABLE)
 405:.\Generated_Source\PSoC4/I2CVuggesystem_EZI2C_INT.c ****                     {
 406:.\Generated_Source\PSoC4/I2CVuggesystem_EZI2C_INT.c ****                         /* Read address byte from RX FIFO */
 407:.\Generated_Source\PSoC4/I2CVuggesystem_EZI2C_INT.c ****                         locByte = I2CVuggesystem_GET_I2C_7BIT_ADDRESS(I2CVuggesystem_RX_FIFO_RD_REG
 408:.\Generated_Source\PSoC4/I2CVuggesystem_EZI2C_INT.c **** 
 409:.\Generated_Source\PSoC4/I2CVuggesystem_EZI2C_INT.c ****                         I2CVuggesystem_ClearRxInterruptSource(I2CVuggesystem_INTR_RX_NOT_EMPTY);
 410:.\Generated_Source\PSoC4/I2CVuggesystem_EZI2C_INT.c **** 
 411:.\Generated_Source\PSoC4/I2CVuggesystem_EZI2C_INT.c ****                         /* Check received address against device addresses */
 412:.\Generated_Source\PSoC4/I2CVuggesystem_EZI2C_INT.c ****                         if(I2CVuggesystem_addrBuf1 == locByte)
 413:.\Generated_Source\PSoC4/I2CVuggesystem_EZI2C_INT.c ****                         {
 414:.\Generated_Source\PSoC4/I2CVuggesystem_EZI2C_INT.c ****                             /* Set buffer exposed to primary slave address */
 415:.\Generated_Source\PSoC4/I2CVuggesystem_EZI2C_INT.c ****                             I2CVuggesystem_dataBuffer = I2CVuggesystem_dataBuffer1;
 416:.\Generated_Source\PSoC4/I2CVuggesystem_EZI2C_INT.c ****                             I2CVuggesystem_bufSizeBuf = I2CVuggesystem_bufSizeBuf1;
 417:.\Generated_Source\PSoC4/I2CVuggesystem_EZI2C_INT.c ****                             I2CVuggesystem_protectBuf = I2CVuggesystem_protectBuf1;
 418:.\Generated_Source\PSoC4/I2CVuggesystem_EZI2C_INT.c **** 
 419:.\Generated_Source\PSoC4/I2CVuggesystem_EZI2C_INT.c ****                             activeAddress = I2CVuggesystem_EZI2C_ACTIVE_ADDRESS1;
 420:.\Generated_Source\PSoC4/I2CVuggesystem_EZI2C_INT.c ****                         }
 421:.\Generated_Source\PSoC4/I2CVuggesystem_EZI2C_INT.c ****                         else if(I2CVuggesystem_addrBuf2 == locByte)
 422:.\Generated_Source\PSoC4/I2CVuggesystem_EZI2C_INT.c ****                         {
 423:.\Generated_Source\PSoC4/I2CVuggesystem_EZI2C_INT.c ****                             /* Set buffer exposed to secondary slave address */
 424:.\Generated_Source\PSoC4/I2CVuggesystem_EZI2C_INT.c ****                             I2CVuggesystem_dataBuffer = I2CVuggesystem_dataBuffer2;
 425:.\Generated_Source\PSoC4/I2CVuggesystem_EZI2C_INT.c ****                             I2CVuggesystem_bufSizeBuf = I2CVuggesystem_bufSizeBuf2;
 426:.\Generated_Source\PSoC4/I2CVuggesystem_EZI2C_INT.c ****                             I2CVuggesystem_protectBuf = I2CVuggesystem_protectBuf2;
 427:.\Generated_Source\PSoC4/I2CVuggesystem_EZI2C_INT.c **** 
 428:.\Generated_Source\PSoC4/I2CVuggesystem_EZI2C_INT.c ****                             activeAddress = I2CVuggesystem_EZI2C_ACTIVE_ADDRESS2;
 429:.\Generated_Source\PSoC4/I2CVuggesystem_EZI2C_INT.c ****                         }
 430:.\Generated_Source\PSoC4/I2CVuggesystem_EZI2C_INT.c ****                         else
 431:.\Generated_Source\PSoC4/I2CVuggesystem_EZI2C_INT.c ****                         {
 432:.\Generated_Source\PSoC4/I2CVuggesystem_EZI2C_INT.c ****                             /* Address does not match */
 433:.\Generated_Source\PSoC4/I2CVuggesystem_EZI2C_INT.c ****                             ackResponse = I2CVuggesystem_EZI2C_NACK_RECEIVED_ADDRESS;
 434:.\Generated_Source\PSoC4/I2CVuggesystem_EZI2C_INT.c ****                         }
 435:.\Generated_Source\PSoC4/I2CVuggesystem_EZI2C_INT.c ****                     }
 436:.\Generated_Source\PSoC4/I2CVuggesystem_EZI2C_INT.c ****                     #endif
 437:.\Generated_Source\PSoC4/I2CVuggesystem_EZI2C_INT.c **** 
 438:.\Generated_Source\PSoC4/I2CVuggesystem_EZI2C_INT.c ****                 #if(I2CVuggesystem_SECONDARY_ADDRESS_ENABLE_CONST)
 439:.\Generated_Source\PSoC4/I2CVuggesystem_EZI2C_INT.c ****                     if(I2CVuggesystem_EZI2C_NACK_RECEIVED_ADDRESS == ackResponse)
 440:.\Generated_Source\PSoC4/I2CVuggesystem_EZI2C_INT.c ****                     {
 441:.\Generated_Source\PSoC4/I2CVuggesystem_EZI2C_INT.c ****                         /* Clear interrupt sources before NACK address */
 442:.\Generated_Source\PSoC4/I2CVuggesystem_EZI2C_INT.c ****                         I2CVuggesystem_ClearI2CExtClkInterruptSource(I2CVuggesystem_INTR_I2C_EC_WAK
 443:.\Generated_Source\PSoC4/I2CVuggesystem_EZI2C_INT.c ****                         I2CVuggesystem_ClearSlaveInterruptSource(I2CVuggesystem_INTR_SLAVE_ALL);
 444:.\Generated_Source\PSoC4/I2CVuggesystem_EZI2C_INT.c **** 
 445:.\Generated_Source\PSoC4/I2CVuggesystem_EZI2C_INT.c ****                     #if(!I2CVuggesystem_CY_SCBIP_V0)
 446:.\Generated_Source\PSoC4/I2CVuggesystem_EZI2C_INT.c ****                         /* Disable INTR_I2C_STOP to not trigger after matched address is NACKed. Ti
ARM GAS  C:\Users\Jeppe\AppData\Local\Temp\ccdvuPvF.s 			page 18


 447:.\Generated_Source\PSoC4/I2CVuggesystem_EZI2C_INT.c ****                         I2CVuggesystem_DISABLE_INTR_SLAVE(I2CVuggesystem_INTR_SLAVE_I2C_STOP);
 448:.\Generated_Source\PSoC4/I2CVuggesystem_EZI2C_INT.c ****                     #endif /* (!I2CVuggesystem_CY_SCBIP_V0) */
 449:.\Generated_Source\PSoC4/I2CVuggesystem_EZI2C_INT.c **** 
 450:.\Generated_Source\PSoC4/I2CVuggesystem_EZI2C_INT.c ****                         /* NACK address byte: it does not match neither primary nor secondary */
 451:.\Generated_Source\PSoC4/I2CVuggesystem_EZI2C_INT.c ****                         I2CVuggesystem_I2C_SLAVE_GENERATE_NACK;
 452:.\Generated_Source\PSoC4/I2CVuggesystem_EZI2C_INT.c ****                     }
 453:.\Generated_Source\PSoC4/I2CVuggesystem_EZI2C_INT.c ****                     else
 454:.\Generated_Source\PSoC4/I2CVuggesystem_EZI2C_INT.c ****                 #endif /* (I2CVuggesystem_SECONDARY_ADDRESS_ENABLE_CONST) */
 455:.\Generated_Source\PSoC4/I2CVuggesystem_EZI2C_INT.c ****                     {
 456:.\Generated_Source\PSoC4/I2CVuggesystem_EZI2C_INT.c **** 
 457:.\Generated_Source\PSoC4/I2CVuggesystem_EZI2C_INT.c ****                     #if(I2CVuggesystem_SCB_MODE_UNCONFIG_CONST_CFG)
 458:.\Generated_Source\PSoC4/I2CVuggesystem_EZI2C_INT.c ****                         if(!I2CVuggesystem_SECONDARY_ADDRESS_ENABLE)
 459:.\Generated_Source\PSoC4/I2CVuggesystem_EZI2C_INT.c ****                         {
 460:.\Generated_Source\PSoC4/I2CVuggesystem_EZI2C_INT.c ****                             /* Set buffer exposed to primary slave address */
 461:.\Generated_Source\PSoC4/I2CVuggesystem_EZI2C_INT.c ****                             I2CVuggesystem_dataBuffer = I2CVuggesystem_dataBuffer1;
 462:.\Generated_Source\PSoC4/I2CVuggesystem_EZI2C_INT.c ****                             I2CVuggesystem_bufSizeBuf = I2CVuggesystem_bufSizeBuf1;
 463:.\Generated_Source\PSoC4/I2CVuggesystem_EZI2C_INT.c ****                             I2CVuggesystem_protectBuf = I2CVuggesystem_protectBuf1;
 464:.\Generated_Source\PSoC4/I2CVuggesystem_EZI2C_INT.c **** 
 465:.\Generated_Source\PSoC4/I2CVuggesystem_EZI2C_INT.c ****                             activeAddress = I2CVuggesystem_EZI2C_ACTIVE_ADDRESS1;
 466:.\Generated_Source\PSoC4/I2CVuggesystem_EZI2C_INT.c ****                         }
 467:.\Generated_Source\PSoC4/I2CVuggesystem_EZI2C_INT.c ****                     #endif /* (I2CVuggesystem_SCB_MODE_UNCONFIG_CONST_CFG) */
 468:.\Generated_Source\PSoC4/I2CVuggesystem_EZI2C_INT.c **** 
 469:.\Generated_Source\PSoC4/I2CVuggesystem_EZI2C_INT.c ****                         /* Bus becomes busy after address is received */
 470:.\Generated_Source\PSoC4/I2CVuggesystem_EZI2C_INT.c ****                         I2CVuggesystem_curStatus |= (uint8) I2CVuggesystem_EZI2C_STATUS_BUSY;
 520              		.loc 1 470 0
 521 02ea 194B     		ldr	r3, .L40+20
 522 02ec 1B78     		ldrb	r3, [r3]
 523 02ee DBB2     		uxtb	r3, r3
 524 02f0 2022     		mov	r2, #32
 525 02f2 1343     		orr	r3, r2
 526 02f4 DAB2     		uxtb	r2, r3
 527 02f6 164B     		ldr	r3, .L40+20
 528 02f8 1A70     		strb	r2, [r3]
 471:.\Generated_Source\PSoC4/I2CVuggesystem_EZI2C_INT.c **** 
 472:.\Generated_Source\PSoC4/I2CVuggesystem_EZI2C_INT.c ****                         /* Slave is read or written: set current offset */
 473:.\Generated_Source\PSoC4/I2CVuggesystem_EZI2C_INT.c ****                         locIndex = I2CVuggesystem_EZI2C_GET_OFFSET(activeAddress);
 529              		.loc 1 473 0
 530 02fa 174B     		ldr	r3, .L40+28
 531 02fc 1B78     		ldrb	r3, [r3]
 532 02fe FB61     		str	r3, [r7, #28]
 474:.\Generated_Source\PSoC4/I2CVuggesystem_EZI2C_INT.c **** 
 475:.\Generated_Source\PSoC4/I2CVuggesystem_EZI2C_INT.c ****                         /* Check transaction direction */
 476:.\Generated_Source\PSoC4/I2CVuggesystem_EZI2C_INT.c ****                         if(I2CVuggesystem_CHECK_I2C_STATUS(I2CVuggesystem_I2C_STATUS_S_READ))
 533              		.loc 1 476 0
 534 0300 264B     		ldr	r3, .L40+96
 535 0302 1A68     		ldr	r2, [r3]
 536 0304 1023     		mov	r3, #16
 537 0306 1340     		and	r3, r2
 538 0308 4ED0     		beq	.L34
 477:.\Generated_Source\PSoC4/I2CVuggesystem_EZI2C_INT.c ****                         {
 478:.\Generated_Source\PSoC4/I2CVuggesystem_EZI2C_INT.c ****                             /* Calculate slave buffer size */
 479:.\Generated_Source\PSoC4/I2CVuggesystem_EZI2C_INT.c ****                             locBufSize = I2CVuggesystem_bufSizeBuf1 - (uint16) locIndex;
 539              		.loc 1 479 0
 540 030a 214B     		ldr	r3, .L40+84
 541 030c 1A88     		ldrh	r2, [r3]
 542 030e FB69     		ldr	r3, [r7, #28]
 543 0310 9BB2     		uxth	r3, r3
ARM GAS  C:\Users\Jeppe\AppData\Local\Temp\ccdvuPvF.s 			page 19


 544 0312 D31A     		sub	r3, r2, r3
 545 0314 9AB2     		uxth	r2, r3
 546 0316 1B4B     		ldr	r3, .L40+72
 547 0318 1A80     		strh	r2, [r3]
 480:.\Generated_Source\PSoC4/I2CVuggesystem_EZI2C_INT.c **** 
 481:.\Generated_Source\PSoC4/I2CVuggesystem_EZI2C_INT.c ****                             /* Clear TX FIFO to start fill from offset */
 482:.\Generated_Source\PSoC4/I2CVuggesystem_EZI2C_INT.c ****                             I2CVuggesystem_CLEAR_TX_FIFO;
 548              		.loc 1 482 0
 549 031a 214B     		ldr	r3, .L40+100
 550 031c 204A     		ldr	r2, .L40+100
 551 031e 1268     		ldr	r2, [r2]
 552 0320 8021     		mov	r1, #128
 553 0322 4902     		lsl	r1, r1, #9
 554 0324 0A43     		orr	r2, r1
 555 0326 1A60     		str	r2, [r3]
 556 0328 1D4B     		ldr	r3, .L40+100
 557 032a 1D4A     		ldr	r2, .L40+100
 558 032c 1168     		ldr	r1, [r2]
 559 032e 1D4A     		ldr	r2, .L40+104
 560 0330 0A40     		and	r2, r1
 561 0332 1A60     		str	r2, [r3]
 483:.\Generated_Source\PSoC4/I2CVuggesystem_EZI2C_INT.c ****                             I2CVuggesystem_SetTxInterruptMode(I2CVuggesystem_INTR_TX_EMPTY);
 562              		.loc 1 483 0
 563 0334 074B     		ldr	r3, .L40+24
 564 0336 1022     		mov	r2, #16
 565 0338 1A60     		str	r2, [r3]
 566 033a 38E0     		b	.L35
 567              	.L41:
 568              		.align	2
 569              	.L40:
 570 033c 00000000 		.word	I2CVuggesystem_customIntrHandler
 571 0340 00000000 		.word	I2CVuggesystem_indexBuf1
 572 0344 400F0640 		.word	1074138944
 573 0348 000E0640 		.word	1074138624
 574 034c 00000640 		.word	1074135040
 575 0350 00000000 		.word	I2CVuggesystem_curStatus
 576 0354 880F0640 		.word	1074139016
 577 0358 00000000 		.word	I2CVuggesystem_offsetBuf1
 578 035c 60000640 		.word	1074135136
 579 0360 FF5FFFFF 		.word	-40961
 580 0364 C80F0640 		.word	1074139080
 581 0368 C00F0640 		.word	1074139072
 582 036c ED0F0000 		.word	4077
 583 0370 FF0F0000 		.word	4095
 584 0374 00000000 		.word	I2CVuggesystem_fsmState
 585 0378 880E0640 		.word	1074138760
 586 037c CC0F0640 		.word	1074139084
 587 0380 40030640 		.word	1074135872
 588 0384 00000000 		.word	locBufSize.4742
 589 0388 6C000640 		.word	1074135148
 590 038c 00000000 		.word	I2CVuggesystem_dataBuffer1
 591 0390 00000000 		.word	I2CVuggesystem_bufSizeBuf1
 592 0394 00000000 		.word	I2CVuggesystem_protectBuf1
 593 0398 08030640 		.word	1074135816
 594 039c 64000640 		.word	1074135140
 595 03a0 04020640 		.word	1074135556
 596 03a4 FFFFFEFF 		.word	-65537
ARM GAS  C:\Users\Jeppe\AppData\Local\Temp\ccdvuPvF.s 			page 20


 597              	.L34:
 484:.\Generated_Source\PSoC4/I2CVuggesystem_EZI2C_INT.c ****                         }
 485:.\Generated_Source\PSoC4/I2CVuggesystem_EZI2C_INT.c ****                         else
 486:.\Generated_Source\PSoC4/I2CVuggesystem_EZI2C_INT.c ****                         {
 487:.\Generated_Source\PSoC4/I2CVuggesystem_EZI2C_INT.c ****                             /* Master writes: enable reception interrupt. The FSM state was set in 
 488:.\Generated_Source\PSoC4/I2CVuggesystem_EZI2C_INT.c ****                             I2CVuggesystem_SetRxInterruptMode(I2CVuggesystem_INTR_RX_NOT_EMPTY);
 598              		.loc 1 488 0
 599 03a8 1E4B     		ldr	r3, .L42
 600 03aa 0422     		mov	r2, #4
 601 03ac 1A60     		str	r2, [r3]
 602              	.L35:
 489:.\Generated_Source\PSoC4/I2CVuggesystem_EZI2C_INT.c ****                         }
 490:.\Generated_Source\PSoC4/I2CVuggesystem_EZI2C_INT.c **** 
 491:.\Generated_Source\PSoC4/I2CVuggesystem_EZI2C_INT.c ****                         /* Clear interrupt sources before ACK address */
 492:.\Generated_Source\PSoC4/I2CVuggesystem_EZI2C_INT.c ****                         I2CVuggesystem_ClearI2CExtClkInterruptSource(I2CVuggesystem_INTR_I2C_EC_WAK
 603              		.loc 1 492 0
 604 03ae 1E4B     		ldr	r3, .L42+4
 605 03b0 0122     		mov	r2, #1
 606 03b2 1A60     		str	r2, [r3]
 493:.\Generated_Source\PSoC4/I2CVuggesystem_EZI2C_INT.c ****                         I2CVuggesystem_ClearSlaveInterruptSource(I2CVuggesystem_INTR_SLAVE_ALL);
 607              		.loc 1 493 0
 608 03b4 1D4B     		ldr	r3, .L42+8
 609 03b6 1E4A     		ldr	r2, .L42+12
 610 03b8 1A60     		str	r2, [r3]
 494:.\Generated_Source\PSoC4/I2CVuggesystem_EZI2C_INT.c **** 
 495:.\Generated_Source\PSoC4/I2CVuggesystem_EZI2C_INT.c ****                     #if (!I2CVuggesystem_CY_SCBIP_V0)
 496:.\Generated_Source\PSoC4/I2CVuggesystem_EZI2C_INT.c ****                         /* Enable STOP to trigger after address match is ACKed. Ticket ID#156094 */
 497:.\Generated_Source\PSoC4/I2CVuggesystem_EZI2C_INT.c ****                         I2CVuggesystem_ENABLE_INTR_SLAVE(I2CVuggesystem_INTR_SLAVE_I2C_STOP);
 498:.\Generated_Source\PSoC4/I2CVuggesystem_EZI2C_INT.c ****                     #endif /* (!I2CVuggesystem_CY_SCBIP_V0) */
 499:.\Generated_Source\PSoC4/I2CVuggesystem_EZI2C_INT.c **** 
 500:.\Generated_Source\PSoC4/I2CVuggesystem_EZI2C_INT.c ****                         /* ACK the address byte */
 501:.\Generated_Source\PSoC4/I2CVuggesystem_EZI2C_INT.c ****                         I2CVuggesystem_I2C_SLAVE_GENERATE_ACK;
 611              		.loc 1 501 0
 612 03ba 1E4B     		ldr	r3, .L42+16
 613 03bc 0122     		mov	r2, #1
 614 03be 1A60     		str	r2, [r3]
 615              	.L33:
 502:.\Generated_Source\PSoC4/I2CVuggesystem_EZI2C_INT.c ****                     }
 503:.\Generated_Source\PSoC4/I2CVuggesystem_EZI2C_INT.c ****                 }
 504:.\Generated_Source\PSoC4/I2CVuggesystem_EZI2C_INT.c **** 
 505:.\Generated_Source\PSoC4/I2CVuggesystem_EZI2C_INT.c ****                 /* Clear slave interrupt sources */
 506:.\Generated_Source\PSoC4/I2CVuggesystem_EZI2C_INT.c ****                 I2CVuggesystem_ClearSlaveInterruptSource(locIntrSlave);
 616              		.loc 1 506 0
 617 03c0 1A4B     		ldr	r3, .L42+8
 618 03c2 FA68     		ldr	r2, [r7, #12]
 619 03c4 1A60     		str	r2, [r3]
 620              	.L30:
 507:.\Generated_Source\PSoC4/I2CVuggesystem_EZI2C_INT.c ****             }
 508:.\Generated_Source\PSoC4/I2CVuggesystem_EZI2C_INT.c **** 
 509:.\Generated_Source\PSoC4/I2CVuggesystem_EZI2C_INT.c ****             /* INTR_TX.EMPTY */
 510:.\Generated_Source\PSoC4/I2CVuggesystem_EZI2C_INT.c ****             /* Transmits data to the master: loads data into the TX FIFO. The 0xFF sends out if the
 511:.\Generated_Source\PSoC4/I2CVuggesystem_EZI2C_INT.c ****             * out the buffer. The address reception with a read flag clears the TX FIFO to be loade
 512:.\Generated_Source\PSoC4/I2CVuggesystem_EZI2C_INT.c ****             */
 513:.\Generated_Source\PSoC4/I2CVuggesystem_EZI2C_INT.c ****             if(0u != (I2CVuggesystem_GetInterruptCause() & I2CVuggesystem_INTR_CAUSE_TX))
 621              		.loc 1 513 0
 622 03c6 1C4B     		ldr	r3, .L42+20
 623 03c8 1A68     		ldr	r2, [r3]
ARM GAS  C:\Users\Jeppe\AppData\Local\Temp\ccdvuPvF.s 			page 21


 624 03ca 0423     		mov	r3, #4
 625 03cc 1340     		and	r3, r2
 626 03ce 21D0     		beq	.L7
 627              	.L38:
 514:.\Generated_Source\PSoC4/I2CVuggesystem_EZI2C_INT.c ****             {
 515:.\Generated_Source\PSoC4/I2CVuggesystem_EZI2C_INT.c ****                 /* Put data into TX FIFO until there is a room */
 516:.\Generated_Source\PSoC4/I2CVuggesystem_EZI2C_INT.c ****                 do
 517:.\Generated_Source\PSoC4/I2CVuggesystem_EZI2C_INT.c ****                 {
 518:.\Generated_Source\PSoC4/I2CVuggesystem_EZI2C_INT.c ****                     /* Check transmit buffer range: locBufSize calculates after address reception *
 519:.\Generated_Source\PSoC4/I2CVuggesystem_EZI2C_INT.c ****                     if(0u != locBufSize)
 628              		.loc 1 519 0
 629 03d0 1A4B     		ldr	r3, .L42+24
 630 03d2 1B88     		ldrh	r3, [r3]
 631 03d4 002B     		cmp	r3, #0
 632 03d6 11D0     		beq	.L36
 520:.\Generated_Source\PSoC4/I2CVuggesystem_EZI2C_INT.c ****                     {
 521:.\Generated_Source\PSoC4/I2CVuggesystem_EZI2C_INT.c ****                         I2CVuggesystem_TX_FIFO_WR_REG = (uint32) I2CVuggesystem_dataBuffer1[locInde
 633              		.loc 1 521 0
 634 03d8 194B     		ldr	r3, .L42+28
 635 03da 1A4A     		ldr	r2, .L42+32
 636 03dc 1168     		ldr	r1, [r2]
 637 03de FA69     		ldr	r2, [r7, #28]
 638 03e0 8A18     		add	r2, r1, r2
 639 03e2 1278     		ldrb	r2, [r2]
 640 03e4 D2B2     		uxtb	r2, r2
 641 03e6 1A60     		str	r2, [r3]
 522:.\Generated_Source\PSoC4/I2CVuggesystem_EZI2C_INT.c ****                         locIndex++;
 642              		.loc 1 522 0
 643 03e8 FB69     		ldr	r3, [r7, #28]
 644 03ea 0133     		add	r3, r3, #1
 645 03ec FB61     		str	r3, [r7, #28]
 523:.\Generated_Source\PSoC4/I2CVuggesystem_EZI2C_INT.c ****                         locBufSize--;
 646              		.loc 1 523 0
 647 03ee 134B     		ldr	r3, .L42+24
 648 03f0 1B88     		ldrh	r3, [r3]
 649 03f2 013B     		sub	r3, r3, #1
 650 03f4 9AB2     		uxth	r2, r3
 651 03f6 114B     		ldr	r3, .L42+24
 652 03f8 1A80     		strh	r2, [r3]
 653 03fa 02E0     		b	.L37
 654              	.L36:
 524:.\Generated_Source\PSoC4/I2CVuggesystem_EZI2C_INT.c ****                     }
 525:.\Generated_Source\PSoC4/I2CVuggesystem_EZI2C_INT.c ****                     else
 526:.\Generated_Source\PSoC4/I2CVuggesystem_EZI2C_INT.c ****                     {
 527:.\Generated_Source\PSoC4/I2CVuggesystem_EZI2C_INT.c ****                         I2CVuggesystem_TX_FIFO_WR_REG = I2CVuggesystem_EZI2C_OVFL_RETURN;
 655              		.loc 1 527 0
 656 03fc 104B     		ldr	r3, .L42+28
 657 03fe FF22     		mov	r2, #255
 658 0400 1A60     		str	r2, [r3]
 659              	.L37:
 528:.\Generated_Source\PSoC4/I2CVuggesystem_EZI2C_INT.c ****                     }
 529:.\Generated_Source\PSoC4/I2CVuggesystem_EZI2C_INT.c ****                 }
 530:.\Generated_Source\PSoC4/I2CVuggesystem_EZI2C_INT.c ****                 while(I2CVuggesystem_EZI2C_FIFO_SIZE != I2CVuggesystem_GET_TX_FIFO_ENTRIES);
 660              		.loc 1 530 0
 661 0402 114B     		ldr	r3, .L42+36
 662 0404 1A68     		ldr	r2, [r3]
 663 0406 0F23     		mov	r3, #15
ARM GAS  C:\Users\Jeppe\AppData\Local\Temp\ccdvuPvF.s 			page 22


 664 0408 1340     		and	r3, r2
 665 040a 082B     		cmp	r3, #8
 666 040c E0D1     		bne	.L38
 531:.\Generated_Source\PSoC4/I2CVuggesystem_EZI2C_INT.c **** 
 532:.\Generated_Source\PSoC4/I2CVuggesystem_EZI2C_INT.c ****                 I2CVuggesystem_ClearTxInterruptSource(I2CVuggesystem_INTR_TX_EMPTY);
 667              		.loc 1 532 0
 668 040e 0F4B     		ldr	r3, .L42+40
 669 0410 1022     		mov	r2, #16
 670 0412 1A60     		str	r2, [r3]
 671              	.L7:
 533:.\Generated_Source\PSoC4/I2CVuggesystem_EZI2C_INT.c ****             }
 534:.\Generated_Source\PSoC4/I2CVuggesystem_EZI2C_INT.c ****         }
 535:.\Generated_Source\PSoC4/I2CVuggesystem_EZI2C_INT.c **** 
 536:.\Generated_Source\PSoC4/I2CVuggesystem_EZI2C_INT.c ****         /* Store local index copy into global variable */
 537:.\Generated_Source\PSoC4/I2CVuggesystem_EZI2C_INT.c ****         I2CVuggesystem_EZI2C_SET_INDEX(activeAddress, locIndex);
 672              		.loc 1 537 0
 673 0414 FB69     		ldr	r3, [r7, #28]
 674 0416 9AB2     		uxth	r2, r3
 675 0418 0D4B     		ldr	r3, .L42+44
 676 041a 1A80     		strh	r2, [r3]
 538:.\Generated_Source\PSoC4/I2CVuggesystem_EZI2C_INT.c ****     }
 677              		.loc 1 538 0
 678 041c BD46     		mov	sp, r7
 679 041e 08B0     		add	sp, sp, #32
 680              		@ sp needed
 681 0420 80BD     		pop	{r7, pc}
 682              	.L43:
 683 0422 C046     		.align	2
 684              	.L42:
 685 0424 C80F0640 		.word	1074139080
 686 0428 800E0640 		.word	1074138752
 687 042c 400F0640 		.word	1074138944
 688 0430 FF0F0000 		.word	4095
 689 0434 6C000640 		.word	1074135148
 690 0438 000E0640 		.word	1074138624
 691 043c 00000000 		.word	locBufSize.4742
 692 0440 40020640 		.word	1074135616
 693 0444 00000000 		.word	I2CVuggesystem_dataBuffer1
 694 0448 08020640 		.word	1074135560
 695 044c 800F0640 		.word	1074139008
 696 0450 00000000 		.word	I2CVuggesystem_indexBuf1
 697              		.cfi_endproc
 698              	.LFE0:
 699              		.size	I2CVuggesystem_EZI2C_STRETCH_ISR, .-I2CVuggesystem_EZI2C_STRETCH_ISR
 700              		.bss
 701              		.align	1
 702              	locBufSize.4742:
 703 0000 0000     		.space	2
 704              		.text
 705              	.Letext0:
 706              		.file 2 ".\\Generated_Source\\PSoC4/cytypes.h"
 707              		.file 3 ".\\Generated_Source\\PSoC4\\I2CVuggesystem_PVT.h"
 708              		.file 4 ".\\Generated_Source\\PSoC4\\I2CVuggesystem_EZI2C_PVT.h"
 709              		.section	.debug_info,"",%progbits
 710              	.Ldebug_info0:
 711 0000 B5010000 		.4byte	0x1b5
 712 0004 0400     		.2byte	0x4
ARM GAS  C:\Users\Jeppe\AppData\Local\Temp\ccdvuPvF.s 			page 23


 713 0006 00000000 		.4byte	.Ldebug_abbrev0
 714 000a 04       		.byte	0x4
 715 000b 01       		.uleb128 0x1
 716 000c D0000000 		.4byte	.LASF34
 717 0010 01       		.byte	0x1
 718 0011 21000000 		.4byte	.LASF35
 719 0015 C3020000 		.4byte	.LASF36
 720 0019 00000000 		.4byte	.Ldebug_ranges0+0
 721 001d 00000000 		.4byte	0
 722 0021 00000000 		.4byte	.Ldebug_line0
 723 0025 02       		.uleb128 0x2
 724 0026 01       		.byte	0x1
 725 0027 06       		.byte	0x6
 726 0028 AF020000 		.4byte	.LASF0
 727 002c 02       		.uleb128 0x2
 728 002d 01       		.byte	0x1
 729 002e 08       		.byte	0x8
 730 002f 76010000 		.4byte	.LASF1
 731 0033 02       		.uleb128 0x2
 732 0034 02       		.byte	0x2
 733 0035 05       		.byte	0x5
 734 0036 76020000 		.4byte	.LASF2
 735 003a 02       		.uleb128 0x2
 736 003b 02       		.byte	0x2
 737 003c 07       		.byte	0x7
 738 003d 6D000000 		.4byte	.LASF3
 739 0041 02       		.uleb128 0x2
 740 0042 04       		.byte	0x4
 741 0043 05       		.byte	0x5
 742 0044 A6020000 		.4byte	.LASF4
 743 0048 02       		.uleb128 0x2
 744 0049 04       		.byte	0x4
 745 004a 07       		.byte	0x7
 746 004b 8E010000 		.4byte	.LASF5
 747 004f 02       		.uleb128 0x2
 748 0050 08       		.byte	0x8
 749 0051 05       		.byte	0x5
 750 0052 1A020000 		.4byte	.LASF6
 751 0056 02       		.uleb128 0x2
 752 0057 08       		.byte	0x8
 753 0058 07       		.byte	0x7
 754 0059 ED010000 		.4byte	.LASF7
 755 005d 03       		.uleb128 0x3
 756 005e 04       		.byte	0x4
 757 005f 05       		.byte	0x5
 758 0060 696E7400 		.ascii	"int\000"
 759 0064 02       		.uleb128 0x2
 760 0065 04       		.byte	0x4
 761 0066 07       		.byte	0x7
 762 0067 BB010000 		.4byte	.LASF8
 763 006b 04       		.uleb128 0x4
 764 006c A0010000 		.4byte	.LASF9
 765 0070 02       		.byte	0x2
 766 0071 A1       		.byte	0xa1
 767 0072 2C000000 		.4byte	0x2c
 768 0076 04       		.uleb128 0x4
 769 0077 AD010000 		.4byte	.LASF10
ARM GAS  C:\Users\Jeppe\AppData\Local\Temp\ccdvuPvF.s 			page 24


 770 007b 02       		.byte	0x2
 771 007c A2       		.byte	0xa2
 772 007d 3A000000 		.4byte	0x3a
 773 0081 04       		.uleb128 0x4
 774 0082 B4010000 		.4byte	.LASF11
 775 0086 02       		.byte	0x2
 776 0087 A3       		.byte	0xa3
 777 0088 48000000 		.4byte	0x48
 778 008c 02       		.uleb128 0x2
 779 008d 04       		.byte	0x4
 780 008e 04       		.byte	0x4
 781 008f CA000000 		.4byte	.LASF12
 782 0093 02       		.uleb128 0x2
 783 0094 08       		.byte	0x8
 784 0095 04       		.byte	0x4
 785 0096 A6010000 		.4byte	.LASF13
 786 009a 02       		.uleb128 0x2
 787 009b 01       		.byte	0x1
 788 009c 08       		.byte	0x8
 789 009d 28020000 		.4byte	.LASF14
 790 00a1 05       		.uleb128 0x5
 791 00a2 6B000000 		.4byte	0x6b
 792 00a6 06       		.uleb128 0x6
 793 00a7 00000000 		.4byte	.LASF15
 794 00ab 02       		.byte	0x2
 795 00ac 4D01     		.2byte	0x14d
 796 00ae B2000000 		.4byte	0xb2
 797 00b2 05       		.uleb128 0x5
 798 00b3 81000000 		.4byte	0x81
 799 00b7 06       		.uleb128 0x6
 800 00b8 04020000 		.4byte	.LASF16
 801 00bc 02       		.byte	0x2
 802 00bd 5D01     		.2byte	0x15d
 803 00bf C3000000 		.4byte	0xc3
 804 00c3 07       		.uleb128 0x7
 805 00c4 04       		.byte	0x4
 806 00c5 C9000000 		.4byte	0xc9
 807 00c9 08       		.uleb128 0x8
 808 00ca 02       		.uleb128 0x2
 809 00cb 04       		.byte	0x4
 810 00cc 07       		.byte	0x7
 811 00cd 11020000 		.4byte	.LASF17
 812 00d1 09       		.uleb128 0x9
 813 00d2 3A020000 		.4byte	.LASF37
 814 00d6 01       		.byte	0x1
 815 00d7 25       		.byte	0x25
 816 00d8 00000000 		.4byte	.LFB0
 817 00dc 54040000 		.4byte	.LFE0-.LFB0
 818 00e0 01       		.uleb128 0x1
 819 00e1 9C       		.byte	0x9c
 820 00e2 5A010000 		.4byte	0x15a
 821 00e6 0A       		.uleb128 0xa
 822 00e7 C8010000 		.4byte	.LASF18
 823 00eb 01       		.byte	0x1
 824 00ec 27       		.byte	0x27
 825 00ed 76000000 		.4byte	0x76
 826 00f1 05       		.uleb128 0x5
ARM GAS  C:\Users\Jeppe\AppData\Local\Temp\ccdvuPvF.s 			page 25


 827 00f2 03       		.byte	0x3
 828 00f3 00000000 		.4byte	locBufSize.4742
 829 00f7 0A       		.uleb128 0xa
 830 00f8 6D010000 		.4byte	.LASF19
 831 00fc 01       		.byte	0x1
 832 00fd 28       		.byte	0x28
 833 00fe 81000000 		.4byte	0x81
 834 0102 02       		.uleb128 0x2
 835 0103 91       		.byte	0x91
 836 0104 74       		.sleb128 -12
 837 0105 0A       		.uleb128 0xa
 838 0106 84010000 		.4byte	.LASF20
 839 010a 01       		.byte	0x1
 840 010b 29       		.byte	0x29
 841 010c 81000000 		.4byte	0x81
 842 0110 02       		.uleb128 0x2
 843 0111 91       		.byte	0x91
 844 0112 70       		.sleb128 -16
 845 0113 0A       		.uleb128 0xa
 846 0114 80000000 		.4byte	.LASF21
 847 0118 01       		.byte	0x1
 848 0119 2B       		.byte	0x2b
 849 011a 81000000 		.4byte	0x81
 850 011e 02       		.uleb128 0x2
 851 011f 91       		.byte	0x91
 852 0120 6C       		.sleb128 -20
 853 0121 0A       		.uleb128 0xa
 854 0122 C0000000 		.4byte	.LASF22
 855 0126 01       		.byte	0x1
 856 0127 2C       		.byte	0x2c
 857 0128 81000000 		.4byte	0x81
 858 012c 02       		.uleb128 0x2
 859 012d 91       		.byte	0x91
 860 012e 68       		.sleb128 -24
 861 012f 0A       		.uleb128 0xa
 862 0130 BB020000 		.4byte	.LASF23
 863 0134 01       		.byte	0x1
 864 0135 2D       		.byte	0x2d
 865 0136 81000000 		.4byte	0x81
 866 013a 02       		.uleb128 0x2
 867 013b 91       		.byte	0x91
 868 013c 5C       		.sleb128 -36
 869 013d 0A       		.uleb128 0xa
 870 013e 99020000 		.4byte	.LASF24
 871 0142 01       		.byte	0x1
 872 0143 2F       		.byte	0x2f
 873 0144 81000000 		.4byte	0x81
 874 0148 02       		.uleb128 0x2
 875 0149 91       		.byte	0x91
 876 014a 60       		.sleb128 -32
 877 014b 0A       		.uleb128 0xa
 878 014c 2D020000 		.4byte	.LASF25
 879 0150 01       		.byte	0x1
 880 0151 30       		.byte	0x30
 881 0152 81000000 		.4byte	0x81
 882 0156 02       		.uleb128 0x2
 883 0157 91       		.byte	0x91
ARM GAS  C:\Users\Jeppe\AppData\Local\Temp\ccdvuPvF.s 			page 26


 884 0158 64       		.sleb128 -28
 885 0159 00       		.byte	0
 886 015a 0B       		.uleb128 0xb
 887 015b 4C010000 		.4byte	.LASF26
 888 015f 03       		.byte	0x3
 889 0160 39       		.byte	0x39
 890 0161 B7000000 		.4byte	0xb7
 891 0165 0B       		.uleb128 0xb
 892 0166 80020000 		.4byte	.LASF27
 893 016a 04       		.byte	0x4
 894 016b 1D       		.byte	0x1d
 895 016c A1000000 		.4byte	0xa1
 896 0170 0B       		.uleb128 0xb
 897 0171 55000000 		.4byte	.LASF28
 898 0175 04       		.byte	0x4
 899 0176 1E       		.byte	0x1e
 900 0177 6B000000 		.4byte	0x6b
 901 017b 0B       		.uleb128 0xb
 902 017c A5000000 		.4byte	.LASF29
 903 0180 04       		.byte	0x4
 904 0181 21       		.byte	0x21
 905 0182 86010000 		.4byte	0x186
 906 0186 07       		.uleb128 0x7
 907 0187 04       		.byte	0x4
 908 0188 A1000000 		.4byte	0xa1
 909 018c 0B       		.uleb128 0xb
 910 018d 5B020000 		.4byte	.LASF30
 911 0191 04       		.byte	0x4
 912 0192 22       		.byte	0x22
 913 0193 76000000 		.4byte	0x76
 914 0197 0B       		.uleb128 0xb
 915 0198 06000000 		.4byte	.LASF31
 916 019c 04       		.byte	0x4
 917 019d 23       		.byte	0x23
 918 019e 76000000 		.4byte	0x76
 919 01a2 0B       		.uleb128 0xb
 920 01a3 D3010000 		.4byte	.LASF32
 921 01a7 04       		.byte	0x4
 922 01a8 24       		.byte	0x24
 923 01a9 6B000000 		.4byte	0x6b
 924 01ad 0B       		.uleb128 0xb
 925 01ae 8C000000 		.4byte	.LASF33
 926 01b2 04       		.byte	0x4
 927 01b3 25       		.byte	0x25
 928 01b4 76000000 		.4byte	0x76
 929 01b8 00       		.byte	0
 930              		.section	.debug_abbrev,"",%progbits
 931              	.Ldebug_abbrev0:
 932 0000 01       		.uleb128 0x1
 933 0001 11       		.uleb128 0x11
 934 0002 01       		.byte	0x1
 935 0003 25       		.uleb128 0x25
 936 0004 0E       		.uleb128 0xe
 937 0005 13       		.uleb128 0x13
 938 0006 0B       		.uleb128 0xb
 939 0007 03       		.uleb128 0x3
 940 0008 0E       		.uleb128 0xe
ARM GAS  C:\Users\Jeppe\AppData\Local\Temp\ccdvuPvF.s 			page 27


 941 0009 1B       		.uleb128 0x1b
 942 000a 0E       		.uleb128 0xe
 943 000b 55       		.uleb128 0x55
 944 000c 17       		.uleb128 0x17
 945 000d 11       		.uleb128 0x11
 946 000e 01       		.uleb128 0x1
 947 000f 10       		.uleb128 0x10
 948 0010 17       		.uleb128 0x17
 949 0011 00       		.byte	0
 950 0012 00       		.byte	0
 951 0013 02       		.uleb128 0x2
 952 0014 24       		.uleb128 0x24
 953 0015 00       		.byte	0
 954 0016 0B       		.uleb128 0xb
 955 0017 0B       		.uleb128 0xb
 956 0018 3E       		.uleb128 0x3e
 957 0019 0B       		.uleb128 0xb
 958 001a 03       		.uleb128 0x3
 959 001b 0E       		.uleb128 0xe
 960 001c 00       		.byte	0
 961 001d 00       		.byte	0
 962 001e 03       		.uleb128 0x3
 963 001f 24       		.uleb128 0x24
 964 0020 00       		.byte	0
 965 0021 0B       		.uleb128 0xb
 966 0022 0B       		.uleb128 0xb
 967 0023 3E       		.uleb128 0x3e
 968 0024 0B       		.uleb128 0xb
 969 0025 03       		.uleb128 0x3
 970 0026 08       		.uleb128 0x8
 971 0027 00       		.byte	0
 972 0028 00       		.byte	0
 973 0029 04       		.uleb128 0x4
 974 002a 16       		.uleb128 0x16
 975 002b 00       		.byte	0
 976 002c 03       		.uleb128 0x3
 977 002d 0E       		.uleb128 0xe
 978 002e 3A       		.uleb128 0x3a
 979 002f 0B       		.uleb128 0xb
 980 0030 3B       		.uleb128 0x3b
 981 0031 0B       		.uleb128 0xb
 982 0032 49       		.uleb128 0x49
 983 0033 13       		.uleb128 0x13
 984 0034 00       		.byte	0
 985 0035 00       		.byte	0
 986 0036 05       		.uleb128 0x5
 987 0037 35       		.uleb128 0x35
 988 0038 00       		.byte	0
 989 0039 49       		.uleb128 0x49
 990 003a 13       		.uleb128 0x13
 991 003b 00       		.byte	0
 992 003c 00       		.byte	0
 993 003d 06       		.uleb128 0x6
 994 003e 16       		.uleb128 0x16
 995 003f 00       		.byte	0
 996 0040 03       		.uleb128 0x3
 997 0041 0E       		.uleb128 0xe
ARM GAS  C:\Users\Jeppe\AppData\Local\Temp\ccdvuPvF.s 			page 28


 998 0042 3A       		.uleb128 0x3a
 999 0043 0B       		.uleb128 0xb
 1000 0044 3B       		.uleb128 0x3b
 1001 0045 05       		.uleb128 0x5
 1002 0046 49       		.uleb128 0x49
 1003 0047 13       		.uleb128 0x13
 1004 0048 00       		.byte	0
 1005 0049 00       		.byte	0
 1006 004a 07       		.uleb128 0x7
 1007 004b 0F       		.uleb128 0xf
 1008 004c 00       		.byte	0
 1009 004d 0B       		.uleb128 0xb
 1010 004e 0B       		.uleb128 0xb
 1011 004f 49       		.uleb128 0x49
 1012 0050 13       		.uleb128 0x13
 1013 0051 00       		.byte	0
 1014 0052 00       		.byte	0
 1015 0053 08       		.uleb128 0x8
 1016 0054 15       		.uleb128 0x15
 1017 0055 00       		.byte	0
 1018 0056 27       		.uleb128 0x27
 1019 0057 19       		.uleb128 0x19
 1020 0058 00       		.byte	0
 1021 0059 00       		.byte	0
 1022 005a 09       		.uleb128 0x9
 1023 005b 2E       		.uleb128 0x2e
 1024 005c 01       		.byte	0x1
 1025 005d 3F       		.uleb128 0x3f
 1026 005e 19       		.uleb128 0x19
 1027 005f 03       		.uleb128 0x3
 1028 0060 0E       		.uleb128 0xe
 1029 0061 3A       		.uleb128 0x3a
 1030 0062 0B       		.uleb128 0xb
 1031 0063 3B       		.uleb128 0x3b
 1032 0064 0B       		.uleb128 0xb
 1033 0065 27       		.uleb128 0x27
 1034 0066 19       		.uleb128 0x19
 1035 0067 11       		.uleb128 0x11
 1036 0068 01       		.uleb128 0x1
 1037 0069 12       		.uleb128 0x12
 1038 006a 06       		.uleb128 0x6
 1039 006b 40       		.uleb128 0x40
 1040 006c 18       		.uleb128 0x18
 1041 006d 9642     		.uleb128 0x2116
 1042 006f 19       		.uleb128 0x19
 1043 0070 01       		.uleb128 0x1
 1044 0071 13       		.uleb128 0x13
 1045 0072 00       		.byte	0
 1046 0073 00       		.byte	0
 1047 0074 0A       		.uleb128 0xa
 1048 0075 34       		.uleb128 0x34
 1049 0076 00       		.byte	0
 1050 0077 03       		.uleb128 0x3
 1051 0078 0E       		.uleb128 0xe
 1052 0079 3A       		.uleb128 0x3a
 1053 007a 0B       		.uleb128 0xb
 1054 007b 3B       		.uleb128 0x3b
ARM GAS  C:\Users\Jeppe\AppData\Local\Temp\ccdvuPvF.s 			page 29


 1055 007c 0B       		.uleb128 0xb
 1056 007d 49       		.uleb128 0x49
 1057 007e 13       		.uleb128 0x13
 1058 007f 02       		.uleb128 0x2
 1059 0080 18       		.uleb128 0x18
 1060 0081 00       		.byte	0
 1061 0082 00       		.byte	0
 1062 0083 0B       		.uleb128 0xb
 1063 0084 34       		.uleb128 0x34
 1064 0085 00       		.byte	0
 1065 0086 03       		.uleb128 0x3
 1066 0087 0E       		.uleb128 0xe
 1067 0088 3A       		.uleb128 0x3a
 1068 0089 0B       		.uleb128 0xb
 1069 008a 3B       		.uleb128 0x3b
 1070 008b 0B       		.uleb128 0xb
 1071 008c 49       		.uleb128 0x49
 1072 008d 13       		.uleb128 0x13
 1073 008e 3F       		.uleb128 0x3f
 1074 008f 19       		.uleb128 0x19
 1075 0090 3C       		.uleb128 0x3c
 1076 0091 19       		.uleb128 0x19
 1077 0092 00       		.byte	0
 1078 0093 00       		.byte	0
 1079 0094 00       		.byte	0
 1080              		.section	.debug_aranges,"",%progbits
 1081 0000 1C000000 		.4byte	0x1c
 1082 0004 0200     		.2byte	0x2
 1083 0006 00000000 		.4byte	.Ldebug_info0
 1084 000a 04       		.byte	0x4
 1085 000b 00       		.byte	0
 1086 000c 0000     		.2byte	0
 1087 000e 0000     		.2byte	0
 1088 0010 00000000 		.4byte	.LFB0
 1089 0014 54040000 		.4byte	.LFE0-.LFB0
 1090 0018 00000000 		.4byte	0
 1091 001c 00000000 		.4byte	0
 1092              		.section	.debug_ranges,"",%progbits
 1093              	.Ldebug_ranges0:
 1094 0000 00000000 		.4byte	.LFB0
 1095 0004 54040000 		.4byte	.LFE0
 1096 0008 00000000 		.4byte	0
 1097 000c 00000000 		.4byte	0
 1098              		.section	.debug_line,"",%progbits
 1099              	.Ldebug_line0:
 1100 0000 6B010000 		.section	.debug_str,"MS",%progbits,1
 1100      02008D00 
 1100      00000201 
 1100      FB0E0D00 
 1100      01010101 
 1101              	.LASF15:
 1102 0000 72656733 		.ascii	"reg32\000"
 1102      3200
 1103              	.LASF31:
 1104 0006 49324356 		.ascii	"I2CVuggesystem_protectBuf1\000"
 1104      75676765 
 1104      73797374 
ARM GAS  C:\Users\Jeppe\AppData\Local\Temp\ccdvuPvF.s 			page 30


 1104      656D5F70 
 1104      726F7465 
 1105              	.LASF35:
 1106 0021 2E5C4765 		.ascii	".\\Generated_Source\\PSoC4\\I2CVuggesystem_EZI2C_IN"
 1106      6E657261 
 1106      7465645F 
 1106      536F7572 
 1106      63655C50 
 1107 0051 542E6300 		.ascii	"T.c\000"
 1108              	.LASF28:
 1109 0055 49324356 		.ascii	"I2CVuggesystem_fsmState\000"
 1109      75676765 
 1109      73797374 
 1109      656D5F66 
 1109      736D5374 
 1110              	.LASF3:
 1111 006d 73686F72 		.ascii	"short unsigned int\000"
 1111      7420756E 
 1111      7369676E 
 1111      65642069 
 1111      6E7400
 1112              	.LASF21:
 1113 0080 656E6454 		.ascii	"endTransfer\000"
 1113      72616E73 
 1113      66657200 
 1114              	.LASF33:
 1115 008c 49324356 		.ascii	"I2CVuggesystem_indexBuf1\000"
 1115      75676765 
 1115      73797374 
 1115      656D5F69 
 1115      6E646578 
 1116              	.LASF29:
 1117 00a5 49324356 		.ascii	"I2CVuggesystem_dataBuffer1\000"
 1117      75676765 
 1117      73797374 
 1117      656D5F64 
 1117      61746142 
 1118              	.LASF22:
 1119 00c0 6669666F 		.ascii	"fifoIndex\000"
 1119      496E6465 
 1119      7800
 1120              	.LASF12:
 1121 00ca 666C6F61 		.ascii	"float\000"
 1121      7400
 1122              	.LASF34:
 1123 00d0 474E5520 		.ascii	"GNU C 4.8.4 20140526 (release) [ARM/embedded-4_8-br"
 1123      4320342E 
 1123      382E3420 
 1123      32303134 
 1123      30353236 
 1124 0103 616E6368 		.ascii	"anch revision 211358] -mcpu=cortex-m0 -mthumb -g -O"
 1124      20726576 
 1124      6973696F 
 1124      6E203231 
 1124      31333538 
 1125 0136 30202D66 		.ascii	"0 -ffunction-sections\000"
 1125      66756E63 
ARM GAS  C:\Users\Jeppe\AppData\Local\Temp\ccdvuPvF.s 			page 31


 1125      74696F6E 
 1125      2D736563 
 1125      74696F6E 
 1126              	.LASF26:
 1127 014c 49324356 		.ascii	"I2CVuggesystem_customIntrHandler\000"
 1127      75676765 
 1127      73797374 
 1127      656D5F63 
 1127      7573746F 
 1128              	.LASF19:
 1129 016d 6C6F6349 		.ascii	"locIndex\000"
 1129      6E646578 
 1129      00
 1130              	.LASF1:
 1131 0176 756E7369 		.ascii	"unsigned char\000"
 1131      676E6564 
 1131      20636861 
 1131      7200
 1132              	.LASF20:
 1133 0184 6C6F6353 		.ascii	"locStatus\000"
 1133      74617475 
 1133      7300
 1134              	.LASF5:
 1135 018e 6C6F6E67 		.ascii	"long unsigned int\000"
 1135      20756E73 
 1135      69676E65 
 1135      6420696E 
 1135      7400
 1136              	.LASF9:
 1137 01a0 75696E74 		.ascii	"uint8\000"
 1137      3800
 1138              	.LASF13:
 1139 01a6 646F7562 		.ascii	"double\000"
 1139      6C6500
 1140              	.LASF10:
 1141 01ad 75696E74 		.ascii	"uint16\000"
 1141      313600
 1142              	.LASF11:
 1143 01b4 75696E74 		.ascii	"uint32\000"
 1143      333200
 1144              	.LASF8:
 1145 01bb 756E7369 		.ascii	"unsigned int\000"
 1145      676E6564 
 1145      20696E74 
 1145      00
 1146              	.LASF18:
 1147 01c8 6C6F6342 		.ascii	"locBufSize\000"
 1147      75665369 
 1147      7A6500
 1148              	.LASF32:
 1149 01d3 49324356 		.ascii	"I2CVuggesystem_offsetBuf1\000"
 1149      75676765 
 1149      73797374 
 1149      656D5F6F 
 1149      66667365 
 1150              	.LASF7:
 1151 01ed 6C6F6E67 		.ascii	"long long unsigned int\000"
ARM GAS  C:\Users\Jeppe\AppData\Local\Temp\ccdvuPvF.s 			page 32


 1151      206C6F6E 
 1151      6720756E 
 1151      7369676E 
 1151      65642069 
 1152              	.LASF16:
 1153 0204 63796973 		.ascii	"cyisraddress\000"
 1153      72616464 
 1153      72657373 
 1153      00
 1154              	.LASF17:
 1155 0211 73697A65 		.ascii	"sizetype\000"
 1155      74797065 
 1155      00
 1156              	.LASF6:
 1157 021a 6C6F6E67 		.ascii	"long long int\000"
 1157      206C6F6E 
 1157      6720696E 
 1157      7400
 1158              	.LASF14:
 1159 0228 63686172 		.ascii	"char\000"
 1159      00
 1160              	.LASF25:
 1161 022d 6C6F6349 		.ascii	"locIntrSlave\000"
 1161      6E747253 
 1161      6C617665 
 1161      00
 1162              	.LASF37:
 1163 023a 49324356 		.ascii	"I2CVuggesystem_EZI2C_STRETCH_ISR\000"
 1163      75676765 
 1163      73797374 
 1163      656D5F45 
 1163      5A493243 
 1164              	.LASF30:
 1165 025b 49324356 		.ascii	"I2CVuggesystem_bufSizeBuf1\000"
 1165      75676765 
 1165      73797374 
 1165      656D5F62 
 1165      75665369 
 1166              	.LASF2:
 1167 0276 73686F72 		.ascii	"short int\000"
 1167      7420696E 
 1167      7400
 1168              	.LASF27:
 1169 0280 49324356 		.ascii	"I2CVuggesystem_curStatus\000"
 1169      75676765 
 1169      73797374 
 1169      656D5F63 
 1169      75725374 
 1170              	.LASF24:
 1171 0299 6C6F6349 		.ascii	"locIntrCause\000"
 1171      6E747243 
 1171      61757365 
 1171      00
 1172              	.LASF4:
 1173 02a6 6C6F6E67 		.ascii	"long int\000"
 1173      20696E74 
 1173      00
ARM GAS  C:\Users\Jeppe\AppData\Local\Temp\ccdvuPvF.s 			page 33


 1174              	.LASF0:
 1175 02af 7369676E 		.ascii	"signed char\000"
 1175      65642063 
 1175      68617200 
 1176              	.LASF23:
 1177 02bb 6C6F6342 		.ascii	"locByte\000"
 1177      79746500 
 1178              	.LASF36:
 1179 02c3 433A5C55 		.ascii	"C:\\Users\\Jeppe\\Documents\\Engineer\\4_Semester\\"
 1179      73657273 
 1179      5C4A6570 
 1179      70655C44 
 1179      6F63756D 
 1180 02f0 45345052 		.ascii	"E4PRJ4\\Implementering\\Vuggesystem\\vuggeControl\\"
 1180      4A345C49 
 1180      6D706C65 
 1180      6D656E74 
 1180      6572696E 
 1181 031f 76756767 		.ascii	"vuggeControl.cydsn\000"
 1181      65436F6E 
 1181      74726F6C 
 1181      2E637964 
 1181      736E00
 1182              		.ident	"GCC: (GNU Tools for ARM Embedded Processors) 4.8.4 20140526 (release) [ARM/embedded-4_8-br
