ARM GAS  C:\Users\Jeppe\AppData\Local\Temp\cc3r0jtd.s 			page 1


   1              		.cpu cortex-m0
   2              		.fpu softvfp
   3              		.eabi_attribute 20, 1
   4              		.eabi_attribute 21, 1
   5              		.eabi_attribute 23, 3
   6              		.eabi_attribute 24, 1
   7              		.eabi_attribute 25, 1
   8              		.eabi_attribute 26, 1
   9              		.eabi_attribute 30, 6
  10              		.eabi_attribute 34, 0
  11              		.eabi_attribute 18, 4
  12              		.code	16
  13              		.file	"regulering.c"
  14              		.text
  15              	.Ltext0:
  16              		.cfi_sections	.debug_frame
  17              		.comm	fixedPointReg_,4,4
  18              		.comm	reguleringsStatus_,4,4
  19              		.comm	going_up_,1,1
  20              		.comm	pwmSineAngle_,4,4
  21              		.comm	prevFrek,1,1
  22              		.comm	prevUdsving,1,1
  23              		.comm	angleInc,4,4
  24              		.comm	sineA,4,4
  25              		.section	.text.initRegulering,"ax",%progbits
  26              		.align	2
  27              		.global	initRegulering
  28              		.code	16
  29              		.thumb_func
  30              		.type	initRegulering, %function
  31              	initRegulering:
  32              	.LFB33:
  33              		.file 1 ".\\regulering.c"
   1:.\regulering.c **** /* ========================================
   2:.\regulering.c ****  *
   3:.\regulering.c ****  * Copyright Baby Watch, 2015
   4:.\regulering.c ****  * All Rights Reserved
   5:.\regulering.c ****  * UNPUBLISHED, LICENSED SOFTWARE.
   6:.\regulering.c ****  *
   7:.\regulering.c ****  * CONFIDENTIAL AND PROPRIETARY INFORMATION
   8:.\regulering.c ****  * WHICH IS THE PROPERTY OF Baby Watch.
   9:.\regulering.c ****  *
  10:.\regulering.c ****  * ========================================
  11:.\regulering.c **** */
  12:.\regulering.c **** //========================================================================
  13:.\regulering.c **** // FILENAME : regulering.c
  14:.\regulering.c **** // CREATED : 03-03-2015
  15:.\regulering.c **** // AUTHOR  : Jeppe Hofni
  16:.\regulering.c **** // DESCR.  : h file for PSoC4
  17:.\regulering.c **** //
  18:.\regulering.c **** //------------------------------------------------------------------------
  19:.\regulering.c **** //
  20:.\regulering.c **** // REV.  DATE/AUTHOR  CHANGE DESCRIPTION
  21:.\regulering.c **** // 0.1  03-03-2015 - Jeppe - First writeup of regulering.c
  22:.\regulering.c **** // 0.2	30-04-2015 - Jeppe - First writeup of MotorPWM module
  23:.\regulering.c **** //------------------------------------------------------------------------
  24:.\regulering.c **** // KNOWN ISSUES:
ARM GAS  C:\Users\Jeppe\AppData\Local\Temp\cc3r0jtd.s 			page 2


  25:.\regulering.c **** // REV. - ISSUE(S)
  26:.\regulering.c **** // 0.1 - Needs to be sorted proper
  27:.\regulering.c **** // 0.2 - Regulering needs finished implementation
  28:.\regulering.c **** //========================================================================
  29:.\regulering.c **** #include "regulering.h"
  30:.\regulering.c **** #include <fixedMath.h>
  31:.\regulering.c **** #include <stdio.h>
  32:.\regulering.c **** 
  33:.\regulering.c **** /*        --------------        FUNCTION DEFINITIONS       ---------------          */ 
  34:.\regulering.c **** 
  35:.\regulering.c **** /* Function Name: initRegulering
  36:.\regulering.c ****    Summary:
  37:.\regulering.c ****     Initiates regulering
  38:.\regulering.c **** */
  39:.\regulering.c **** void initRegulering()
  40:.\regulering.c **** {
  34              		.loc 1 40 0
  35              		.cfi_startproc
  36 0000 80B5     		push	{r7, lr}
  37              		.cfi_def_cfa_offset 8
  38              		.cfi_offset 7, -8
  39              		.cfi_offset 14, -4
  40 0002 00AF     		add	r7, sp, #0
  41              		.cfi_def_cfa_register 7
  41:.\regulering.c ****     prevFrek = 0;
  42              		.loc 1 41 0
  43 0004 0C4B     		ldr	r3, .L2
  44 0006 0022     		mov	r2, #0
  45 0008 1A70     		strb	r2, [r3]
  42:.\regulering.c ****     prevUdsving = 0;
  46              		.loc 1 42 0
  47 000a 0C4B     		ldr	r3, .L2+4
  48 000c 0022     		mov	r2, #0
  49 000e 1A70     		strb	r2, [r3]
  43:.\regulering.c ****     angleInc = 0; // the sine angle increment for each loop iteration with the current frequncy
  50              		.loc 1 43 0
  51 0010 0B4B     		ldr	r3, .L2+8
  52 0012 0022     		mov	r2, #0
  53 0014 1A60     		str	r2, [r3]
  44:.\regulering.c ****     sineA = 0;
  54              		.loc 1 44 0
  55 0016 0B4B     		ldr	r3, .L2+12
  56 0018 0022     		mov	r2, #0
  57 001a 1A60     		str	r2, [r3]
  45:.\regulering.c ****     reguleringsStatus_ = 0;
  58              		.loc 1 45 0
  59 001c 0A4B     		ldr	r3, .L2+16
  60 001e 0022     		mov	r2, #0
  61 0020 1A60     		str	r2, [r3]
  46:.\regulering.c ****     going_up_ = TRUE;
  62              		.loc 1 46 0
  63 0022 0A4B     		ldr	r3, .L2+20
  64 0024 0122     		mov	r2, #1
  65 0026 1A70     		strb	r2, [r3]
  47:.\regulering.c ****     pwmSineAngle_ = 0;
  66              		.loc 1 47 0
  67 0028 094B     		ldr	r3, .L2+24
ARM GAS  C:\Users\Jeppe\AppData\Local\Temp\cc3r0jtd.s 			page 3


  68 002a 0022     		mov	r2, #0
  69 002c 1A60     		str	r2, [r3]
  48:.\regulering.c ****     PWM_Start();
  70              		.loc 1 48 0
  71 002e FFF7FEFF 		bl	PWM_Start
  49:.\regulering.c **** }
  72              		.loc 1 49 0
  73 0032 BD46     		mov	sp, r7
  74              		@ sp needed
  75 0034 80BD     		pop	{r7, pc}
  76              	.L3:
  77 0036 C046     		.align	2
  78              	.L2:
  79 0038 00000000 		.word	prevFrek
  80 003c 00000000 		.word	prevUdsving
  81 0040 00000000 		.word	angleInc
  82 0044 00000000 		.word	sineA
  83 0048 00000000 		.word	reguleringsStatus_
  84 004c 00000000 		.word	going_up_
  85 0050 00000000 		.word	pwmSineAngle_
  86              		.cfi_endproc
  87              	.LFE33:
  88              		.size	initRegulering, .-initRegulering
  89              		.section	.text.updateRegParameter,"ax",%progbits
  90              		.align	2
  91              		.global	updateRegParameter
  92              		.code	16
  93              		.thumb_func
  94              		.type	updateRegParameter, %function
  95              	updateRegParameter:
  96              	.LFB34:
  50:.\regulering.c **** 
  51:.\regulering.c **** /* Function regParameter
  52:.\regulering.c ****    Summary:
  53:.\regulering.c ****     Receives the rocking parametres for the i2C reg and validates them
  54:.\regulering.c **** */
  55:.\regulering.c **** void updateRegParameter(uint8 vuggefrekvens, uint8 vuggeudsving)
  56:.\regulering.c **** {
  97              		.loc 1 56 0
  98              		.cfi_startproc
  99 0000 80B5     		push	{r7, lr}
 100              		.cfi_def_cfa_offset 8
 101              		.cfi_offset 7, -8
 102              		.cfi_offset 14, -4
 103 0002 84B0     		sub	sp, sp, #16
 104              		.cfi_def_cfa_offset 24
 105 0004 00AF     		add	r7, sp, #0
 106              		.cfi_def_cfa_register 7
 107 0006 0A1C     		mov	r2, r1
 108 0008 FB1D     		add	r3, r7, #7
 109 000a 011C     		add	r1, r0, #0
 110 000c 1970     		strb	r1, [r3]
 111 000e BB1D     		add	r3, r7, #6
 112 0010 1A70     		strb	r2, [r3]
  57:.\regulering.c ****     if((vuggefrekvens == prevFrek) && (vuggeudsving == prevUdsving)) return;
 113              		.loc 1 57 0
 114 0012 334B     		ldr	r3, .L12
ARM GAS  C:\Users\Jeppe\AppData\Local\Temp\cc3r0jtd.s 			page 4


 115 0014 1B78     		ldrb	r3, [r3]
 116 0016 FA1D     		add	r2, r7, #7
 117 0018 1278     		ldrb	r2, [r2]
 118 001a 9A42     		cmp	r2, r3
 119 001c 06D1     		bne	.L5
 120              		.loc 1 57 0 is_stmt 0 discriminator 1
 121 001e 314B     		ldr	r3, .L12+4
 122 0020 1B78     		ldrb	r3, [r3]
 123 0022 BA1D     		add	r2, r7, #6
 124 0024 1278     		ldrb	r2, [r2]
 125 0026 9A42     		cmp	r2, r3
 126 0028 00D1     		bne	.L5
 127 002a 56E0     		b	.L4
 128              	.L5:
  58:.\regulering.c ****     
  59:.\regulering.c ****     BOOL valid = FALSE;
 129              		.loc 1 59 0 is_stmt 1
 130 002c 3B1C     		mov	r3, r7
 131 002e 0F33     		add	r3, r3, #15
 132 0030 0022     		mov	r2, #0
 133 0032 1A70     		strb	r2, [r3]
  60:.\regulering.c ****     if((vuggefrekvens == 0) && (vuggeudsving == 0))// Vugge-niveau 0: 0 Hz (0) 0 grader (0)
 134              		.loc 1 60 0
 135 0034 FB1D     		add	r3, r7, #7
 136 0036 1B78     		ldrb	r3, [r3]
 137 0038 002B     		cmp	r3, #0
 138 003a 08D1     		bne	.L7
 139              		.loc 1 60 0 is_stmt 0 discriminator 1
 140 003c BB1D     		add	r3, r7, #6
 141 003e 1B78     		ldrb	r3, [r3]
 142 0040 002B     		cmp	r3, #0
 143 0042 04D1     		bne	.L7
  61:.\regulering.c ****     {
  62:.\regulering.c ****         valid = TRUE;
 144              		.loc 1 62 0 is_stmt 1
 145 0044 3B1C     		mov	r3, r7
 146 0046 0F33     		add	r3, r3, #15
 147 0048 0122     		mov	r2, #1
 148 004a 1A70     		strb	r2, [r3]
 149 004c 32E0     		b	.L8
 150              	.L7:
  63:.\regulering.c ****     }
  64:.\regulering.c ****     else if((vuggefrekvens == A_FREQ) && (vuggeudsving == A_ANGLE))// Vugge-niveau 1: 0,5 Hz (50) 1
 151              		.loc 1 64 0
 152 004e FB1D     		add	r3, r7, #7
 153 0050 1B78     		ldrb	r3, [r3]
 154 0052 322B     		cmp	r3, #50
 155 0054 08D1     		bne	.L9
 156              		.loc 1 64 0 is_stmt 0 discriminator 1
 157 0056 BB1D     		add	r3, r7, #6
 158 0058 1B78     		ldrb	r3, [r3]
 159 005a C82B     		cmp	r3, #200
 160 005c 04D1     		bne	.L9
  65:.\regulering.c ****     {
  66:.\regulering.c ****         valid = TRUE;
 161              		.loc 1 66 0 is_stmt 1
 162 005e 3B1C     		mov	r3, r7
ARM GAS  C:\Users\Jeppe\AppData\Local\Temp\cc3r0jtd.s 			page 5


 163 0060 0F33     		add	r3, r3, #15
 164 0062 0122     		mov	r2, #1
 165 0064 1A70     		strb	r2, [r3]
 166 0066 25E0     		b	.L8
 167              	.L9:
  67:.\regulering.c ****     }
  68:.\regulering.c ****     else if((vuggefrekvens == B_FREQ) && (vuggeudsving == B_ANGLE))// Vugge-niveau 2: 1 Hz (100) 6 
 168              		.loc 1 68 0
 169 0068 FB1D     		add	r3, r7, #7
 170 006a 1B78     		ldrb	r3, [r3]
 171 006c 642B     		cmp	r3, #100
 172 006e 08D1     		bne	.L10
 173              		.loc 1 68 0 is_stmt 0 discriminator 1
 174 0070 BB1D     		add	r3, r7, #6
 175 0072 1B78     		ldrb	r3, [r3]
 176 0074 782B     		cmp	r3, #120
 177 0076 04D1     		bne	.L10
  69:.\regulering.c ****     {
  70:.\regulering.c ****         valid = TRUE;
 178              		.loc 1 70 0 is_stmt 1
 179 0078 3B1C     		mov	r3, r7
 180 007a 0F33     		add	r3, r3, #15
 181 007c 0122     		mov	r2, #1
 182 007e 1A70     		strb	r2, [r3]
 183 0080 18E0     		b	.L8
 184              	.L10:
  71:.\regulering.c ****     }
  72:.\regulering.c ****     else if((vuggefrekvens) == C_FREQ && (vuggeudsving == C_ANGLE))// Vugge-niveau 3: 2 Hz (200) 4 
 185              		.loc 1 72 0
 186 0082 FB1D     		add	r3, r7, #7
 187 0084 1B78     		ldrb	r3, [r3]
 188 0086 C82B     		cmp	r3, #200
 189 0088 08D1     		bne	.L11
 190              		.loc 1 72 0 is_stmt 0 discriminator 1
 191 008a BB1D     		add	r3, r7, #6
 192 008c 1B78     		ldrb	r3, [r3]
 193 008e 502B     		cmp	r3, #80
 194 0090 04D1     		bne	.L11
  73:.\regulering.c ****     {
  74:.\regulering.c ****         valid = TRUE;
 195              		.loc 1 74 0 is_stmt 1
 196 0092 3B1C     		mov	r3, r7
 197 0094 0F33     		add	r3, r3, #15
 198 0096 0122     		mov	r2, #1
 199 0098 1A70     		strb	r2, [r3]
 200 009a 0BE0     		b	.L8
 201              	.L11:
  75:.\regulering.c ****     }
  76:.\regulering.c ****     else if((vuggefrekvens == M_FREQ) && (vuggeudsving == M_ANGLE))// Manuel vugge-niveau : 0,75 Hz
 202              		.loc 1 76 0
 203 009c FB1D     		add	r3, r7, #7
 204 009e 1B78     		ldrb	r3, [r3]
 205 00a0 4B2B     		cmp	r3, #75
 206 00a2 07D1     		bne	.L8
 207              		.loc 1 76 0 is_stmt 0 discriminator 1
 208 00a4 BB1D     		add	r3, r7, #6
 209 00a6 1B78     		ldrb	r3, [r3]
ARM GAS  C:\Users\Jeppe\AppData\Local\Temp\cc3r0jtd.s 			page 6


 210 00a8 A02B     		cmp	r3, #160
 211 00aa 03D1     		bne	.L8
  77:.\regulering.c ****     {
  78:.\regulering.c ****         valid = TRUE;
 212              		.loc 1 78 0 is_stmt 1
 213 00ac 3B1C     		mov	r3, r7
 214 00ae 0F33     		add	r3, r3, #15
 215 00b0 0122     		mov	r2, #1
 216 00b2 1A70     		strb	r2, [r3]
 217              	.L8:
  79:.\regulering.c ****     }
  80:.\regulering.c ****     
  81:.\regulering.c ****     if(valid)
 218              		.loc 1 81 0
 219 00b4 3B1C     		mov	r3, r7
 220 00b6 0F33     		add	r3, r3, #15
 221 00b8 1B78     		ldrb	r3, [r3]
 222 00ba 002B     		cmp	r3, #0
 223 00bc 0DD0     		beq	.L4
  82:.\regulering.c ****     {
  83:.\regulering.c ****         /* peak peak value of desired sine in 16.16 fp is calculated as:                    *
  84:.\regulering.c ****          * vuggeUdsving * 20 * 2^16                                                         *
  85:.\regulering.c ****          * to account for i2c scale, and 16.16 scale respectively                           */
  86:.\regulering.c ****         sineA = vuggeudsving * 1310720;
 224              		.loc 1 86 0
 225 00be BB1D     		add	r3, r7, #6
 226 00c0 1A78     		ldrb	r2, [r3]
 227 00c2 131C     		mov	r3, r2
 228 00c4 9B00     		lsl	r3, r3, #2
 229 00c6 9B18     		add	r3, r3, r2
 230 00c8 9B04     		lsl	r3, r3, #18
 231 00ca 1A1C     		mov	r2, r3
 232 00cc 064B     		ldr	r3, .L12+8
 233 00ce 1A60     		str	r2, [r3]
  87:.\regulering.c ****         
  88:.\regulering.c ****         /* The incement of the angle per loop iteration is given by following formula:  *
  89:.\regulering.c ****          * angleInc = ((f_i2c*100)/loop_freq)*2^16 which becomes 2^15 * f_i2c           *
  90:.\regulering.c ****          * when loop freq = 200. f_i2c is the frequency read from the i2c reg not the   *
  91:.\regulering.c ****          * i2c frequency itself.                                                        */
  92:.\regulering.c ****         angleInc = vuggefrekvens << 15;
 234              		.loc 1 92 0
 235 00d0 FB1D     		add	r3, r7, #7
 236 00d2 1B78     		ldrb	r3, [r3]
 237 00d4 DA03     		lsl	r2, r3, #15
 238 00d6 054B     		ldr	r3, .L12+12
 239 00d8 1A60     		str	r2, [r3]
 240              	.L4:
  93:.\regulering.c ****     }
  94:.\regulering.c **** 
  95:.\regulering.c **** }
 241              		.loc 1 95 0
 242 00da BD46     		mov	sp, r7
 243 00dc 04B0     		add	sp, sp, #16
 244              		@ sp needed
 245 00de 80BD     		pop	{r7, pc}
 246              	.L13:
 247              		.align	2
ARM GAS  C:\Users\Jeppe\AppData\Local\Temp\cc3r0jtd.s 			page 7


 248              	.L12:
 249 00e0 00000000 		.word	prevFrek
 250 00e4 00000000 		.word	prevUdsving
 251 00e8 00000000 		.word	sineA
 252 00ec 00000000 		.word	angleInc
 253              		.cfi_endproc
 254              	.LFE34:
 255              		.size	updateRegParameter, .-updateRegParameter
 256              		.section	.text.beregnRegulering,"ax",%progbits
 257              		.align	2
 258              		.global	beregnRegulering
 259              		.code	16
 260              		.thumb_func
 261              		.type	beregnRegulering, %function
 262              	beregnRegulering:
 263              	.LFB35:
  96:.\regulering.c **** 
  97:.\regulering.c **** /* Function Name: beregnRegulering
  98:.\regulering.c ****    Summary:
  99:.\regulering.c ****     Calculates a proportional regulator
 100:.\regulering.c **** */
 101:.\regulering.c **** fix16_t beregnRegulering(fix16_t currentAngle)
 102:.\regulering.c **** {
 264              		.loc 1 102 0
 265              		.cfi_startproc
 266 0000 90B5     		push	{r4, r7, lr}
 267              		.cfi_def_cfa_offset 12
 268              		.cfi_offset 4, -12
 269              		.cfi_offset 7, -8
 270              		.cfi_offset 14, -4
 271 0002 87B0     		sub	sp, sp, #28
 272              		.cfi_def_cfa_offset 40
 273 0004 00AF     		add	r7, sp, #0
 274              		.cfi_def_cfa_register 7
 275 0006 7860     		str	r0, [r7, #4]
 103:.\regulering.c ****     //update sine time
 104:.\regulering.c ****     if(pwmSineAngle_ >= FIXED_HALF_PI)
 276              		.loc 1 104 0
 277 0008 204B     		ldr	r3, .L20
 278 000a 1A68     		ldr	r2, [r3]
 279 000c 204B     		ldr	r3, .L20+4
 280 000e 9A42     		cmp	r2, r3
 281 0010 03DD     		ble	.L15
 105:.\regulering.c ****     {
 106:.\regulering.c ****         going_up_ = FALSE;
 282              		.loc 1 106 0
 283 0012 204B     		ldr	r3, .L20+8
 284 0014 0022     		mov	r2, #0
 285 0016 1A70     		strb	r2, [r3]
 286 0018 07E0     		b	.L16
 287              	.L15:
 107:.\regulering.c ****     } 
 108:.\regulering.c ****     else if (pwmSineAngle_ <= -FIXED_HALF_PI)
 288              		.loc 1 108 0
 289 001a 1C4B     		ldr	r3, .L20
 290 001c 1A68     		ldr	r2, [r3]
 291 001e 1E4B     		ldr	r3, .L20+12
ARM GAS  C:\Users\Jeppe\AppData\Local\Temp\cc3r0jtd.s 			page 8


 292 0020 9A42     		cmp	r2, r3
 293 0022 02DA     		bge	.L16
 109:.\regulering.c ****     {
 110:.\regulering.c ****         going_up_ = TRUE;
 294              		.loc 1 110 0
 295 0024 1B4B     		ldr	r3, .L20+8
 296 0026 0122     		mov	r2, #1
 297 0028 1A70     		strb	r2, [r3]
 298              	.L16:
 111:.\regulering.c ****     }
 112:.\regulering.c ****     if(going_up_)  pwmSineAngle_ += angleInc;
 299              		.loc 1 112 0
 300 002a 1A4B     		ldr	r3, .L20+8
 301 002c 1B78     		ldrb	r3, [r3]
 302 002e 002B     		cmp	r3, #0
 303 0030 07D0     		beq	.L17
 304              		.loc 1 112 0 is_stmt 0 discriminator 1
 305 0032 164B     		ldr	r3, .L20
 306 0034 1A68     		ldr	r2, [r3]
 307 0036 194B     		ldr	r3, .L20+16
 308 0038 1B68     		ldr	r3, [r3]
 309 003a D218     		add	r2, r2, r3
 310 003c 134B     		ldr	r3, .L20
 311 003e 1A60     		str	r2, [r3]
 312 0040 06E0     		b	.L18
 313              	.L17:
 113:.\regulering.c ****     else          pwmSineAngle_ -= angleInc;
 314              		.loc 1 113 0 is_stmt 1
 315 0042 124B     		ldr	r3, .L20
 316 0044 1A68     		ldr	r2, [r3]
 317 0046 154B     		ldr	r3, .L20+16
 318 0048 1B68     		ldr	r3, [r3]
 319 004a D21A     		sub	r2, r2, r3
 320 004c 0F4B     		ldr	r3, .L20
 321 004e 1A60     		str	r2, [r3]
 322              	.L18:
 114:.\regulering.c ****     
 115:.\regulering.c ****     //calculate desired angle:
 116:.\regulering.c ****     fix16_t R = fix16mul(sineA, fix16sin(pwmSineAngle_));
 323              		.loc 1 116 0
 324 0050 134B     		ldr	r3, .L20+20
 325 0052 1C68     		ldr	r4, [r3]
 326 0054 0D4B     		ldr	r3, .L20
 327 0056 1B68     		ldr	r3, [r3]
 328 0058 181C     		mov	r0, r3
 329 005a FFF7FEFF 		bl	fix16sin
 330 005e 031C     		mov	r3, r0
 331 0060 201C     		mov	r0, r4
 332 0062 191C     		mov	r1, r3
 333 0064 FFF7FEFF 		bl	fix16mul
 334 0068 031C     		mov	r3, r0
 335 006a 7B61     		str	r3, [r7, #20]
 117:.\regulering.c ****     fix16_t e = R - currentAngle;
 336              		.loc 1 117 0
 337 006c 7A69     		ldr	r2, [r7, #20]
 338 006e 7B68     		ldr	r3, [r7, #4]
 339 0070 D31A     		sub	r3, r2, r3
ARM GAS  C:\Users\Jeppe\AppData\Local\Temp\cc3r0jtd.s 			page 9


 340 0072 3B61     		str	r3, [r7, #16]
 118:.\regulering.c ****     fix16_t C = K_P * e;
 341              		.loc 1 118 0
 342 0074 3A69     		ldr	r2, [r7, #16]
 343 0076 131C     		mov	r3, r2
 344 0078 9B00     		lsl	r3, r3, #2
 345 007a 9B18     		add	r3, r3, r2
 346 007c 9B00     		lsl	r3, r3, #2
 347 007e FB60     		str	r3, [r7, #12]
 119:.\regulering.c ****     return C;
 348              		.loc 1 119 0
 349 0080 FB68     		ldr	r3, [r7, #12]
 120:.\regulering.c ****     // Sæt evt regulerings status her - ERR = 0b10000000(128_dec 80_hex) , STALL 0b11000000(192_de
 121:.\regulering.c **** }
 350              		.loc 1 121 0
 351 0082 181C     		mov	r0, r3
 352 0084 BD46     		mov	sp, r7
 353 0086 07B0     		add	sp, sp, #28
 354              		@ sp needed
 355 0088 90BD     		pop	{r4, r7, pc}
 356              	.L21:
 357 008a C046     		.align	2
 358              	.L20:
 359 008c 00000000 		.word	pwmSineAngle_
 360 0090 1F920100 		.word	102943
 361 0094 00000000 		.word	going_up_
 362 0098 E16DFEFF 		.word	-102943
 363 009c 00000000 		.word	angleInc
 364 00a0 00000000 		.word	sineA
 365              		.cfi_endproc
 366              	.LFE35:
 367              		.size	beregnRegulering, .-beregnRegulering
 368              		.section	.text.PWMStyring,"ax",%progbits
 369              		.align	2
 370              		.global	PWMStyring
 371              		.code	16
 372              		.thumb_func
 373              		.type	PWMStyring, %function
 374              	PWMStyring:
 375              	.LFB36:
 122:.\regulering.c **** 
 123:.\regulering.c **** /* Function Name: PWMStyring
 124:.\regulering.c ****    Summary:
 125:.\regulering.c ****      ??
 126:.\regulering.c **** */
 127:.\regulering.c **** void PWMStyring(fix16_t intensity)
 128:.\regulering.c **** {
 376              		.loc 1 128 0
 377              		.cfi_startproc
 378 0000 80B5     		push	{r7, lr}
 379              		.cfi_def_cfa_offset 8
 380              		.cfi_offset 7, -8
 381              		.cfi_offset 14, -4
 382 0002 84B0     		sub	sp, sp, #16
 383              		.cfi_def_cfa_offset 24
 384 0004 00AF     		add	r7, sp, #0
 385              		.cfi_def_cfa_register 7
ARM GAS  C:\Users\Jeppe\AppData\Local\Temp\cc3r0jtd.s 			page 10


 386 0006 7860     		str	r0, [r7, #4]
 129:.\regulering.c ****     uint8_t comp = (fix16mul(intensity, 52429)+6553600)>>16;
 387              		.loc 1 129 0
 388 0008 7A68     		ldr	r2, [r7, #4]
 389 000a 0B4B     		ldr	r3, .L23
 390 000c 101C     		mov	r0, r2
 391 000e 191C     		mov	r1, r3
 392 0010 FFF7FEFF 		bl	fix16mul
 393 0014 031C     		mov	r3, r0
 394 0016 C822     		mov	r2, #200
 395 0018 D203     		lsl	r2, r2, #15
 396 001a 9B18     		add	r3, r3, r2
 397 001c 1A14     		asr	r2, r3, #16
 398 001e 3B1C     		mov	r3, r7
 399 0020 0F33     		add	r3, r3, #15
 400 0022 1A70     		strb	r2, [r3]
 130:.\regulering.c ****     PWM_WriteCompare(comp);
 401              		.loc 1 130 0
 402 0024 3B1C     		mov	r3, r7
 403 0026 0F33     		add	r3, r3, #15
 404 0028 1B78     		ldrb	r3, [r3]
 405 002a 181C     		mov	r0, r3
 406 002c FFF7FEFF 		bl	PWM_WriteCompare
 131:.\regulering.c **** }
 407              		.loc 1 131 0
 408 0030 BD46     		mov	sp, r7
 409 0032 04B0     		add	sp, sp, #16
 410              		@ sp needed
 411 0034 80BD     		pop	{r7, pc}
 412              	.L24:
 413 0036 C046     		.align	2
 414              	.L23:
 415 0038 CDCC0000 		.word	52429
 416              		.cfi_endproc
 417              	.LFE36:
 418              		.size	PWMStyring, .-PWMStyring
 419              		.section	.text.getReguleringsStatus,"ax",%progbits
 420              		.align	2
 421              		.global	getReguleringsStatus
 422              		.code	16
 423              		.thumb_func
 424              		.type	getReguleringsStatus, %function
 425              	getReguleringsStatus:
 426              	.LFB37:
 132:.\regulering.c **** 
 133:.\regulering.c **** 
 134:.\regulering.c **** /* Function Name: getReguleringsStatus
 135:.\regulering.c ****    Summary:
 136:.\regulering.c ****     Returns pointer to reguleringsStatus_
 137:.\regulering.c **** */
 138:.\regulering.c **** int* getReguleringsStatus()
 139:.\regulering.c **** {
 427              		.loc 1 139 0
 428              		.cfi_startproc
 429 0000 80B5     		push	{r7, lr}
 430              		.cfi_def_cfa_offset 8
 431              		.cfi_offset 7, -8
ARM GAS  C:\Users\Jeppe\AppData\Local\Temp\cc3r0jtd.s 			page 11


 432              		.cfi_offset 14, -4
 433 0002 82B0     		sub	sp, sp, #8
 434              		.cfi_def_cfa_offset 16
 435 0004 00AF     		add	r7, sp, #0
 436              		.cfi_def_cfa_register 7
 140:.\regulering.c ****     int* reguleringStatPtr = &reguleringsStatus_;
 437              		.loc 1 140 0
 438 0006 034B     		ldr	r3, .L27
 439 0008 7B60     		str	r3, [r7, #4]
 141:.\regulering.c ****     return reguleringStatPtr;
 440              		.loc 1 141 0
 441 000a 7B68     		ldr	r3, [r7, #4]
 142:.\regulering.c **** }
 442              		.loc 1 142 0
 443 000c 181C     		mov	r0, r3
 444 000e BD46     		mov	sp, r7
 445 0010 02B0     		add	sp, sp, #8
 446              		@ sp needed
 447 0012 80BD     		pop	{r7, pc}
 448              	.L28:
 449              		.align	2
 450              	.L27:
 451 0014 00000000 		.word	reguleringsStatus_
 452              		.cfi_endproc
 453              	.LFE37:
 454              		.size	getReguleringsStatus, .-getReguleringsStatus
 455              		.text
 456              	.Letext0:
 457              		.file 2 "c:\\program files (x86)\\cypress\\psoc creator\\3.1\\psoc creator\\import\\gnu_cs\\arm\\4
 458              		.file 3 "c:\\program files (x86)\\cypress\\psoc creator\\3.1\\psoc creator\\import\\gnu_cs\\arm\\4
 459              		.file 4 ".\\Generated_Source\\PSoC4/cytypes.h"
 460              		.file 5 ".\\globals.h"
 461              		.file 6 ".\\fixedMath.h"
 462              		.file 7 ".\\regulering.h"