ARM GAS  C:\Users\Felix\AppData\Local\Temp\ccMaNilo.s 			page 1


   1              		.cpu cortex-m0
   2              		.fpu softvfp
   3              		.eabi_attribute 20, 1
   4              		.eabi_attribute 21, 1
   5              		.eabi_attribute 23, 3
   6              		.eabi_attribute 24, 1
   7              		.eabi_attribute 25, 1
   8              		.eabi_attribute 26, 1
   9              		.eabi_attribute 30, 6
  10              		.eabi_attribute 34, 0
  11              		.eabi_attribute 18, 4
  12              		.code	16
  13              		.file	"sensorFortolker.c"
  14              		.text
  15              	.Ltext0:
  16              		.cfi_sections	.debug_frame
  17              		.global	imuInitArray
  18              		.section	.rodata
  19              		.align	2
  20              		.type	imuInitArray, %object
  21              		.size	imuInitArray, 10
  22              	imuInitArray:
  23 0000 19       		.byte	25
  24 0001 04       		.byte	4
  25 0002 1A       		.byte	26
  26 0003 03       		.byte	3
  27 0004 1B       		.byte	27
  28 0005 18       		.byte	24
  29 0006 1C       		.byte	28
  30 0007 08       		.byte	8
  31 0008 6B       		.byte	107
  32 0009 01       		.byte	1
  33              		.global	dataReady
  34 000a 0000     		.bss
  35              		.type	dataReady, %object
  36              		.size	dataReady, 1
  37              	dataReady:
  38 0000 00       		.space	1
  39              		.global	endstop_
  40              		.type	endstop_, %object
  41              		.size	endstop_, 1
  42              	endstop_:
  43 0001 00       		.space	1
  44              		.global	accData
  45 0002 0000     		.align	2
  46              		.type	accData, %object
  47              		.size	accData, 8
  48              	accData:
  49 0004 00000000 		.space	8
  49      00000000 
  50              		.global	gyroData
  51              		.align	2
  52              		.type	gyroData, %object
  53              		.size	gyroData, 4
  54              	gyroData:
  55 000c 00000000 		.space	4
  56              		.global	gyroAng
ARM GAS  C:\Users\Felix\AppData\Local\Temp\ccMaNilo.s 			page 2


  57              		.align	2
  58              		.type	gyroAng, %object
  59              		.size	gyroAng, 4
  60              	gyroAng:
  61 0010 00000000 		.space	4
  62              		.global	accAng
  63              		.align	2
  64              		.type	accAng, %object
  65              		.size	accAng, 4
  66              	accAng:
  67 0014 00000000 		.space	4
  68              		.global	estAng
  69              		.align	2
  70              		.type	estAng, %object
  71              		.size	estAng, 4
  72              	estAng:
  73 0018 00000000 		.space	4
  74              		.section	.text.initSensors,"ax",%progbits
  75              		.align	2
  76              		.global	initSensors
  77              		.code	16
  78              		.thumb_func
  79              		.type	initSensors, %function
  80              	initSensors:
  81              	.LFB33:
  82              		.file 1 ".\\sensorFortolker.c"
   1:.\sensorFortolker.c **** /* ========================================
   2:.\sensorFortolker.c ****  *
   3:.\sensorFortolker.c ****  * Copyright Baby Watch, 2015
   4:.\sensorFortolker.c ****  * All Rights Reserved
   5:.\sensorFortolker.c ****  * UNPUBLISHED, LICENSED SOFTWARE.
   6:.\sensorFortolker.c ****  *
   7:.\sensorFortolker.c ****  * CONFIDENTIAL AND PROPRIETARY INFORMATION
   8:.\sensorFortolker.c ****  * WHICH IS THE PROPERTY OF Baby Watch.
   9:.\sensorFortolker.c ****  *
  10:.\sensorFortolker.c ****  * ========================================
  11:.\sensorFortolker.c **** */
  12:.\sensorFortolker.c **** //========================================================================
  13:.\sensorFortolker.c **** // FILENAME : sensorFortolker.c
  14:.\sensorFortolker.c **** // CREATED : 03-03-2015
  15:.\sensorFortolker.c **** // AUTHOR  : Jeppe Hofni
  16:.\sensorFortolker.c **** // DESCR.  : c file for PSoC4
  17:.\sensorFortolker.c **** //
  18:.\sensorFortolker.c **** //------------------------------------------------------------------------
  19:.\sensorFortolker.c **** //
  20:.\sensorFortolker.c **** // REV.  DATE/AUTHOR  CHANGE DESCRIPTION
  21:.\sensorFortolker.c **** // 0.1  03-03-2015 - Jeppe - First writeup of vuggeControl.c
  22:.\sensorFortolker.c **** // 0.2	30-04-2015 - Jeppe - getEndstopGPIO implemented
  23:.\sensorFortolker.c **** //------------------------------------------------------------------------
  24:.\sensorFortolker.c **** // KNOWN ISSUES:
  25:.\sensorFortolker.c **** // REV. - ISSUE(S)
  26:.\sensorFortolker.c **** // 0.1 - Needs to be sorted proper
  27:.\sensorFortolker.c **** // 0.2 - SensorFortolker needs finished implementation
  28:.\sensorFortolker.c **** //========================================================================
  29:.\sensorFortolker.c **** 
  30:.\sensorFortolker.c **** //includes
  31:.\sensorFortolker.c **** #include "sensorFortolker.h"
ARM GAS  C:\Users\Felix\AppData\Local\Temp\ccMaNilo.s 			page 3


  32:.\sensorFortolker.c **** #include <stdio.h>
  33:.\sensorFortolker.c **** #include <fixedMath.h>
  34:.\sensorFortolker.c **** #include "globals.h"
  35:.\sensorFortolker.c **** 
  36:.\sensorFortolker.c **** /*        -------------------        MACROS       --------------------          */
  37:.\sensorFortolker.c **** //sample rate and sample period
  38:.\sensorFortolker.c **** #define FS 200
  39:.\sensorFortolker.c **** #define DT 328 // 65536/FS //dt defined as a 16.16 fixed point number
  40:.\sensorFortolker.c **** 
  41:.\sensorFortolker.c **** /* The scale factor of the mpu6050 gyroscope is 16.4 Lsb per    *
  42:.\sensorFortolker.c ****  * deg/s, converted to 16.16 fixed point. (2^16/16.4  )         */
  43:.\sensorFortolker.c **** #define GYRO_SCALE_FACTOR 3996
  44:.\sensorFortolker.c **** 
  45:.\sensorFortolker.c **** /* The accelerometer scale factor of the mpu6050 accelerometer  *
  46:.\sensorFortolker.c ****  * in the +- 4g range is 8192 Lsb/g, converted to 16.16 fixed   *
  47:.\sensorFortolker.c ****  * point. (2^16/8192)                                           */
  48:.\sensorFortolker.c **** #define ACC_SCALE_FACTOR 8
  49:.\sensorFortolker.c **** 
  50:.\sensorFortolker.c **** #define GYRO_WEIGHT 6554 //0.90 * 2^16
  51:.\sensorFortolker.c **** #define ACC_WEIGHT 58982 // (1 - gyro_weight) * 2^16
  52:.\sensorFortolker.c **** 
  53:.\sensorFortolker.c **** //I2C defines
  54:.\sensorFortolker.c **** #define IMU_ADDRESS 0b1101000 //+1 for alt
  55:.\sensorFortolker.c **** 
  56:.\sensorFortolker.c **** #define GYRO_FIRST_DATA 0x43 //this is X_H which will be followed by X_L
  57:.\sensorFortolker.c **** #define ACC_FIRST_DATA 0x3D //first in seq. Y_H, Y_L, Z_H, Z_L
  58:.\sensorFortolker.c **** 
  59:.\sensorFortolker.c **** #define IMU_INIT_LEN 5
  60:.\sensorFortolker.c **** const uint8_t imuInitArray[IMU_INIT_LEN][2] = {
  61:.\sensorFortolker.c ****     {0x19, 4},              //set the datarate to 200Hz (1kHz/1+4)
  62:.\sensorFortolker.c ****     {0x1A, 3},              //set dlpf freq to 44 and 42 for acc and gyro respectively
  63:.\sensorFortolker.c ****     {0x1B, 24},             //gyro range = +/-2000 deg/s
  64:.\sensorFortolker.c ****     {0x1C, 8},              //acc range = +/-4g
  65:.\sensorFortolker.c ****     {0x6B, 1}               //set clk source to x gyro
  66:.\sensorFortolker.c **** };
  67:.\sensorFortolker.c **** 
  68:.\sensorFortolker.c **** /*        -------------------        END MACROS       --------------------          */
  69:.\sensorFortolker.c **** 
  70:.\sensorFortolker.c **** //flags
  71:.\sensorFortolker.c **** volatile BOOL dataReady = FALSE, endstop_ = FALSE;
  72:.\sensorFortolker.c **** //raw data
  73:.\sensorFortolker.c **** fix16_t accData[2] = {0, 0}, gyroData = 0;
  74:.\sensorFortolker.c **** //calculated angles
  75:.\sensorFortolker.c **** fix16_t gyroAng = 0, accAng = 0, estAng = 0;
  76:.\sensorFortolker.c **** 
  77:.\sensorFortolker.c **** 
  78:.\sensorFortolker.c **** 
  79:.\sensorFortolker.c **** /*        --------------        FUNCTION DEFINITIONS       ---------------          */ 
  80:.\sensorFortolker.c **** 
  81:.\sensorFortolker.c **** /* Function initSensor         *
  82:.\sensorFortolker.c ****  * Summary:                    *
  83:.\sensorFortolker.c ****  * Initialtes sensorFortolker  *
  84:.\sensorFortolker.c ****  * to operation status         */
  85:.\sensorFortolker.c **** void initSensors()
  86:.\sensorFortolker.c **** {
  83              		.loc 1 86 0
  84              		.cfi_startproc
ARM GAS  C:\Users\Felix\AppData\Local\Temp\ccMaNilo.s 			page 4


  85 0000 80B5     		push	{r7, lr}
  86              		.cfi_def_cfa_offset 8
  87              		.cfi_offset 7, -8
  88              		.cfi_offset 14, -4
  89 0002 00AF     		add	r7, sp, #0
  90              		.cfi_def_cfa_register 7
  87:.\sensorFortolker.c ****     /* Start the Components */
  88:.\sensorFortolker.c ****     sensorI2C_Start();
  91              		.loc 1 88 0
  92 0004 FFF7FEFF 		bl	sensorI2C_Start
  89:.\sensorFortolker.c ****     //GYRO_DR_INT_StartEx(gyroDataReadyInterrupt);    
  90:.\sensorFortolker.c ****     Endstop_isr_StartEx(EndstopGPIO);
  93              		.loc 1 90 0
  94 0008 054B     		ldr	r3, .L2
  95 000a 181C     		mov	r0, r3
  96 000c FFF7FEFF 		bl	Endstop_isr_StartEx
  91:.\sensorFortolker.c ****     
  92:.\sensorFortolker.c ****     /* Setup the accelerometer and gyro */
  93:.\sensorFortolker.c ****     setupI2CDevice(IMU_ADDRESS, imuInitArray, IMU_INIT_LEN);
  97              		.loc 1 93 0
  98 0010 044B     		ldr	r3, .L2+4
  99 0012 6820     		mov	r0, #104
 100 0014 191C     		mov	r1, r3
 101 0016 0522     		mov	r2, #5
 102 0018 FFF7FEFF 		bl	setupI2CDevice
  94:.\sensorFortolker.c **** }
 103              		.loc 1 94 0
 104 001c BD46     		mov	sp, r7
 105              		@ sp needed
 106 001e 80BD     		pop	{r7, pc}
 107              	.L3:
 108              		.align	2
 109              	.L2:
 110 0020 00000000 		.word	EndstopGPIO
 111 0024 00000000 		.word	imuInitArray
 112              		.cfi_endproc
 113              	.LFE33:
 114              		.size	initSensors, .-initSensors
 115              		.section	.text.getVuggeUdsvingSens,"ax",%progbits
 116              		.align	2
 117              		.global	getVuggeUdsvingSens
 118              		.code	16
 119              		.thumb_func
 120              		.type	getVuggeUdsvingSens, %function
 121              	getVuggeUdsvingSens:
 122              	.LFB34:
  95:.\sensorFortolker.c **** 
  96:.\sensorFortolker.c **** ///* Function getMotorPosSens
  97:.\sensorFortolker.c **** //   Summary:
  98:.\sensorFortolker.c **** //    ??
  99:.\sensorFortolker.c **** //*/
 100:.\sensorFortolker.c **** //fix16_t getMotorPosSens()
 101:.\sensorFortolker.c **** //{
 102:.\sensorFortolker.c **** //
 103:.\sensorFortolker.c **** //}
 104:.\sensorFortolker.c **** 
 105:.\sensorFortolker.c **** /* Function getVuggeUdsvingSens
ARM GAS  C:\Users\Felix\AppData\Local\Temp\ccMaNilo.s 			page 5


 106:.\sensorFortolker.c ****    Summary:
 107:.\sensorFortolker.c ****     ??
 108:.\sensorFortolker.c **** */
 109:.\sensorFortolker.c **** fix16_t getVuggeUdsvingSens()
 110:.\sensorFortolker.c **** {
 123              		.loc 1 110 0
 124              		.cfi_startproc
 125 0000 90B5     		push	{r4, r7, lr}
 126              		.cfi_def_cfa_offset 12
 127              		.cfi_offset 4, -12
 128              		.cfi_offset 7, -8
 129              		.cfi_offset 14, -4
 130 0002 83B0     		sub	sp, sp, #12
 131              		.cfi_def_cfa_offset 24
 132 0004 00AF     		add	r7, sp, #0
 133              		.cfi_def_cfa_register 7
 111:.\sensorFortolker.c ****      //read sensor data
 112:.\sensorFortolker.c ****     readGyroData(&gyroData);
 134              		.loc 1 112 0
 135 0006 374B     		ldr	r3, .L9
 136 0008 181C     		mov	r0, r3
 137 000a FFF7FEFF 		bl	readGyroData
 113:.\sensorFortolker.c ****     readAccData(accData);
 138              		.loc 1 113 0
 139 000e 364B     		ldr	r3, .L9+4
 140 0010 181C     		mov	r0, r3
 141 0012 FFF7FEFF 		bl	readAccData
 114:.\sensorFortolker.c ****     // Integrate gyro data over last sample period, and calculate new angle from gyro              
 115:.\sensorFortolker.c ****     estAng += fix16mul(gyroData, DT);
 142              		.loc 1 115 0
 143 0016 334B     		ldr	r3, .L9
 144 0018 1A68     		ldr	r2, [r3]
 145 001a A423     		mov	r3, #164
 146 001c 5B00     		lsl	r3, r3, #1
 147 001e 101C     		mov	r0, r2
 148 0020 191C     		mov	r1, r3
 149 0022 FFF7FEFF 		bl	fix16mul
 150 0026 021C     		mov	r2, r0
 151 0028 304B     		ldr	r3, .L9+8
 152 002a 1B68     		ldr	r3, [r3]
 153 002c D218     		add	r2, r2, r3
 154 002e 2F4B     		ldr	r3, .L9+8
 155 0030 1A60     		str	r2, [r3]
 116:.\sensorFortolker.c ****     
 117:.\sensorFortolker.c ****     // wrap angle if outside +/- 180 area
 118:.\sensorFortolker.c ****     if(estAng < -FIXED_DEG_180) estAng += FIXED_DEG_360; 
 156              		.loc 1 118 0
 157 0032 2E4B     		ldr	r3, .L9+8
 158 0034 1A68     		ldr	r2, [r3]
 159 0036 2E4B     		ldr	r3, .L9+12
 160 0038 9A42     		cmp	r2, r3
 161 003a 06DA     		bge	.L5
 162              		.loc 1 118 0 is_stmt 0 discriminator 1
 163 003c 2B4B     		ldr	r3, .L9+8
 164 003e 1B68     		ldr	r3, [r3]
 165 0040 B421     		mov	r1, #180
 166 0042 4904     		lsl	r1, r1, #17
ARM GAS  C:\Users\Felix\AppData\Local\Temp\ccMaNilo.s 			page 6


 167 0044 5A18     		add	r2, r3, r1
 168 0046 294B     		ldr	r3, .L9+8
 169 0048 1A60     		str	r2, [r3]
 170              	.L5:
 119:.\sensorFortolker.c ****     if(estAng > FIXED_DEG_180) estAng -= FIXED_DEG_360; 
 171              		.loc 1 119 0 is_stmt 1
 172 004a 284B     		ldr	r3, .L9+8
 173 004c 1A68     		ldr	r2, [r3]
 174 004e B423     		mov	r3, #180
 175 0050 1B04     		lsl	r3, r3, #16
 176 0052 9A42     		cmp	r2, r3
 177 0054 05DD     		ble	.L6
 178              		.loc 1 119 0 is_stmt 0 discriminator 1
 179 0056 254B     		ldr	r3, .L9+8
 180 0058 1B68     		ldr	r3, [r3]
 181 005a 2649     		ldr	r1, .L9+16
 182 005c 5A18     		add	r2, r3, r1
 183 005e 234B     		ldr	r3, .L9+8
 184 0060 1A60     		str	r2, [r3]
 185              	.L6:
 120:.\sensorFortolker.c ****     
 121:.\sensorFortolker.c ****     /* Correct angle estimate using accelerometer data if it is estimated valid. *
 122:.\sensorFortolker.c ****      * The acc input can be used if the accelleration vector has a length close  *
 123:.\sensorFortolker.c ****      * to 1g (no force other than gravity), which is estimated by the sum of the *
 124:.\sensorFortolker.c ****      * components for computational efficiency.                                  */
 125:.\sensorFortolker.c ****     fix16_t forceMagEst = fix16abs(accData[0]) + fix16abs(accData[1]);
 186              		.loc 1 125 0 is_stmt 1
 187 0062 214B     		ldr	r3, .L9+4
 188 0064 1B68     		ldr	r3, [r3]
 189 0066 181C     		mov	r0, r3
 190 0068 FFF7FEFF 		bl	fix16abs
 191 006c 041C     		mov	r4, r0
 192 006e 1E4B     		ldr	r3, .L9+4
 193 0070 5B68     		ldr	r3, [r3, #4]
 194 0072 181C     		mov	r0, r3
 195 0074 FFF7FEFF 		bl	fix16abs
 196 0078 031C     		mov	r3, r0
 197 007a E318     		add	r3, r4, r3
 198 007c 7B60     		str	r3, [r7, #4]
 126:.\sensorFortolker.c ****     
 127:.\sensorFortolker.c ****     // Use if forcemag is between 0.95*(2^16) and 1.3*(2^16)
 128:.\sensorFortolker.c ****     fix16_t accAng = 0;
 199              		.loc 1 128 0
 200 007e 0023     		mov	r3, #0
 201 0080 3B60     		str	r3, [r7]
 129:.\sensorFortolker.c ****     if(62259 < forceMagEst && forceMagEst < 85197) 
 202              		.loc 1 129 0
 203 0082 7A68     		ldr	r2, [r7, #4]
 204 0084 1C4B     		ldr	r3, .L9+20
 205 0086 9A42     		cmp	r2, r3
 206 0088 25DD     		ble	.L7
 207              		.loc 1 129 0 is_stmt 0 discriminator 1
 208 008a 7A68     		ldr	r2, [r7, #4]
 209 008c 1B4B     		ldr	r3, .L9+24
 210 008e 9A42     		cmp	r2, r3
 211 0090 21DC     		bgt	.L7
 130:.\sensorFortolker.c ****     {
ARM GAS  C:\Users\Felix\AppData\Local\Temp\ccMaNilo.s 			page 7


 131:.\sensorFortolker.c ****         accAng = fix16rad2deg(FIXED_HALF_PI + fix16atan2(accData[1], accData[0]));
 212              		.loc 1 131 0 is_stmt 1
 213 0092 154B     		ldr	r3, .L9+4
 214 0094 5A68     		ldr	r2, [r3, #4]
 215 0096 144B     		ldr	r3, .L9+4
 216 0098 1B68     		ldr	r3, [r3]
 217 009a 101C     		mov	r0, r2
 218 009c 191C     		mov	r1, r3
 219 009e FFF7FEFF 		bl	fix16atan2
 220 00a2 031C     		mov	r3, r0
 221 00a4 164A     		ldr	r2, .L9+28
 222 00a6 9B18     		add	r3, r3, r2
 223 00a8 181C     		mov	r0, r3
 224 00aa FFF7FEFF 		bl	fix16rad2deg
 225 00ae 031C     		mov	r3, r0
 226 00b0 3B60     		str	r3, [r7]
 132:.\sensorFortolker.c ****         //take part of gyro estimate and add complementary part of acc estimate
 133:.\sensorFortolker.c ****         estAng = fix16mul(GYRO_WEIGHT, estAng) 
 227              		.loc 1 133 0
 228 00b2 0E4B     		ldr	r3, .L9+8
 229 00b4 1B68     		ldr	r3, [r3]
 230 00b6 134A     		ldr	r2, .L9+32
 231 00b8 101C     		mov	r0, r2
 232 00ba 191C     		mov	r1, r3
 233 00bc FFF7FEFF 		bl	fix16mul
 234 00c0 041C     		mov	r4, r0
 134:.\sensorFortolker.c ****                  + fix16mul(ACC_WEIGHT, accAng);
 235              		.loc 1 134 0
 236 00c2 114A     		ldr	r2, .L9+36
 237 00c4 3B68     		ldr	r3, [r7]
 238 00c6 101C     		mov	r0, r2
 239 00c8 191C     		mov	r1, r3
 240 00ca FFF7FEFF 		bl	fix16mul
 241 00ce 031C     		mov	r3, r0
 242 00d0 E218     		add	r2, r4, r3
 133:.\sensorFortolker.c ****         estAng = fix16mul(GYRO_WEIGHT, estAng) 
 243              		.loc 1 133 0
 244 00d2 064B     		ldr	r3, .L9+8
 245 00d4 1A60     		str	r2, [r3]
 246              	.L7:
 135:.\sensorFortolker.c ****     }    
 136:.\sensorFortolker.c ****     return estAng;
 247              		.loc 1 136 0
 248 00d6 054B     		ldr	r3, .L9+8
 249 00d8 1B68     		ldr	r3, [r3]
 137:.\sensorFortolker.c **** }
 250              		.loc 1 137 0
 251 00da 181C     		mov	r0, r3
 252 00dc BD46     		mov	sp, r7
 253 00de 03B0     		add	sp, sp, #12
 254              		@ sp needed
 255 00e0 90BD     		pop	{r4, r7, pc}
 256              	.L10:
 257 00e2 C046     		.align	2
 258              	.L9:
 259 00e4 00000000 		.word	gyroData
 260 00e8 00000000 		.word	accData
ARM GAS  C:\Users\Felix\AppData\Local\Temp\ccMaNilo.s 			page 8


 261 00ec 00000000 		.word	estAng
 262 00f0 00004CFF 		.word	-11796480
 263 00f4 000098FE 		.word	-23592960
 264 00f8 33F30000 		.word	62259
 265 00fc CC4C0100 		.word	85196
 266 0100 20920100 		.word	102944
 267 0104 9A190000 		.word	6554
 268 0108 66E60000 		.word	58982
 269              		.cfi_endproc
 270              	.LFE34:
 271              		.size	getVuggeUdsvingSens, .-getVuggeUdsvingSens
 272              		.section	.text.getEndstopGPIO,"ax",%progbits
 273              		.align	2
 274              		.global	getEndstopGPIO
 275              		.code	16
 276              		.thumb_func
 277              		.type	getEndstopGPIO, %function
 278              	getEndstopGPIO:
 279              	.LFB35:
 138:.\sensorFortolker.c **** 
 139:.\sensorFortolker.c **** /* Function getEndstopGPIO
 140:.\sensorFortolker.c ****    Summary:
 141:.\sensorFortolker.c ****     Returns a ptr pointing at enstop_ adress
 142:.\sensorFortolker.c **** */
 143:.\sensorFortolker.c **** BOOL getEndstopGPIO()
 144:.\sensorFortolker.c **** {
 280              		.loc 1 144 0
 281              		.cfi_startproc
 282 0000 80B5     		push	{r7, lr}
 283              		.cfi_def_cfa_offset 8
 284              		.cfi_offset 7, -8
 285              		.cfi_offset 14, -4
 286 0002 00AF     		add	r7, sp, #0
 287              		.cfi_def_cfa_register 7
 145:.\sensorFortolker.c ****     return endstop_;
 288              		.loc 1 145 0
 289 0004 024B     		ldr	r3, .L13
 290 0006 1B78     		ldrb	r3, [r3]
 291 0008 DBB2     		uxtb	r3, r3
 146:.\sensorFortolker.c **** }
 292              		.loc 1 146 0
 293 000a 181C     		mov	r0, r3
 294 000c BD46     		mov	sp, r7
 295              		@ sp needed
 296 000e 80BD     		pop	{r7, pc}
 297              	.L14:
 298              		.align	2
 299              	.L13:
 300 0010 00000000 		.word	endstop_
 301              		.cfi_endproc
 302              	.LFE35:
 303              		.size	getEndstopGPIO, .-getEndstopGPIO
 304              		.section	.text.setupI2CDevice,"ax",%progbits
 305              		.align	2
 306              		.global	setupI2CDevice
 307              		.code	16
 308              		.thumb_func
ARM GAS  C:\Users\Felix\AppData\Local\Temp\ccMaNilo.s 			page 9


 309              		.type	setupI2CDevice, %function
 310              	setupI2CDevice:
 311              	.LFB36:
 147:.\sensorFortolker.c **** 
 148:.\sensorFortolker.c **** void setupI2CDevice(uint8_t addr, const uint8_t initArray[][2] , uint8_t arrayLen){
 312              		.loc 1 148 0
 313              		.cfi_startproc
 314 0000 80B5     		push	{r7, lr}
 315              		.cfi_def_cfa_offset 8
 316              		.cfi_offset 7, -8
 317              		.cfi_offset 14, -4
 318 0002 84B0     		sub	sp, sp, #16
 319              		.cfi_def_cfa_offset 24
 320 0004 00AF     		add	r7, sp, #0
 321              		.cfi_def_cfa_register 7
 322 0006 3960     		str	r1, [r7]
 323 0008 FB1D     		add	r3, r7, #7
 324 000a 011C     		add	r1, r0, #0
 325 000c 1970     		strb	r1, [r3]
 326 000e BB1D     		add	r3, r7, #6
 327 0010 1A70     		strb	r2, [r3]
 149:.\sensorFortolker.c ****     int i;
 150:.\sensorFortolker.c ****     for(i = 0; i < arrayLen; i++){
 328              		.loc 1 150 0
 329 0012 0023     		mov	r3, #0
 330 0014 FB60     		str	r3, [r7, #12]
 331 0016 13E0     		b	.L16
 332              	.L17:
 151:.\sensorFortolker.c ****         writeI2CReg(addr, initArray[i][0], initArray[i][1]);
 333              		.loc 1 151 0 discriminator 2
 334 0018 FB68     		ldr	r3, [r7, #12]
 335 001a 5B00     		lsl	r3, r3, #1
 336 001c 3A68     		ldr	r2, [r7]
 337 001e D318     		add	r3, r2, r3
 338 0020 1A78     		ldrb	r2, [r3]
 339 0022 FB68     		ldr	r3, [r7, #12]
 340 0024 5B00     		lsl	r3, r3, #1
 341 0026 3968     		ldr	r1, [r7]
 342 0028 CB18     		add	r3, r1, r3
 343 002a 5B78     		ldrb	r3, [r3, #1]
 344 002c F91D     		add	r1, r7, #7
 345 002e 0978     		ldrb	r1, [r1]
 346 0030 081C     		mov	r0, r1
 347 0032 111C     		mov	r1, r2
 348 0034 1A1C     		mov	r2, r3
 349 0036 FFF7FEFF 		bl	writeI2CReg
 150:.\sensorFortolker.c ****     for(i = 0; i < arrayLen; i++){
 350              		.loc 1 150 0 discriminator 2
 351 003a FB68     		ldr	r3, [r7, #12]
 352 003c 0133     		add	r3, r3, #1
 353 003e FB60     		str	r3, [r7, #12]
 354              	.L16:
 150:.\sensorFortolker.c ****     for(i = 0; i < arrayLen; i++){
 355              		.loc 1 150 0 is_stmt 0 discriminator 1
 356 0040 BB1D     		add	r3, r7, #6
 357 0042 1A78     		ldrb	r2, [r3]
 358 0044 FB68     		ldr	r3, [r7, #12]
ARM GAS  C:\Users\Felix\AppData\Local\Temp\ccMaNilo.s 			page 10


 359 0046 9A42     		cmp	r2, r3
 360 0048 E6DC     		bgt	.L17
 152:.\sensorFortolker.c ****     }
 153:.\sensorFortolker.c **** }
 361              		.loc 1 153 0 is_stmt 1
 362 004a BD46     		mov	sp, r7
 363 004c 04B0     		add	sp, sp, #16
 364              		@ sp needed
 365 004e 80BD     		pop	{r7, pc}
 366              		.cfi_endproc
 367              	.LFE36:
 368              		.size	setupI2CDevice, .-setupI2CDevice
 369              		.section	.text.readI2CReg,"ax",%progbits
 370              		.align	2
 371              		.global	readI2CReg
 372              		.code	16
 373              		.thumb_func
 374              		.type	readI2CReg, %function
 375              	readI2CReg:
 376              	.LFB37:
 154:.\sensorFortolker.c ****     
 155:.\sensorFortolker.c **** uint8_t readI2CReg(uint8_t addr, uint8_t reg)
 156:.\sensorFortolker.c **** {
 377              		.loc 1 156 0
 378              		.cfi_startproc
 379 0000 80B5     		push	{r7, lr}
 380              		.cfi_def_cfa_offset 8
 381              		.cfi_offset 7, -8
 382              		.cfi_offset 14, -4
 383 0002 84B0     		sub	sp, sp, #16
 384              		.cfi_def_cfa_offset 24
 385 0004 00AF     		add	r7, sp, #0
 386              		.cfi_def_cfa_register 7
 387 0006 0A1C     		mov	r2, r1
 388 0008 FB1D     		add	r3, r7, #7
 389 000a 011C     		add	r1, r0, #0
 390 000c 1970     		strb	r1, [r3]
 391 000e BB1D     		add	r3, r7, #6
 392 0010 1A70     		strb	r2, [r3]
 157:.\sensorFortolker.c ****     
 158:.\sensorFortolker.c ****     uint8_t result; 
 159:.\sensorFortolker.c ****     
 160:.\sensorFortolker.c **** 	if (sensorI2C_I2CMasterSendStart(addr, 0) == sensorI2C_I2C_MSTR_NO_ERROR) /* Check if transfer com
 393              		.loc 1 160 0
 394 0012 FB1D     		add	r3, r7, #7
 395 0014 1B78     		ldrb	r3, [r3]
 396 0016 181C     		mov	r0, r3
 397 0018 0021     		mov	r1, #0
 398 001a FFF7FEFF 		bl	sensorI2C_I2CMasterSendStart
 399 001e 031C     		mov	r3, r0
 400 0020 002B     		cmp	r3, #0
 401 0022 19D1     		bne	.L19
 161:.\sensorFortolker.c ****     { 
 162:.\sensorFortolker.c ****         if(sensorI2C_I2CMasterWriteByte(reg) == sensorI2C_I2C_MSTR_NO_ERROR)
 402              		.loc 1 162 0
 403 0024 BB1D     		add	r3, r7, #6
 404 0026 1B78     		ldrb	r3, [r3]
ARM GAS  C:\Users\Felix\AppData\Local\Temp\ccMaNilo.s 			page 11


 405 0028 181C     		mov	r0, r3
 406 002a FFF7FEFF 		bl	sensorI2C_I2CMasterWriteByte
 407 002e 031C     		mov	r3, r0
 408 0030 002B     		cmp	r3, #0
 409 0032 11D1     		bne	.L19
 163:.\sensorFortolker.c **** 		{
 164:.\sensorFortolker.c ****             if(sensorI2C_I2CMasterSendRestart(addr, 1) == sensorI2C_I2C_MSTR_NO_ERROR)
 410              		.loc 1 164 0
 411 0034 FB1D     		add	r3, r7, #7
 412 0036 1B78     		ldrb	r3, [r3]
 413 0038 181C     		mov	r0, r3
 414 003a 0121     		mov	r1, #1
 415 003c FFF7FEFF 		bl	sensorI2C_I2CMasterSendRestart
 416 0040 031C     		mov	r3, r0
 417 0042 002B     		cmp	r3, #0
 418 0044 08D1     		bne	.L19
 165:.\sensorFortolker.c **** 			{
 166:.\sensorFortolker.c ****                 result = sensorI2C_I2CMasterReadByte(sensorI2C_I2C_NAK_DATA);
 419              		.loc 1 166 0
 420 0046 0120     		mov	r0, #1
 421 0048 FFF7FEFF 		bl	sensorI2C_I2CMasterReadByte
 422 004c 021C     		mov	r2, r0
 423 004e 3B1C     		mov	r3, r7
 424 0050 0F33     		add	r3, r3, #15
 425 0052 1A70     		strb	r2, [r3]
 167:.\sensorFortolker.c ****                 sensorI2C_I2CMasterSendStop();
 426              		.loc 1 167 0
 427 0054 FFF7FEFF 		bl	sensorI2C_I2CMasterSendStop
 428              	.L19:
 168:.\sensorFortolker.c **** 				
 169:.\sensorFortolker.c **** 			}
 170:.\sensorFortolker.c **** 		}
 171:.\sensorFortolker.c **** 	}
 172:.\sensorFortolker.c **** 	return result;		
 429              		.loc 1 172 0
 430 0058 3B1C     		mov	r3, r7
 431 005a 0F33     		add	r3, r3, #15
 432 005c 1B78     		ldrb	r3, [r3]
 173:.\sensorFortolker.c ****     
 174:.\sensorFortolker.c **** }
 433              		.loc 1 174 0
 434 005e 181C     		mov	r0, r3
 435 0060 BD46     		mov	sp, r7
 436 0062 04B0     		add	sp, sp, #16
 437              		@ sp needed
 438 0064 80BD     		pop	{r7, pc}
 439              		.cfi_endproc
 440              	.LFE37:
 441              		.size	readI2CReg, .-readI2CReg
 442 0066 C046     		.section	.text.writeI2CReg,"ax",%progbits
 443              		.align	2
 444              		.global	writeI2CReg
 445              		.code	16
 446              		.thumb_func
 447              		.type	writeI2CReg, %function
 448              	writeI2CReg:
 449              	.LFB38:
ARM GAS  C:\Users\Felix\AppData\Local\Temp\ccMaNilo.s 			page 12


 175:.\sensorFortolker.c **** 
 176:.\sensorFortolker.c **** void writeI2CReg(uint8_t addr, uint8_t reg, uint8_t val){    
 450              		.loc 1 176 0
 451              		.cfi_startproc
 452 0000 80B5     		push	{r7, lr}
 453              		.cfi_def_cfa_offset 8
 454              		.cfi_offset 7, -8
 455              		.cfi_offset 14, -4
 456 0002 82B0     		sub	sp, sp, #8
 457              		.cfi_def_cfa_offset 16
 458 0004 00AF     		add	r7, sp, #0
 459              		.cfi_def_cfa_register 7
 460 0006 FB1D     		add	r3, r7, #7
 461 0008 1870     		strb	r0, [r3]
 462 000a BB1D     		add	r3, r7, #6
 463 000c 1970     		strb	r1, [r3]
 464 000e 7B1D     		add	r3, r7, #5
 465 0010 1A70     		strb	r2, [r3]
 177:.\sensorFortolker.c **** 	if (sensorI2C_I2CMasterSendStart(addr, 0) == sensorI2C_I2C_MSTR_NO_ERROR) /* Check if transfer com
 466              		.loc 1 177 0
 467 0012 FB1D     		add	r3, r7, #7
 468 0014 1B78     		ldrb	r3, [r3]
 469 0016 181C     		mov	r0, r3
 470 0018 0021     		mov	r1, #0
 471 001a FFF7FEFF 		bl	sensorI2C_I2CMasterSendStart
 472 001e 031C     		mov	r3, r0
 473 0020 002B     		cmp	r3, #0
 474 0022 11D1     		bne	.L21
 178:.\sensorFortolker.c ****     { 
 179:.\sensorFortolker.c ****         if(sensorI2C_I2CMasterWriteByte(reg) == sensorI2C_I2C_MSTR_NO_ERROR)
 475              		.loc 1 179 0
 476 0024 BB1D     		add	r3, r7, #6
 477 0026 1B78     		ldrb	r3, [r3]
 478 0028 181C     		mov	r0, r3
 479 002a FFF7FEFF 		bl	sensorI2C_I2CMasterWriteByte
 480 002e 031C     		mov	r3, r0
 481 0030 002B     		cmp	r3, #0
 482 0032 09D1     		bne	.L21
 180:.\sensorFortolker.c **** 		{
 181:.\sensorFortolker.c ****               if(sensorI2C_I2CMasterWriteByte(val) == sensorI2C_I2C_MSTR_NO_ERROR)   
 483              		.loc 1 181 0
 484 0034 7B1D     		add	r3, r7, #5
 485 0036 1B78     		ldrb	r3, [r3]
 486 0038 181C     		mov	r0, r3
 487 003a FFF7FEFF 		bl	sensorI2C_I2CMasterWriteByte
 488 003e 031C     		mov	r3, r0
 489 0040 002B     		cmp	r3, #0
 490 0042 01D1     		bne	.L21
 182:.\sensorFortolker.c ****                 {      
 183:.\sensorFortolker.c ****                     sensorI2C_I2CMasterSendStop();
 491              		.loc 1 183 0
 492 0044 FFF7FEFF 		bl	sensorI2C_I2CMasterSendStop
 493              	.L21:
 184:.\sensorFortolker.c ****     		    }
 185:.\sensorFortolker.c **** 		}
 186:.\sensorFortolker.c **** 	}
 187:.\sensorFortolker.c **** 	
ARM GAS  C:\Users\Felix\AppData\Local\Temp\ccMaNilo.s 			page 13


 188:.\sensorFortolker.c ****     
 189:.\sensorFortolker.c ****     
 190:.\sensorFortolker.c **** }
 494              		.loc 1 190 0
 495 0048 BD46     		mov	sp, r7
 496 004a 02B0     		add	sp, sp, #8
 497              		@ sp needed
 498 004c 80BD     		pop	{r7, pc}
 499              		.cfi_endproc
 500              	.LFE38:
 501              		.size	writeI2CReg, .-writeI2CReg
 502 004e C046     		.section	.text.readGyroData,"ax",%progbits
 503              		.align	2
 504              		.global	readGyroData
 505              		.code	16
 506              		.thumb_func
 507              		.type	readGyroData, %function
 508              	readGyroData:
 509              	.LFB39:
 191:.\sensorFortolker.c **** 
 192:.\sensorFortolker.c **** void readGyroData(fix16_t* gyroData)
 193:.\sensorFortolker.c **** {
 510              		.loc 1 193 0
 511              		.cfi_startproc
 512 0000 90B5     		push	{r4, r7, lr}
 513              		.cfi_def_cfa_offset 12
 514              		.cfi_offset 4, -12
 515              		.cfi_offset 7, -8
 516              		.cfi_offset 14, -4
 517 0002 85B0     		sub	sp, sp, #20
 518              		.cfi_def_cfa_offset 32
 519 0004 00AF     		add	r7, sp, #0
 520              		.cfi_def_cfa_register 7
 521 0006 7860     		str	r0, [r7, #4]
 194:.\sensorFortolker.c ****     //read the acc data from the accellerometer
 195:.\sensorFortolker.c ****     int16_t rawGyroX = readI2CReg(IMU_ADDRESS, GYRO_FIRST_DATA + 1) 
 522              		.loc 1 195 0
 523 0008 6820     		mov	r0, #104
 524 000a 4421     		mov	r1, #68
 525 000c FFF7FEFF 		bl	readI2CReg
 526 0010 031C     		mov	r3, r0
 527 0012 1C1C     		mov	r4, r3
 196:.\sensorFortolker.c ****             + ((int16_t) readI2CReg(IMU_ADDRESS, GYRO_FIRST_DATA) << 8);
 528              		.loc 1 196 0
 529 0014 6820     		mov	r0, #104
 530 0016 4321     		mov	r1, #67
 531 0018 FFF7FEFF 		bl	readI2CReg
 532 001c 031C     		mov	r3, r0
 195:.\sensorFortolker.c ****     int16_t rawGyroX = readI2CReg(IMU_ADDRESS, GYRO_FIRST_DATA + 1) 
 533              		.loc 1 195 0
 534 001e 1B02     		lsl	r3, r3, #8
 535 0020 9BB2     		uxth	r3, r3
 536 0022 E318     		add	r3, r4, r3
 537 0024 9AB2     		uxth	r2, r3
 538 0026 3B1C     		mov	r3, r7
 539 0028 0E33     		add	r3, r3, #14
 540 002a 1A80     		strh	r2, [r3]
ARM GAS  C:\Users\Felix\AppData\Local\Temp\ccMaNilo.s 			page 14


 197:.\sensorFortolker.c ****     //scale data and return it
 198:.\sensorFortolker.c ****     *gyroData = (fix16_t) rawGyroX * GYRO_SCALE_FACTOR;
 541              		.loc 1 198 0
 542 002c 3B1C     		mov	r3, r7
 543 002e 0E33     		add	r3, r3, #14
 544 0030 0022     		mov	r2, #0
 545 0032 9B5E     		ldrsh	r3, [r3, r2]
 546 0034 034A     		ldr	r2, .L24
 547 0036 5A43     		mul	r2, r3
 548 0038 7B68     		ldr	r3, [r7, #4]
 549 003a 1A60     		str	r2, [r3]
 199:.\sensorFortolker.c **** }
 550              		.loc 1 199 0
 551 003c BD46     		mov	sp, r7
 552 003e 05B0     		add	sp, sp, #20
 553              		@ sp needed
 554 0040 90BD     		pop	{r4, r7, pc}
 555              	.L25:
 556 0042 C046     		.align	2
 557              	.L24:
 558 0044 9C0F0000 		.word	3996
 559              		.cfi_endproc
 560              	.LFE39:
 561              		.size	readGyroData, .-readGyroData
 562              		.section	.text.readAccData,"ax",%progbits
 563              		.align	2
 564              		.global	readAccData
 565              		.code	16
 566              		.thumb_func
 567              		.type	readAccData, %function
 568              	readAccData:
 569              	.LFB40:
 200:.\sensorFortolker.c **** 
 201:.\sensorFortolker.c **** void readAccData(fix16_t* accData)
 202:.\sensorFortolker.c **** {
 570              		.loc 1 202 0
 571              		.cfi_startproc
 572 0000 90B5     		push	{r4, r7, lr}
 573              		.cfi_def_cfa_offset 12
 574              		.cfi_offset 4, -12
 575              		.cfi_offset 7, -8
 576              		.cfi_offset 14, -4
 577 0002 85B0     		sub	sp, sp, #20
 578              		.cfi_def_cfa_offset 32
 579 0004 00AF     		add	r7, sp, #0
 580              		.cfi_def_cfa_register 7
 581 0006 7860     		str	r0, [r7, #4]
 203:.\sensorFortolker.c ****     //read the raw data from the accellerometer
 204:.\sensorFortolker.c ****     int16 rawAccY = readI2CReg(IMU_ADDRESS, ACC_FIRST_DATA+1) 
 582              		.loc 1 204 0
 583 0008 6820     		mov	r0, #104
 584 000a 3E21     		mov	r1, #62
 585 000c FFF7FEFF 		bl	readI2CReg
 586 0010 031C     		mov	r3, r0
 587 0012 1C1C     		mov	r4, r3
 205:.\sensorFortolker.c ****             + ((int16_t) readI2CReg(IMU_ADDRESS, ACC_FIRST_DATA)<<8);
 588              		.loc 1 205 0
ARM GAS  C:\Users\Felix\AppData\Local\Temp\ccMaNilo.s 			page 15


 589 0014 6820     		mov	r0, #104
 590 0016 3D21     		mov	r1, #61
 591 0018 FFF7FEFF 		bl	readI2CReg
 592 001c 031C     		mov	r3, r0
 204:.\sensorFortolker.c ****     int16 rawAccY = readI2CReg(IMU_ADDRESS, ACC_FIRST_DATA+1) 
 593              		.loc 1 204 0
 594 001e 1B02     		lsl	r3, r3, #8
 595 0020 9BB2     		uxth	r3, r3
 596 0022 E318     		add	r3, r4, r3
 597 0024 9AB2     		uxth	r2, r3
 598 0026 3B1C     		mov	r3, r7
 599 0028 0E33     		add	r3, r3, #14
 600 002a 1A80     		strh	r2, [r3]
 206:.\sensorFortolker.c ****     int16 rawAccZ = readI2CReg(IMU_ADDRESS, ACC_FIRST_DATA+3) 
 601              		.loc 1 206 0
 602 002c 6820     		mov	r0, #104
 603 002e 4021     		mov	r1, #64
 604 0030 FFF7FEFF 		bl	readI2CReg
 605 0034 031C     		mov	r3, r0
 606 0036 1C1C     		mov	r4, r3
 207:.\sensorFortolker.c ****             + ((int16_t) readI2CReg(IMU_ADDRESS, ACC_FIRST_DATA + 2)<<8);
 607              		.loc 1 207 0
 608 0038 6820     		mov	r0, #104
 609 003a 3F21     		mov	r1, #63
 610 003c FFF7FEFF 		bl	readI2CReg
 611 0040 031C     		mov	r3, r0
 206:.\sensorFortolker.c ****     int16 rawAccZ = readI2CReg(IMU_ADDRESS, ACC_FIRST_DATA+3) 
 612              		.loc 1 206 0
 613 0042 1B02     		lsl	r3, r3, #8
 614 0044 9BB2     		uxth	r3, r3
 615 0046 E318     		add	r3, r4, r3
 616 0048 9AB2     		uxth	r2, r3
 617 004a 3B1C     		mov	r3, r7
 618 004c 0C33     		add	r3, r3, #12
 619 004e 1A80     		strh	r2, [r3]
 208:.\sensorFortolker.c ****     //scale data and return it
 209:.\sensorFortolker.c ****     accData[0] = (fix16_t) rawAccY * ACC_SCALE_FACTOR; 
 620              		.loc 1 209 0
 621 0050 3B1C     		mov	r3, r7
 622 0052 0E33     		add	r3, r3, #14
 623 0054 0021     		mov	r1, #0
 624 0056 5B5E     		ldrsh	r3, [r3, r1]
 625 0058 DA00     		lsl	r2, r3, #3
 626 005a 7B68     		ldr	r3, [r7, #4]
 627 005c 1A60     		str	r2, [r3]
 210:.\sensorFortolker.c ****     accData[1] = (fix16_t) rawAccZ * ACC_SCALE_FACTOR;
 628              		.loc 1 210 0
 629 005e 7B68     		ldr	r3, [r7, #4]
 630 0060 0433     		add	r3, r3, #4
 631 0062 3A1C     		mov	r2, r7
 632 0064 0C32     		add	r2, r2, #12
 633 0066 0021     		mov	r1, #0
 634 0068 525E     		ldrsh	r2, [r2, r1]
 635 006a D200     		lsl	r2, r2, #3
 636 006c 1A60     		str	r2, [r3]
 211:.\sensorFortolker.c **** }
 637              		.loc 1 211 0
ARM GAS  C:\Users\Felix\AppData\Local\Temp\ccMaNilo.s 			page 16


 638 006e BD46     		mov	sp, r7
 639 0070 05B0     		add	sp, sp, #20
 640              		@ sp needed
 641 0072 90BD     		pop	{r4, r7, pc}
 642              		.cfi_endproc
 643              	.LFE40:
 644              		.size	readAccData, .-readAccData
 645              		.section	.text.gyroDataReadyInterrupt,"ax",%progbits
 646              		.align	2
 647              		.global	gyroDataReadyInterrupt
 648              		.code	16
 649              		.thumb_func
 650              		.type	gyroDataReadyInterrupt, %function
 651              	gyroDataReadyInterrupt:
 652              	.LFB41:
 212:.\sensorFortolker.c **** 
 213:.\sensorFortolker.c **** /* interrupt definitions */
 214:.\sensorFortolker.c **** 
 215:.\sensorFortolker.c **** //Data ready interrupt from sensor
 216:.\sensorFortolker.c **** CY_ISR(gyroDataReadyInterrupt)
 217:.\sensorFortolker.c **** {
 653              		.loc 1 217 0
 654              		.cfi_startproc
 655 0000 80B5     		push	{r7, lr}
 656              		.cfi_def_cfa_offset 8
 657              		.cfi_offset 7, -8
 658              		.cfi_offset 14, -4
 659 0002 00AF     		add	r7, sp, #0
 660              		.cfi_def_cfa_register 7
 218:.\sensorFortolker.c ****    //TODO: insert data interrupt code to improve data collection
 219:.\sensorFortolker.c **** }
 661              		.loc 1 219 0
 662 0004 BD46     		mov	sp, r7
 663              		@ sp needed
 664 0006 80BD     		pop	{r7, pc}
 665              		.cfi_endproc
 666              	.LFE41:
 667              		.size	gyroDataReadyInterrupt, .-gyroDataReadyInterrupt
 668              		.section	.text.EndstopGPIO,"ax",%progbits
 669              		.align	2
 670              		.global	EndstopGPIO
 671              		.code	16
 672              		.thumb_func
 673              		.type	EndstopGPIO, %function
 674              	EndstopGPIO:
 675              	.LFB42:
 220:.\sensorFortolker.c **** 
 221:.\sensorFortolker.c **** 
 222:.\sensorFortolker.c **** /* ISR Function EndstopGPIO
 223:.\sensorFortolker.c ****    Summary:
 224:.\sensorFortolker.c ****     ISR triggers on Endstop activation and sets endstop_ flag high
 225:.\sensorFortolker.c **** */
 226:.\sensorFortolker.c **** CY_ISR(EndstopGPIO)
 227:.\sensorFortolker.c **** {   
 676              		.loc 1 227 0
 677              		.cfi_startproc
 678 0000 80B5     		push	{r7, lr}
ARM GAS  C:\Users\Felix\AppData\Local\Temp\ccMaNilo.s 			page 17


 679              		.cfi_def_cfa_offset 8
 680              		.cfi_offset 7, -8
 681              		.cfi_offset 14, -4
 682 0002 00AF     		add	r7, sp, #0
 683              		.cfi_def_cfa_register 7
 228:.\sensorFortolker.c ****     endstop_ = 1;       
 684              		.loc 1 228 0
 685 0004 024B     		ldr	r3, .L29
 686 0006 0122     		mov	r2, #1
 687 0008 1A70     		strb	r2, [r3]
 229:.\sensorFortolker.c **** }
 688              		.loc 1 229 0
 689 000a BD46     		mov	sp, r7
 690              		@ sp needed
 691 000c 80BD     		pop	{r7, pc}
 692              	.L30:
 693 000e C046     		.align	2
 694              	.L29:
 695 0010 00000000 		.word	endstop_
 696              		.cfi_endproc
 697              	.LFE42:
 698              		.size	EndstopGPIO, .-EndstopGPIO
 699              		.text
 700              	.Letext0:
 701              		.file 2 "c:\\program files (x86)\\cypress\\psoc creator\\3.1\\psoc creator\\import\\gnu_cs\\arm\\4
 702              		.file 3 "c:\\program files (x86)\\cypress\\psoc creator\\3.1\\psoc creator\\import\\gnu_cs\\arm\\4
 703              		.file 4 ".\\Generated_Source\\PSoC4/cytypes.h"
 704              		.file 5 ".\\globals.h"
 705              		.file 6 ".\\fixedMath.h"