ARM GAS  C:\Users\Jeppe\AppData\Local\Temp\ccc0FcPc.s 			page 1


   1              		.cpu cortex-m0
   2              		.fpu softvfp
   3              		.eabi_attribute 20, 1
   4              		.eabi_attribute 21, 1
   5              		.eabi_attribute 23, 3
   6              		.eabi_attribute 24, 1
   7              		.eabi_attribute 25, 1
   8              		.eabi_attribute 26, 1
   9              		.eabi_attribute 30, 6
  10              		.eabi_attribute 34, 0
  11              		.eabi_attribute 18, 4
  12              		.code	16
  13              		.file	"vuggeControl.c"
  14              		.text
  15              	.Ltext0:
  16              		.cfi_sections	.debug_frame
  17              		.comm	I2CBuf,5,4
  18              		.comm	fixedPointReg_,4,4
  19              		.comm	reguleringsStatus_,4,4
  20              		.comm	going_up_,1,1
  21              		.comm	pwmSineAngle_,4,4
  22              		.comm	prevFrek,1,1
  23              		.comm	prevUdsving,1,1
  24              		.comm	angleInc,4,4
  25              		.comm	sineA,4,4
  26              		.comm	endstopStatusPtr_,4,4
  27              		.comm	reguleringsStatusPtr_,4,4
  28              		.comm	i2cPtr_,4,4
  29              		.global	ready
  30              		.bss
  31              		.type	ready, %object
  32              		.size	ready, 1
  33              	ready:
  34 0000 00       		.space	1
  35              		.section	.rodata
  36              		.align	2
  37              	.LC0:
  38 0000 57656C63 		.ascii	"Welcome senor Hofni\015\012\000"
  38      6F6D6520 
  38      73656E6F 
  38      7220486F 
  38      666E690D 
  39              		.section	.text.main,"ax",%progbits
  40              		.align	2
  41              		.global	main
  42              		.code	16
  43              		.thumb_func
  44              		.type	main, %function
  45              	main:
  46              	.LFB33:
  47              		.file 1 ".\\vuggeControl.c"
   1:.\vuggeControl.c **** /* ========================================
   2:.\vuggeControl.c ****  *
   3:.\vuggeControl.c ****  * Copyright Baby Watch, 2015
   4:.\vuggeControl.c ****  * All Rights Reserved
   5:.\vuggeControl.c ****  * UNPUBLISHED, LICENSED SOFTWARE.
   6:.\vuggeControl.c ****  *
ARM GAS  C:\Users\Jeppe\AppData\Local\Temp\ccc0FcPc.s 			page 2


   7:.\vuggeControl.c ****  * CONFIDENTIAL AND PROPRIETARY INFORMATION
   8:.\vuggeControl.c ****  * WHICH IS THE PROPERTY OF Baby Watch.
   9:.\vuggeControl.c ****  *
  10:.\vuggeControl.c ****  * ========================================
  11:.\vuggeControl.c **** */
  12:.\vuggeControl.c **** //========================================================================
  13:.\vuggeControl.c **** // FILENAME : vuggeControl.c
  14:.\vuggeControl.c **** // CREATED : 03-03-2015
  15:.\vuggeControl.c **** // AUTHOR  : Jeppe Hofni
  16:.\vuggeControl.c **** // DESCR.  : c file for PSoC4
  17:.\vuggeControl.c **** //
  18:.\vuggeControl.c **** //------------------------------------------------------------------------
  19:.\vuggeControl.c **** //
  20:.\vuggeControl.c **** // REV.  DATE/AUTHOR  CHANGE DESCRIPTION
  21:.\vuggeControl.c **** // 0.1  03-03-2015 - Jeppe - First writeup of vuggeControl.c
  22:.\vuggeControl.c **** // 0.2	17-04-2015 - Jeppe - I2C to Controller implemented, needstesting
  23:.\vuggeControl.c **** // 0.3	30-04-2015 - Jeppe - I2C tweeked and tested
  24:.\vuggeControl.c **** //------------------------------------------------------------------------
  25:.\vuggeControl.c **** // KNOWN ISSUES:
  26:.\vuggeControl.c **** // REV. - ISSUE(S)
  27:.\vuggeControl.c **** // 0.1 - Needs to be sorted proper
  28:.\vuggeControl.c **** // 0.2 - I2C needs testing, regulering needs finished implementation, sensorFortolker needs finishe
  29:.\vuggeControl.c **** // 0.3 - Regulering needs finished implementation, sensorFortolker needs finished implementation
  30:.\vuggeControl.c **** //========================================================================
  31:.\vuggeControl.c **** 
  32:.\vuggeControl.c **** // Includes
  33:.\vuggeControl.c **** #include <project.h>
  34:.\vuggeControl.c **** #include <stdio.h>
  35:.\vuggeControl.c **** #include <cytypes.h>
  36:.\vuggeControl.c **** #include "fixedMath.h"
  37:.\vuggeControl.c **** #include "i2cKommunikation.h"
  38:.\vuggeControl.c **** #include "sensorFortolker.h"
  39:.\vuggeControl.c **** #include "regulering.h"
  40:.\vuggeControl.c **** 
  41:.\vuggeControl.c **** // Attributes
  42:.\vuggeControl.c **** int* endstopStatusPtr_;
  43:.\vuggeControl.c **** int* reguleringsStatusPtr_;
  44:.\vuggeControl.c **** uint8* i2cPtr_;
  45:.\vuggeControl.c **** BOOL ready = FALSE;
  46:.\vuggeControl.c **** 
  47:.\vuggeControl.c **** // Prototype functions
  48:.\vuggeControl.c **** void initVuggesystem();
  49:.\vuggeControl.c **** void reguleringsStatus(void);
  50:.\vuggeControl.c **** void lukSystem(void);
  51:.\vuggeControl.c **** void checkOn_Off(void);
  52:.\vuggeControl.c **** void checkEndstop();
  53:.\vuggeControl.c **** void error(char* str);
  54:.\vuggeControl.c **** CY_ISR_PROTO(loopIsr);
  55:.\vuggeControl.c **** 
  56:.\vuggeControl.c **** 
  57:.\vuggeControl.c **** int main()
  58:.\vuggeControl.c **** {
  48              		.loc 1 58 0
  49              		.cfi_startproc
  50 0000 80B5     		push	{r7, lr}
  51              		.cfi_def_cfa_offset 8
  52              		.cfi_offset 7, -8
ARM GAS  C:\Users\Jeppe\AppData\Local\Temp\ccc0FcPc.s 			page 3


  53              		.cfi_offset 14, -4
  54 0002 82B0     		sub	sp, sp, #8
  55              		.cfi_def_cfa_offset 16
  56 0004 00AF     		add	r7, sp, #0
  57              		.cfi_def_cfa_register 7
  59:.\vuggeControl.c ****     initVuggesystem();
  58              		.loc 1 59 0
  59 0006 FFF7FEFF 		bl	initVuggesystem
  60:.\vuggeControl.c ****     CyGlobalIntEnable; // Global interrupts
  60              		.loc 1 60 0
  61              	@ 60 ".\vuggeControl.c" 1
  62 000a 62B6     		CPSIE   i
  63              	@ 0 "" 2
  61:.\vuggeControl.c ****     debugOut_PutString("Welcome senor Hofni\r\n");
  64              		.loc 1 61 0
  65              		.code	16
  66 000c 1A4B     		ldr	r3, .L4
  67 000e 181C     		mov	r0, r3
  68 0010 FFF7FEFF 		bl	debugOut_PutString
  69              	.L3:
  70              	.LBB2:
  62:.\vuggeControl.c ****     
  63:.\vuggeControl.c ****     
  64:.\vuggeControl.c ****     while(TRUE)
  65:.\vuggeControl.c ****     {
  66:.\vuggeControl.c ****         /* wait for the remainder of the loop period while  *
  67:.\vuggeControl.c ****          * exposing the idle period on the activity debug   *
  68:.\vuggeControl.c ****          * pin.                                             */
  69:.\vuggeControl.c ****         CyPins_ClearPin(activityDebug_0);  
  71              		.loc 1 69 0
  72 0014 194B     		ldr	r3, .L4+4
  73 0016 194A     		ldr	r2, .L4+4
  74 0018 1268     		ldr	r2, [r2]
  75 001a 0821     		mov	r1, #8
  76 001c 8A43     		bic	r2, r1
  77 001e 1A60     		str	r2, [r3]
  70:.\vuggeControl.c ****         while(!ready);
  78              		.loc 1 70 0
  79 0020 C046     		mov	r8, r8
  80              	.L2:
  81              		.loc 1 70 0 is_stmt 0 discriminator 1
  82 0022 174B     		ldr	r3, .L4+8
  83 0024 1B78     		ldrb	r3, [r3]
  84 0026 002B     		cmp	r3, #0
  85 0028 FBD0     		beq	.L2
  71:.\vuggeControl.c ****         CyPins_SetPin(activityDebug_0);
  86              		.loc 1 71 0 is_stmt 1
  87 002a 144B     		ldr	r3, .L4+4
  88 002c 134A     		ldr	r2, .L4+4
  89 002e 1268     		ldr	r2, [r2]
  90 0030 0821     		mov	r1, #8
  91 0032 0A43     		orr	r2, r1
  92 0034 1A60     		str	r2, [r3]
  72:.\vuggeControl.c ****         
  73:.\vuggeControl.c ****         //check systemm status
  74:.\vuggeControl.c ****         checkEndstop();
  93              		.loc 1 74 0
ARM GAS  C:\Users\Jeppe\AppData\Local\Temp\ccc0FcPc.s 			page 4


  94 0036 FFF7FEFF 		bl	checkEndstop
  75:.\vuggeControl.c ****         checkOn_Off();
  95              		.loc 1 75 0
  96 003a FFF7FEFF 		bl	checkOn_Off
  76:.\vuggeControl.c ****         //update the target parameters
  77:.\vuggeControl.c ****         updateRegParameter(I2CBuf[I2C_FREK_REG], I2CBuf[I2C_VINK_REG]);
  97              		.loc 1 77 0
  98 003e 114B     		ldr	r3, .L4+12
  99 0040 9A78     		ldrb	r2, [r3, #2]
 100 0042 104B     		ldr	r3, .L4+12
 101 0044 DB78     		ldrb	r3, [r3, #3]
 102 0046 101C     		mov	r0, r2
 103 0048 191C     		mov	r1, r3
 104 004a FFF7FEFF 		bl	updateRegParameter
  78:.\vuggeControl.c ****         //calculate correction from sensor input
  79:.\vuggeControl.c ****         fix16_t angle = getVuggeUdsvingSens();
 105              		.loc 1 79 0
 106 004e FFF7FEFF 		bl	getVuggeUdsvingSens
 107 0052 031C     		mov	r3, r0
 108 0054 7B60     		str	r3, [r7, #4]
  80:.\vuggeControl.c **** //        char str[30];
  81:.\vuggeControl.c **** //        sprintf(str, "%d, ", angle);
  82:.\vuggeControl.c **** //        debugOut_PutString(str);
  83:.\vuggeControl.c ****         fix16_t C = beregnRegulering(angle);
 109              		.loc 1 83 0
 110 0056 7B68     		ldr	r3, [r7, #4]
 111 0058 181C     		mov	r0, r3
 112 005a FFF7FEFF 		bl	beregnRegulering
 113 005e 031C     		mov	r3, r0
 114 0060 3B60     		str	r3, [r7]
  84:.\vuggeControl.c ****         //updaten motor output
  85:.\vuggeControl.c ****         PWMStyring(C);
 115              		.loc 1 85 0
 116 0062 3B68     		ldr	r3, [r7]
 117 0064 181C     		mov	r0, r3
 118 0066 FFF7FEFF 		bl	PWMStyring
  86:.\vuggeControl.c ****         //check for successful control output
  87:.\vuggeControl.c ****         reguleringsStatus();
 119              		.loc 1 87 0
 120 006a FFF7FEFF 		bl	reguleringsStatus
  88:.\vuggeControl.c ****         
  89:.\vuggeControl.c ****         //set waiting flag to false
  90:.\vuggeControl.c ****         ready = FALSE;
 121              		.loc 1 90 0
 122 006e 044B     		ldr	r3, .L4+8
 123 0070 0022     		mov	r2, #0
 124 0072 1A70     		strb	r2, [r3]
 125              	.LBE2:
  91:.\vuggeControl.c ****     }
 126              		.loc 1 91 0
 127 0074 CEE7     		b	.L3
 128              	.L5:
 129 0076 C046     		.align	2
 130              	.L4:
 131 0078 00000000 		.word	.LC0
 132 007c 00000440 		.word	1074003968
 133 0080 00000000 		.word	ready
ARM GAS  C:\Users\Jeppe\AppData\Local\Temp\ccc0FcPc.s 			page 5


 134 0084 00000000 		.word	I2CBuf
 135              		.cfi_endproc
 136              	.LFE33:
 137              		.size	main, .-main
 138              		.section	.text.initVuggesystem,"ax",%progbits
 139              		.align	2
 140              		.global	initVuggesystem
 141              		.code	16
 142              		.thumb_func
 143              		.type	initVuggesystem, %function
 144              	initVuggesystem:
 145              	.LFB34:
  92:.\vuggeControl.c **** }
  93:.\vuggeControl.c **** 
  94:.\vuggeControl.c **** void initVuggesystem()
  95:.\vuggeControl.c **** {   
 146              		.loc 1 95 0
 147              		.cfi_startproc
 148 0000 80B5     		push	{r7, lr}
 149              		.cfi_def_cfa_offset 8
 150              		.cfi_offset 7, -8
 151              		.cfi_offset 14, -4
 152 0002 00AF     		add	r7, sp, #0
 153              		.cfi_def_cfa_register 7
  96:.\vuggeControl.c ****     debugOut_Start();
 154              		.loc 1 96 0
 155 0004 FFF7FEFF 		bl	debugOut_Start
  97:.\vuggeControl.c ****         
  98:.\vuggeControl.c ****     //Start components
  99:.\vuggeControl.c ****     loopTimer_Start();
 156              		.loc 1 99 0
 157 0008 FFF7FEFF 		bl	loopTimer_Start
 100:.\vuggeControl.c ****     loop_isr_StartEx(loopIsr);
 158              		.loc 1 100 0
 159 000c 0A4B     		ldr	r3, .L7
 160 000e 181C     		mov	r0, r3
 161 0010 FFF7FEFF 		bl	loop_isr_StartEx
 101:.\vuggeControl.c ****     
 102:.\vuggeControl.c ****     //start sensors
 103:.\vuggeControl.c ****     initSensors(); 
 162              		.loc 1 103 0
 163 0014 FFF7FEFF 		bl	initSensors
 104:.\vuggeControl.c ****     
 105:.\vuggeControl.c ****     //start controller I2C connection
 106:.\vuggeControl.c ****     initI2C();
 164              		.loc 1 106 0
 165 0018 FFF7FEFF 		bl	initI2C
 107:.\vuggeControl.c ****     i2cPtr_ = sendConKom();
 166              		.loc 1 107 0
 167 001c FFF7FEFF 		bl	sendConKom
 168 0020 021C     		mov	r2, r0
 169 0022 064B     		ldr	r3, .L7+4
 170 0024 1A60     		str	r2, [r3]
 108:.\vuggeControl.c ****     
 109:.\vuggeControl.c ****     //start regulering
 110:.\vuggeControl.c ****     initRegulering();
 171              		.loc 1 110 0
ARM GAS  C:\Users\Jeppe\AppData\Local\Temp\ccc0FcPc.s 			page 6


 172 0026 FFF7FEFF 		bl	initRegulering
 111:.\vuggeControl.c ****     reguleringsStatusPtr_ = getReguleringsStatus();
 173              		.loc 1 111 0
 174 002a FFF7FEFF 		bl	getReguleringsStatus
 175 002e 021C     		mov	r2, r0
 176 0030 034B     		ldr	r3, .L7+8
 177 0032 1A60     		str	r2, [r3]
 112:.\vuggeControl.c **** }
 178              		.loc 1 112 0
 179 0034 BD46     		mov	sp, r7
 180              		@ sp needed
 181 0036 80BD     		pop	{r7, pc}
 182              	.L8:
 183              		.align	2
 184              	.L7:
 185 0038 00000000 		.word	loopIsr
 186 003c 00000000 		.word	i2cPtr_
 187 0040 00000000 		.word	reguleringsStatusPtr_
 188              		.cfi_endproc
 189              	.LFE34:
 190              		.size	initVuggesystem, .-initVuggesystem
 191              		.section	.text.reguleringsStatus,"ax",%progbits
 192              		.align	2
 193              		.global	reguleringsStatus
 194              		.code	16
 195              		.thumb_func
 196              		.type	reguleringsStatus, %function
 197              	reguleringsStatus:
 198              	.LFB35:
 113:.\vuggeControl.c **** 
 114:.\vuggeControl.c **** 
 115:.\vuggeControl.c **** /* Function Name: reguleringsStatus
 116:.\vuggeControl.c ****    Summary:
 117:.\vuggeControl.c ****     Checks for error and sets the I2CTxReg[1] with regStatus error message. ERR = 0b10000000(128_de
 118:.\vuggeControl.c **** */
 119:.\vuggeControl.c **** void reguleringsStatus()
 120:.\vuggeControl.c **** {
 199              		.loc 1 120 0
 200              		.cfi_startproc
 201 0000 80B5     		push	{r7, lr}
 202              		.cfi_def_cfa_offset 8
 203              		.cfi_offset 7, -8
 204              		.cfi_offset 14, -4
 205 0002 82B0     		sub	sp, sp, #8
 206              		.cfi_def_cfa_offset 16
 207 0004 00AF     		add	r7, sp, #0
 208              		.cfi_def_cfa_register 7
 121:.\vuggeControl.c ****     int reguleringsStatus = *reguleringsStatusPtr_;
 209              		.loc 1 121 0
 210 0006 094B     		ldr	r3, .L11
 211 0008 1B68     		ldr	r3, [r3]
 212 000a 1B68     		ldr	r3, [r3]
 213 000c 7B60     		str	r3, [r7, #4]
 122:.\vuggeControl.c ****     if(reguleringsStatus > 1)
 214              		.loc 1 122 0
 215 000e 7B68     		ldr	r3, [r7, #4]
 216 0010 012B     		cmp	r3, #1
ARM GAS  C:\Users\Jeppe\AppData\Local\Temp\ccc0FcPc.s 			page 7


 217 0012 07DD     		ble	.L9
 123:.\vuggeControl.c ****     {  
 124:.\vuggeControl.c ****         i2cPtr_[4] = reguleringsStatus;
 218              		.loc 1 124 0
 219 0014 064B     		ldr	r3, .L11+4
 220 0016 1B68     		ldr	r3, [r3]
 221 0018 0433     		add	r3, r3, #4
 222 001a 7A68     		ldr	r2, [r7, #4]
 223 001c D2B2     		uxtb	r2, r2
 224 001e 1A70     		strb	r2, [r3]
 125:.\vuggeControl.c ****         lukSystem();
 225              		.loc 1 125 0
 226 0020 FFF7FEFF 		bl	lukSystem
 227              	.L9:
 126:.\vuggeControl.c ****     }
 127:.\vuggeControl.c ****     
 128:.\vuggeControl.c **** }
 228              		.loc 1 128 0
 229 0024 BD46     		mov	sp, r7
 230 0026 02B0     		add	sp, sp, #8
 231              		@ sp needed
 232 0028 80BD     		pop	{r7, pc}
 233              	.L12:
 234 002a C046     		.align	2
 235              	.L11:
 236 002c 00000000 		.word	reguleringsStatusPtr_
 237 0030 00000000 		.word	i2cPtr_
 238              		.cfi_endproc
 239              	.LFE35:
 240              		.size	reguleringsStatus, .-reguleringsStatus
 241              		.section	.text.lukSystem,"ax",%progbits
 242              		.align	2
 243              		.global	lukSystem
 244              		.code	16
 245              		.thumb_func
 246              		.type	lukSystem, %function
 247              	lukSystem:
 248              	.LFB36:
 129:.\vuggeControl.c **** 
 130:.\vuggeControl.c **** /* Function Name: lukSystem
 131:.\vuggeControl.c ****    Summary:
 132:.\vuggeControl.c ****    Stops and closes all motor control operation  
 133:.\vuggeControl.c **** */
 134:.\vuggeControl.c **** void lukSystem()
 135:.\vuggeControl.c **** {  
 249              		.loc 1 135 0
 250              		.cfi_startproc
 251 0000 80B5     		push	{r7, lr}
 252              		.cfi_def_cfa_offset 8
 253              		.cfi_offset 7, -8
 254              		.cfi_offset 14, -4
 255 0002 00AF     		add	r7, sp, #0
 256              		.cfi_def_cfa_register 7
 136:.\vuggeControl.c ****     // Set some pin LOW to shutdown motorcircuit??
 137:.\vuggeControl.c **** 
 138:.\vuggeControl.c **** }
 257              		.loc 1 138 0
ARM GAS  C:\Users\Jeppe\AppData\Local\Temp\ccc0FcPc.s 			page 8


 258 0004 BD46     		mov	sp, r7
 259              		@ sp needed
 260 0006 80BD     		pop	{r7, pc}
 261              		.cfi_endproc
 262              	.LFE36:
 263              		.size	lukSystem, .-lukSystem
 264              		.section	.text.checkOn_Off,"ax",%progbits
 265              		.align	2
 266              		.global	checkOn_Off
 267              		.code	16
 268              		.thumb_func
 269              		.type	checkOn_Off, %function
 270              	checkOn_Off:
 271              	.LFB37:
 139:.\vuggeControl.c **** 
 140:.\vuggeControl.c **** /* Function Name: checkOn_Off
 141:.\vuggeControl.c ****    Summary:
 142:.\vuggeControl.c ****    Checks i2cBuffer reg 4 for shutdown indicator 0x0f and signals Ready for shutdown 
 143:.\vuggeControl.c **** */
 144:.\vuggeControl.c **** void checkOn_Off()
 145:.\vuggeControl.c **** {  
 272              		.loc 1 145 0
 273              		.cfi_startproc
 274 0000 80B5     		push	{r7, lr}
 275              		.cfi_def_cfa_offset 8
 276              		.cfi_offset 7, -8
 277              		.cfi_offset 14, -4
 278 0002 82B0     		sub	sp, sp, #8
 279              		.cfi_def_cfa_offset 16
 280 0004 00AF     		add	r7, sp, #0
 281              		.cfi_def_cfa_register 7
 146:.\vuggeControl.c ****     uint8 shutdown = i2cPtr_[1];
 282              		.loc 1 146 0
 283 0006 084B     		ldr	r3, .L16
 284 0008 1A68     		ldr	r2, [r3]
 285 000a FB1D     		add	r3, r7, #7
 286 000c 5278     		ldrb	r2, [r2, #1]
 287 000e 1A70     		strb	r2, [r3]
 147:.\vuggeControl.c ****     if(shutdown == 0x0f)
 288              		.loc 1 147 0
 289 0010 FB1D     		add	r3, r7, #7
 290 0012 1B78     		ldrb	r3, [r3]
 291 0014 0F2B     		cmp	r3, #15
 292 0016 04D1     		bne	.L14
 148:.\vuggeControl.c ****     {  
 149:.\vuggeControl.c ****         // Set some pin LOW to shutdown motorcircuit??
 150:.\vuggeControl.c ****         //UART_1_UartPutString("\n\n\nShutdown ready!!!!\n\n\n"); // For debugging purpose
 151:.\vuggeControl.c ****         i2cPtr_[4] = 0b00010000;
 293              		.loc 1 151 0
 294 0018 034B     		ldr	r3, .L16
 295 001a 1B68     		ldr	r3, [r3]
 296 001c 0433     		add	r3, r3, #4
 297 001e 1022     		mov	r2, #16
 298 0020 1A70     		strb	r2, [r3]
 299              	.L14:
 152:.\vuggeControl.c ****     }
 153:.\vuggeControl.c **** }
ARM GAS  C:\Users\Jeppe\AppData\Local\Temp\ccc0FcPc.s 			page 9


 300              		.loc 1 153 0
 301 0022 BD46     		mov	sp, r7
 302 0024 02B0     		add	sp, sp, #8
 303              		@ sp needed
 304 0026 80BD     		pop	{r7, pc}
 305              	.L17:
 306              		.align	2
 307              	.L16:
 308 0028 00000000 		.word	i2cPtr_
 309              		.cfi_endproc
 310              	.LFE37:
 311              		.size	checkOn_Off, .-checkOn_Off
 312              		.section	.text.checkEndstop,"ax",%progbits
 313              		.align	2
 314              		.global	checkEndstop
 315              		.code	16
 316              		.thumb_func
 317              		.type	checkEndstop, %function
 318              	checkEndstop:
 319              	.LFB38:
 154:.\vuggeControl.c **** 
 155:.\vuggeControl.c **** /* Function Name: checkEndstop
 156:.\vuggeControl.c ****    Summary:
 157:.\vuggeControl.c ****     Checks enstopstatus. If TRUE set statusPTR to error message: END_STP = 0b10100000 (160_dec A0_h
 158:.\vuggeControl.c **** */
 159:.\vuggeControl.c **** void checkEndstop()
 160:.\vuggeControl.c **** {
 320              		.loc 1 160 0
 321              		.cfi_startproc
 322 0000 80B5     		push	{r7, lr}
 323              		.cfi_def_cfa_offset 8
 324              		.cfi_offset 7, -8
 325              		.cfi_offset 14, -4
 326 0002 00AF     		add	r7, sp, #0
 327              		.cfi_def_cfa_register 7
 161:.\vuggeControl.c ****     
 162:.\vuggeControl.c ****     if(getEndstopGPIO() == TRUE)
 328              		.loc 1 162 0
 329 0004 FFF7FEFF 		bl	getEndstopGPIO
 330 0008 031C     		mov	r3, r0
 331 000a 012B     		cmp	r3, #1
 332 000c 09D1     		bne	.L18
 163:.\vuggeControl.c ****     {  
 164:.\vuggeControl.c ****         //UART_1_UartPutString("\n\n\nENDSTOP!!!!\n\n\n"); // For debugging purpose
 165:.\vuggeControl.c ****         i2cPtr_[4] = 0b10100000;
 333              		.loc 1 165 0
 334 000e 064B     		ldr	r3, .L20
 335 0010 1B68     		ldr	r3, [r3]
 336 0012 0433     		add	r3, r3, #4
 337 0014 A022     		mov	r2, #160
 338 0016 1A70     		strb	r2, [r3]
 166:.\vuggeControl.c ****         endstopStatusPtr_ = 0;
 339              		.loc 1 166 0
 340 0018 044B     		ldr	r3, .L20+4
 341 001a 0022     		mov	r2, #0
 342 001c 1A60     		str	r2, [r3]
 167:.\vuggeControl.c ****         lukSystem();
ARM GAS  C:\Users\Jeppe\AppData\Local\Temp\ccc0FcPc.s 			page 10


 343              		.loc 1 167 0
 344 001e FFF7FEFF 		bl	lukSystem
 345              	.L18:
 168:.\vuggeControl.c ****     }
 169:.\vuggeControl.c **** }
 346              		.loc 1 169 0
 347 0022 BD46     		mov	sp, r7
 348              		@ sp needed
 349 0024 80BD     		pop	{r7, pc}
 350              	.L21:
 351 0026 C046     		.align	2
 352              	.L20:
 353 0028 00000000 		.word	i2cPtr_
 354 002c 00000000 		.word	endstopStatusPtr_
 355              		.cfi_endproc
 356              	.LFE38:
 357              		.size	checkEndstop, .-checkEndstop
 358              		.section	.rodata
 359 0016 0000     		.align	2
 360              	.LC13:
 361 0018 4F766572 		.ascii	"Overflow!\000"
 361      666C6F77 
 361      2100
 362 0022 0000     		.section	.text.loopIsr,"ax",%progbits
 363              		.align	2
 364              		.global	loopIsr
 365              		.code	16
 366              		.thumb_func
 367              		.type	loopIsr, %function
 368              	loopIsr:
 369              	.LFB39:
 170:.\vuggeControl.c **** 
 171:.\vuggeControl.c **** CY_ISR(loopIsr)
 172:.\vuggeControl.c **** {
 370              		.loc 1 172 0
 371              		.cfi_startproc
 372 0000 80B5     		push	{r7, lr}
 373              		.cfi_def_cfa_offset 8
 374              		.cfi_offset 7, -8
 375              		.cfi_offset 14, -4
 376 0002 00AF     		add	r7, sp, #0
 377              		.cfi_def_cfa_register 7
 173:.\vuggeControl.c ****     if(ready == TRUE) error("Overflow!");
 378              		.loc 1 173 0
 379 0004 064B     		ldr	r3, .L24
 380 0006 1B78     		ldrb	r3, [r3]
 381 0008 012B     		cmp	r3, #1
 382 000a 03D1     		bne	.L23
 383              		.loc 1 173 0 is_stmt 0 discriminator 1
 384 000c 054B     		ldr	r3, .L24+4
 385 000e 181C     		mov	r0, r3
 386 0010 FFF7FEFF 		bl	error
 387              	.L23:
 174:.\vuggeControl.c ****     ready = TRUE;
 388              		.loc 1 174 0 is_stmt 1
 389 0014 024B     		ldr	r3, .L24
 390 0016 0122     		mov	r2, #1
ARM GAS  C:\Users\Jeppe\AppData\Local\Temp\ccc0FcPc.s 			page 11


 391 0018 1A70     		strb	r2, [r3]
 175:.\vuggeControl.c **** }
 392              		.loc 1 175 0
 393 001a BD46     		mov	sp, r7
 394              		@ sp needed
 395 001c 80BD     		pop	{r7, pc}
 396              	.L25:
 397 001e C046     		.align	2
 398              	.L24:
 399 0020 00000000 		.word	ready
 400 0024 18000000 		.word	.LC13
 401              		.cfi_endproc
 402              	.LFE39:
 403              		.size	loopIsr, .-loopIsr
 404              		.section	.text.error,"ax",%progbits
 405              		.align	2
 406              		.global	error
 407              		.code	16
 408              		.thumb_func
 409              		.type	error, %function
 410              	error:
 411              	.LFB40:
 176:.\vuggeControl.c **** 
 177:.\vuggeControl.c **** void error(char* str)
 178:.\vuggeControl.c **** {
 412              		.loc 1 178 0
 413              		.cfi_startproc
 414 0000 80B5     		push	{r7, lr}
 415              		.cfi_def_cfa_offset 8
 416              		.cfi_offset 7, -8
 417              		.cfi_offset 14, -4
 418 0002 82B0     		sub	sp, sp, #8
 419              		.cfi_def_cfa_offset 16
 420 0004 00AF     		add	r7, sp, #0
 421              		.cfi_def_cfa_register 7
 422 0006 7860     		str	r0, [r7, #4]
 179:.\vuggeControl.c ****     debugOut_PutString(str);    
 423              		.loc 1 179 0
 424 0008 7B68     		ldr	r3, [r7, #4]
 425 000a 181C     		mov	r0, r3
 426 000c FFF7FEFF 		bl	debugOut_PutString
 427              	.L27:
 180:.\vuggeControl.c ****     while(TRUE);
 428              		.loc 1 180 0 discriminator 1
 429 0010 FEE7     		b	.L27
 430              		.cfi_endproc
 431              	.LFE40:
 432              		.size	error, .-error
 433 0012 C046     		.text
 434              	.Letext0:
 435              		.file 2 "c:\\program files (x86)\\cypress\\psoc creator\\3.1\\psoc creator\\import\\gnu_cs\\arm\\4
 436              		.file 3 "c:\\program files (x86)\\cypress\\psoc creator\\3.1\\psoc creator\\import\\gnu_cs\\arm\\4
 437              		.file 4 ".\\Generated_Source\\PSoC4/cytypes.h"
 438              		.file 5 ".\\fixedMath.h"
 439              		.file 6 ".\\globals.h"
 440              		.file 7 ".\\i2cKommunikation.h"
 441              		.file 8 ".\\regulering.h"
ARM GAS  C:\Users\Jeppe\AppData\Local\Temp\ccc0FcPc.s 			page 12

