ARM GAS  C:\Users\Felix\AppData\Local\Temp\ccdIYjgy.s 			page 1


   1              		.cpu cortex-m0
   2              		.fpu softvfp
   3              		.eabi_attribute 20, 1
   4              		.eabi_attribute 21, 1
   5              		.eabi_attribute 23, 3
   6              		.eabi_attribute 24, 1
   7              		.eabi_attribute 25, 1
   8              		.eabi_attribute 26, 1
   9              		.eabi_attribute 30, 6
  10              		.eabi_attribute 34, 0
  11              		.eabi_attribute 18, 4
  12              		.code	16
  13              		.file	"fix16_exp.c"
  14              		.text
  15              	.Ltext0:
  16              		.cfi_sections	.debug_frame
  17              		.section	.rodata
  18              		.align	2
  19              		.type	FOUR_DIV_PI, %object
  20              		.size	FOUR_DIV_PI, 4
  21              	FOUR_DIV_PI:
  22 0000 F3450100 		.word	83443
  23              		.align	2
  24              		.type	_FOUR_DIV_PI2, %object
  25              		.size	_FOUR_DIV_PI2, 4
  26              	_FOUR_DIV_PI2:
  27 0004 4098FFFF 		.word	-26560
  28              		.align	2
  29              		.type	X4_CORRECTION_COMPONENT, %object
  30              		.size	X4_CORRECTION_COMPONENT, 4
  31              	X4_CORRECTION_COMPONENT:
  32 0008 9A390000 		.word	14746
  33              		.align	2
  34              		.type	PI_DIV_4, %object
  35              		.size	PI_DIV_4, 4
  36              	PI_DIV_4:
  37 000c 0FC90000 		.word	51471
  38              		.align	2
  39              		.type	THREE_PI_DIV_4, %object
  40              		.size	THREE_PI_DIV_4, 4
  41              	THREE_PI_DIV_4:
  42 0010 2F5B0200 		.word	154415
  43              		.align	2
  44              		.type	fix16_max, %object
  45              		.size	fix16_max, 4
  46              	fix16_max:
  47 0014 FFFFFF7F 		.word	2147483647
  48              		.align	2
  49              		.type	fix16_min, %object
  50              		.size	fix16_min, 4
  51              	fix16_min:
  52 0018 00000080 		.word	-2147483648
  53              		.align	2
  54              		.type	fix16_overflow, %object
  55              		.size	fix16_overflow, 4
  56              	fix16_overflow:
  57 001c 00000080 		.word	-2147483648
ARM GAS  C:\Users\Felix\AppData\Local\Temp\ccdIYjgy.s 			page 2


  58              		.align	2
  59              		.type	fix16_pi, %object
  60              		.size	fix16_pi, 4
  61              	fix16_pi:
  62 0020 3F240300 		.word	205887
  63              		.align	2
  64              		.type	fix16_e, %object
  65              		.size	fix16_e, 4
  66              	fix16_e:
  67 0024 E1B70200 		.word	178145
  68              		.align	2
  69              		.type	fix16_one, %object
  70              		.size	fix16_one, 4
  71              	fix16_one:
  72 0028 00000100 		.word	65536
  73              		.bss
  74              		.align	2
  75              	_fix16_exp_cache_index:
  76 0000 00000000 		.space	16384
  76      00000000 
  76      00000000 
  76      00000000 
  76      00000000 
  77              		.align	2
  78              	_fix16_exp_cache_value:
  79 4000 00000000 		.space	16384
  79      00000000 
  79      00000000 
  79      00000000 
  79      00000000 
  80              		.section	.text.fix16_exp,"ax",%progbits
  81              		.align	2
  82              		.global	fix16_exp
  83              		.code	16
  84              		.thumb_func
  85              		.type	fix16_exp, %function
  86              	fix16_exp:
  87              	.LFB6:
  88              		.file 1 ".\\libfixmath\\fix16_exp.c"
   1:.\libfixmath/fix16_exp.c **** #include "fix16.h"
   2:.\libfixmath/fix16_exp.c **** 
   3:.\libfixmath/fix16_exp.c **** 
   4:.\libfixmath/fix16_exp.c **** #ifndef FIXMATH_NO_CACHE
   5:.\libfixmath/fix16_exp.c **** static fix16_t _fix16_exp_cache_index[4096]  = { 0 };
   6:.\libfixmath/fix16_exp.c **** static fix16_t _fix16_exp_cache_value[4096]  = { 0 };
   7:.\libfixmath/fix16_exp.c **** #endif
   8:.\libfixmath/fix16_exp.c **** 
   9:.\libfixmath/fix16_exp.c **** 
  10:.\libfixmath/fix16_exp.c **** 
  11:.\libfixmath/fix16_exp.c **** fix16_t fix16_exp(fix16_t inValue) {
  89              		.loc 1 11 0
  90              		.cfi_startproc
  91 0000 90B5     		push	{r4, r7, lr}
  92              		.cfi_def_cfa_offset 12
  93              		.cfi_offset 4, -12
  94              		.cfi_offset 7, -8
  95              		.cfi_offset 14, -4
ARM GAS  C:\Users\Felix\AppData\Local\Temp\ccdIYjgy.s 			page 3


  96 0002 8BB0     		sub	sp, sp, #44
  97              		.cfi_def_cfa_offset 56
  98 0004 00AF     		add	r7, sp, #0
  99              		.cfi_def_cfa_register 7
 100 0006 7860     		str	r0, [r7, #4]
  12:.\libfixmath/fix16_exp.c **** 	if(inValue == 0)
 101              		.loc 1 12 0
 102 0008 7B68     		ldr	r3, [r7, #4]
 103 000a 002B     		cmp	r3, #0
 104 000c 02D1     		bne	.L2
  13:.\libfixmath/fix16_exp.c **** 		return fix16_one;
 105              		.loc 1 13 0
 106 000e 8023     		mov	r3, #128
 107 0010 5B02     		lsl	r3, r3, #9
 108 0012 A5E0     		b	.L3
 109              	.L2:
  14:.\libfixmath/fix16_exp.c **** 	if(inValue == fix16_one)
 110              		.loc 1 14 0
 111 0014 8023     		mov	r3, #128
 112 0016 5B02     		lsl	r3, r3, #9
 113 0018 7A68     		ldr	r2, [r7, #4]
 114 001a 9A42     		cmp	r2, r3
 115 001c 01D1     		bne	.L4
  15:.\libfixmath/fix16_exp.c **** 		return fix16_e;
 116              		.loc 1 15 0
 117 001e 524B     		ldr	r3, .L10
 118 0020 9EE0     		b	.L3
 119              	.L4:
  16:.\libfixmath/fix16_exp.c **** 	if(inValue > 681391)
 120              		.loc 1 16 0
 121 0022 7A68     		ldr	r2, [r7, #4]
 122 0024 514B     		ldr	r3, .L10+4
 123 0026 9A42     		cmp	r2, r3
 124 0028 01DD     		ble	.L5
  17:.\libfixmath/fix16_exp.c **** 		return fix16_max;
 125              		.loc 1 17 0
 126 002a 514B     		ldr	r3, .L10+8
 127 002c 98E0     		b	.L3
 128              	.L5:
  18:.\libfixmath/fix16_exp.c **** 	if(inValue < -726817)
 129              		.loc 1 18 0
 130 002e 7A68     		ldr	r2, [r7, #4]
 131 0030 504B     		ldr	r3, .L10+12
 132 0032 9A42     		cmp	r2, r3
 133 0034 01DA     		bge	.L6
  19:.\libfixmath/fix16_exp.c **** 		return 0;
 134              		.loc 1 19 0
 135 0036 0023     		mov	r3, #0
 136 0038 92E0     		b	.L3
 137              	.L6:
  20:.\libfixmath/fix16_exp.c **** 
  21:.\libfixmath/fix16_exp.c **** 	#ifndef FIXMATH_NO_CACHE
  22:.\libfixmath/fix16_exp.c **** 	fix16_t tempIndex = (inValue ^ (inValue >> 16));
 138              		.loc 1 22 0
 139 003a 7B68     		ldr	r3, [r7, #4]
 140 003c 1A14     		asr	r2, r3, #16
 141 003e 7B68     		ldr	r3, [r7, #4]
ARM GAS  C:\Users\Felix\AppData\Local\Temp\ccdIYjgy.s 			page 4


 142 0040 5340     		eor	r3, r2
 143 0042 FB60     		str	r3, [r7, #12]
  23:.\libfixmath/fix16_exp.c **** 	tempIndex = (inValue ^ (inValue >> 4)) & 0x0FFF;
 144              		.loc 1 23 0
 145 0044 7B68     		ldr	r3, [r7, #4]
 146 0046 1A11     		asr	r2, r3, #4
 147 0048 7B68     		ldr	r3, [r7, #4]
 148 004a 5340     		eor	r3, r2
 149 004c 1B05     		lsl	r3, r3, #20
 150 004e 1B0D     		lsr	r3, r3, #20
 151 0050 FB60     		str	r3, [r7, #12]
  24:.\libfixmath/fix16_exp.c **** 	if(_fix16_exp_cache_index[tempIndex] == inValue)
 152              		.loc 1 24 0
 153 0052 494B     		ldr	r3, .L10+16
 154 0054 FA68     		ldr	r2, [r7, #12]
 155 0056 9200     		lsl	r2, r2, #2
 156 0058 D258     		ldr	r2, [r2, r3]
 157 005a 7B68     		ldr	r3, [r7, #4]
 158 005c 9A42     		cmp	r2, r3
 159 005e 04D1     		bne	.L7
  25:.\libfixmath/fix16_exp.c **** 		return _fix16_exp_cache_value[tempIndex];
 160              		.loc 1 25 0
 161 0060 464B     		ldr	r3, .L10+20
 162 0062 FA68     		ldr	r2, [r7, #12]
 163 0064 9200     		lsl	r2, r2, #2
 164 0066 D358     		ldr	r3, [r2, r3]
 165 0068 7AE0     		b	.L3
 166              	.L7:
  26:.\libfixmath/fix16_exp.c **** 	#endif
  27:.\libfixmath/fix16_exp.c **** 
  28:.\libfixmath/fix16_exp.c **** 	int64_t tempOut = int64_add(int64_from_int32(fix16_one), int64_from_int32(inValue));
 167              		.loc 1 28 0
 168 006a 8023     		mov	r3, #128
 169 006c 5B02     		lsl	r3, r3, #9
 170 006e 181C     		mov	r0, r3
 171 0070 FFF7FEFF 		bl	int64_from_int32
 172 0074 041C     		mov	r4, r0
 173 0076 7B68     		ldr	r3, [r7, #4]
 174 0078 181C     		mov	r0, r3
 175 007a FFF7FEFF 		bl	int64_from_int32
 176 007e 031C     		mov	r3, r0
 177 0080 201C     		mov	r0, r4
 178 0082 191C     		mov	r1, r3
 179 0084 FFF7FEFF 		bl	int64_add
 180 0088 031C     		mov	r3, r0
 181 008a 3B62     		str	r3, [r7, #32]
 182 008c DB17     		asr	r3, r3, #31
 183 008e 7B62     		str	r3, [r7, #36]
  29:.\libfixmath/fix16_exp.c **** 	int64_t tempValue = int64_from_int32(inValue);
 184              		.loc 1 29 0
 185 0090 7B68     		ldr	r3, [r7, #4]
 186 0092 181C     		mov	r0, r3
 187 0094 FFF7FEFF 		bl	int64_from_int32
 188 0098 031C     		mov	r3, r0
 189 009a BB61     		str	r3, [r7, #24]
 190 009c DB17     		asr	r3, r3, #31
 191 009e FB61     		str	r3, [r7, #28]
ARM GAS  C:\Users\Felix\AppData\Local\Temp\ccdIYjgy.s 			page 5


  30:.\libfixmath/fix16_exp.c **** 	uint32_t i, n;
  31:.\libfixmath/fix16_exp.c **** 	for(i = 3, n = 2; i < 13; n *= i, i++) {
 192              		.loc 1 31 0
 193 00a0 0323     		mov	r3, #3
 194 00a2 7B61     		str	r3, [r7, #20]
 195 00a4 0223     		mov	r3, #2
 196 00a6 3B61     		str	r3, [r7, #16]
 197 00a8 40E0     		b	.L8
 198              	.L9:
 199              	.LBB2:
  32:.\libfixmath/fix16_exp.c **** 		tempValue = int64_mul_i64_i32(tempValue, inValue);
 200              		.loc 1 32 0 discriminator 2
 201 00aa BB69     		ldr	r3, [r7, #24]
 202 00ac FC69     		ldr	r4, [r7, #28]
 203 00ae 7A68     		ldr	r2, [r7, #4]
 204 00b0 181C     		mov	r0, r3
 205 00b2 211C     		mov	r1, r4
 206 00b4 FFF7FEFF 		bl	int64_mul_i64_i32
 207 00b8 031C     		mov	r3, r0
 208 00ba BB61     		str	r3, [r7, #24]
 209 00bc DB17     		asr	r3, r3, #31
 210 00be FB61     		str	r3, [r7, #28]
  33:.\libfixmath/fix16_exp.c **** 		#ifndef FIXMATH_NO_ROUNDING
  34:.\libfixmath/fix16_exp.c **** 		tempValue = int64_add(tempValue, int64_from_int32(fix16_one >> 1));
 211              		.loc 1 34 0 discriminator 2
 212 00c0 8023     		mov	r3, #128
 213 00c2 5B02     		lsl	r3, r3, #9
 214 00c4 5B10     		asr	r3, r3, #1
 215 00c6 181C     		mov	r0, r3
 216 00c8 FFF7FEFF 		bl	int64_from_int32
 217 00cc 021C     		mov	r2, r0
 218 00ce BB69     		ldr	r3, [r7, #24]
 219 00d0 FC69     		ldr	r4, [r7, #28]
 220 00d2 181C     		mov	r0, r3
 221 00d4 211C     		mov	r1, r4
 222 00d6 FFF7FEFF 		bl	int64_add
 223 00da 031C     		mov	r3, r0
 224 00dc BB61     		str	r3, [r7, #24]
 225 00de DB17     		asr	r3, r3, #31
 226 00e0 FB61     		str	r3, [r7, #28]
  35:.\libfixmath/fix16_exp.c **** 		#endif
  36:.\libfixmath/fix16_exp.c **** 		tempValue = int64_shift(tempValue, -16);
 227              		.loc 1 36 0 discriminator 2
 228 00e2 BB69     		ldr	r3, [r7, #24]
 229 00e4 FC69     		ldr	r4, [r7, #28]
 230 00e6 1022     		mov	r2, #16
 231 00e8 5242     		neg	r2, r2
 232 00ea 181C     		mov	r0, r3
 233 00ec 211C     		mov	r1, r4
 234 00ee FFF7FEFF 		bl	int64_shift
 235 00f2 031C     		mov	r3, r0
 236 00f4 BB61     		str	r3, [r7, #24]
 237 00f6 DB17     		asr	r3, r3, #31
 238 00f8 FB61     		str	r3, [r7, #28]
  37:.\libfixmath/fix16_exp.c **** 		tempOut = int64_add(tempOut, int64_div_i64_i32(tempValue, n));
 239              		.loc 1 37 0 discriminator 2
 240 00fa BB69     		ldr	r3, [r7, #24]
ARM GAS  C:\Users\Felix\AppData\Local\Temp\ccdIYjgy.s 			page 6


 241 00fc FC69     		ldr	r4, [r7, #28]
 242 00fe 3A69     		ldr	r2, [r7, #16]
 243 0100 181C     		mov	r0, r3
 244 0102 211C     		mov	r1, r4
 245 0104 FFF7FEFF 		bl	int64_div_i64_i32
 246 0108 021C     		mov	r2, r0
 247 010a 3B6A     		ldr	r3, [r7, #32]
 248 010c 7C6A     		ldr	r4, [r7, #36]
 249 010e 181C     		mov	r0, r3
 250 0110 211C     		mov	r1, r4
 251 0112 FFF7FEFF 		bl	int64_add
 252 0116 031C     		mov	r3, r0
 253 0118 3B62     		str	r3, [r7, #32]
 254 011a DB17     		asr	r3, r3, #31
 255 011c 7B62     		str	r3, [r7, #36]
 256              	.LBE2:
  31:.\libfixmath/fix16_exp.c **** 	for(i = 3, n = 2; i < 13; n *= i, i++) {
 257              		.loc 1 31 0 discriminator 2
 258 011e 3B69     		ldr	r3, [r7, #16]
 259 0120 7A69     		ldr	r2, [r7, #20]
 260 0122 5343     		mul	r3, r2
 261 0124 3B61     		str	r3, [r7, #16]
 262 0126 7B69     		ldr	r3, [r7, #20]
 263 0128 0133     		add	r3, r3, #1
 264 012a 7B61     		str	r3, [r7, #20]
 265              	.L8:
  31:.\libfixmath/fix16_exp.c **** 	for(i = 3, n = 2; i < 13; n *= i, i++) {
 266              		.loc 1 31 0 is_stmt 0 discriminator 1
 267 012c 7B69     		ldr	r3, [r7, #20]
 268 012e 0C2B     		cmp	r3, #12
 269 0130 BBD9     		bls	.L9
  38:.\libfixmath/fix16_exp.c **** 	}
  39:.\libfixmath/fix16_exp.c **** 
  40:.\libfixmath/fix16_exp.c **** 	#ifndef FIXMATH_NO_CACHE
  41:.\libfixmath/fix16_exp.c **** 	_fix16_exp_cache_index[tempIndex] = inValue;
 270              		.loc 1 41 0 is_stmt 1
 271 0132 114B     		ldr	r3, .L10+16
 272 0134 FA68     		ldr	r2, [r7, #12]
 273 0136 9200     		lsl	r2, r2, #2
 274 0138 7968     		ldr	r1, [r7, #4]
 275 013a D150     		str	r1, [r2, r3]
  42:.\libfixmath/fix16_exp.c **** 	_fix16_exp_cache_value[tempIndex] = int64_lo(tempOut);
 276              		.loc 1 42 0
 277 013c 3B6A     		ldr	r3, [r7, #32]
 278 013e 7C6A     		ldr	r4, [r7, #36]
 279 0140 181C     		mov	r0, r3
 280 0142 211C     		mov	r1, r4
 281 0144 FFF7FEFF 		bl	int64_lo
 282 0148 011C     		mov	r1, r0
 283 014a 0C4B     		ldr	r3, .L10+20
 284 014c FA68     		ldr	r2, [r7, #12]
 285 014e 9200     		lsl	r2, r2, #2
 286 0150 D150     		str	r1, [r2, r3]
  43:.\libfixmath/fix16_exp.c **** 	#endif
  44:.\libfixmath/fix16_exp.c **** 
  45:.\libfixmath/fix16_exp.c **** 	return int64_lo(tempOut);
 287              		.loc 1 45 0
ARM GAS  C:\Users\Felix\AppData\Local\Temp\ccdIYjgy.s 			page 7


 288 0152 3B6A     		ldr	r3, [r7, #32]
 289 0154 7C6A     		ldr	r4, [r7, #36]
 290 0156 181C     		mov	r0, r3
 291 0158 211C     		mov	r1, r4
 292 015a FFF7FEFF 		bl	int64_lo
 293 015e 031C     		mov	r3, r0
 294              	.L3:
  46:.\libfixmath/fix16_exp.c **** }
 295              		.loc 1 46 0
 296 0160 181C     		mov	r0, r3
 297 0162 BD46     		mov	sp, r7
 298 0164 0BB0     		add	sp, sp, #44
 299              		@ sp needed
 300 0166 90BD     		pop	{r4, r7, pc}
 301              	.L11:
 302              		.align	2
 303              	.L10:
 304 0168 E1B70200 		.word	178145
 305 016c AF650A00 		.word	681391
 306 0170 FFFFFF7F 		.word	2147483647
 307 0174 DFE8F4FF 		.word	-726817
 308 0178 00000000 		.word	_fix16_exp_cache_index
 309 017c 00400000 		.word	_fix16_exp_cache_value
 310              		.cfi_endproc
 311              	.LFE6:
 312              		.size	fix16_exp, .-fix16_exp
 313              		.text
 314              	.Letext0:
 315              		.file 2 "c:\\program files (x86)\\cypress\\psoc creator\\3.1\\psoc creator\\import\\gnu_cs\\arm\\4
 316              		.file 3 "c:\\program files (x86)\\cypress\\psoc creator\\3.1\\psoc creator\\import\\gnu_cs\\arm\\4
 317              		.file 4 ".\\libfixmath\\fix16.h"