ARM GAS  C:\Users\Felix\AppData\Local\Temp\ccHz6Ccb.s 			page 1


   1              		.cpu cortex-m0
   2              		.fpu softvfp
   3              		.eabi_attribute 20, 1
   4              		.eabi_attribute 21, 1
   5              		.eabi_attribute 23, 3
   6              		.eabi_attribute 24, 1
   7              		.eabi_attribute 25, 1
   8              		.eabi_attribute 26, 1
   9              		.eabi_attribute 30, 6
  10              		.eabi_attribute 34, 0
  11              		.eabi_attribute 18, 4
  12              		.code	16
  13              		.file	"fix16.c"
  14              		.text
  15              	.Ltext0:
  16              		.cfi_sections	.debug_frame
  17              		.section	.rodata
  18              		.align	2
  19              		.type	FOUR_DIV_PI, %object
  20              		.size	FOUR_DIV_PI, 4
  21              	FOUR_DIV_PI:
  22 0000 F3450100 		.word	83443
  23              		.align	2
  24              		.type	_FOUR_DIV_PI2, %object
  25              		.size	_FOUR_DIV_PI2, 4
  26              	_FOUR_DIV_PI2:
  27 0004 4098FFFF 		.word	-26560
  28              		.align	2
  29              		.type	X4_CORRECTION_COMPONENT, %object
  30              		.size	X4_CORRECTION_COMPONENT, 4
  31              	X4_CORRECTION_COMPONENT:
  32 0008 9A390000 		.word	14746
  33              		.align	2
  34              		.type	PI_DIV_4, %object
  35              		.size	PI_DIV_4, 4
  36              	PI_DIV_4:
  37 000c 0FC90000 		.word	51471
  38              		.align	2
  39              		.type	THREE_PI_DIV_4, %object
  40              		.size	THREE_PI_DIV_4, 4
  41              	THREE_PI_DIV_4:
  42 0010 2F5B0200 		.word	154415
  43              		.align	2
  44              		.type	fix16_max, %object
  45              		.size	fix16_max, 4
  46              	fix16_max:
  47 0014 FFFFFF7F 		.word	2147483647
  48              		.align	2
  49              		.type	fix16_min, %object
  50              		.size	fix16_min, 4
  51              	fix16_min:
  52 0018 00000080 		.word	-2147483648
  53              		.align	2
  54              		.type	fix16_overflow, %object
  55              		.size	fix16_overflow, 4
  56              	fix16_overflow:
  57 001c 00000080 		.word	-2147483648
ARM GAS  C:\Users\Felix\AppData\Local\Temp\ccHz6Ccb.s 			page 2


  58              		.align	2
  59              		.type	fix16_pi, %object
  60              		.size	fix16_pi, 4
  61              	fix16_pi:
  62 0020 3F240300 		.word	205887
  63              		.align	2
  64              		.type	fix16_e, %object
  65              		.size	fix16_e, 4
  66              	fix16_e:
  67 0024 E1B70200 		.word	178145
  68              		.align	2
  69              		.type	fix16_one, %object
  70              		.size	fix16_one, 4
  71              	fix16_one:
  72 0028 00000100 		.word	65536
  73              		.section	.text.fix16_add,"ax",%progbits
  74              		.align	2
  75              		.global	fix16_add
  76              		.code	16
  77              		.thumb_func
  78              		.type	fix16_add, %function
  79              	fix16_add:
  80              	.LFB6:
  81              		.file 1 ".\\libfixmath\\fix16.c"
   1:.\libfixmath/fix16.c **** #include "fix16.h"
   2:.\libfixmath/fix16.c **** 
   3:.\libfixmath/fix16.c **** 
   4:.\libfixmath/fix16.c **** 
   5:.\libfixmath/fix16.c **** /* Subtraction and addition with overflow detection.
   6:.\libfixmath/fix16.c ****  * The versions without overflow detection are inlined in the header.
   7:.\libfixmath/fix16.c ****  */
   8:.\libfixmath/fix16.c **** #ifndef FIXMATH_NO_OVERFLOW
   9:.\libfixmath/fix16.c **** fix16_t fix16_add(fix16_t a, fix16_t b)
  10:.\libfixmath/fix16.c **** {
  82              		.loc 1 10 0
  83              		.cfi_startproc
  84 0000 80B5     		push	{r7, lr}
  85              		.cfi_def_cfa_offset 8
  86              		.cfi_offset 7, -8
  87              		.cfi_offset 14, -4
  88 0002 86B0     		sub	sp, sp, #24
  89              		.cfi_def_cfa_offset 32
  90 0004 00AF     		add	r7, sp, #0
  91              		.cfi_def_cfa_register 7
  92 0006 7860     		str	r0, [r7, #4]
  93 0008 3960     		str	r1, [r7]
  11:.\libfixmath/fix16.c ****   // Use unsigned integers because overflow with signed integers is
  12:.\libfixmath/fix16.c ****   // an undefined operation (http://www.airs.com/blog/archives/120).
  13:.\libfixmath/fix16.c ****   uint32_t _a = a, _b = b;
  94              		.loc 1 13 0
  95 000a 7B68     		ldr	r3, [r7, #4]
  96 000c 7B61     		str	r3, [r7, #20]
  97 000e 3B68     		ldr	r3, [r7]
  98 0010 3B61     		str	r3, [r7, #16]
  14:.\libfixmath/fix16.c ****   uint32_t sum = _a + _b;
  99              		.loc 1 14 0
 100 0012 7A69     		ldr	r2, [r7, #20]
ARM GAS  C:\Users\Felix\AppData\Local\Temp\ccHz6Ccb.s 			page 3


 101 0014 3B69     		ldr	r3, [r7, #16]
 102 0016 D318     		add	r3, r2, r3
 103 0018 FB60     		str	r3, [r7, #12]
  15:.\libfixmath/fix16.c **** 
  16:.\libfixmath/fix16.c ****   // Overflow can only happen if sign of a == sign of b, and then
  17:.\libfixmath/fix16.c ****   // it causes sign of sum != sign of a.
  18:.\libfixmath/fix16.c ****   if (!((_a ^ _b) & 0x80000000) && ((_a ^ sum) & 0x80000000))
 104              		.loc 1 18 0
 105 001a 7A69     		ldr	r2, [r7, #20]
 106 001c 3B69     		ldr	r3, [r7, #16]
 107 001e 5340     		eor	r3, r2
 108 0020 06D4     		bmi	.L2
 109              		.loc 1 18 0 is_stmt 0 discriminator 1
 110 0022 7A69     		ldr	r2, [r7, #20]
 111 0024 FB68     		ldr	r3, [r7, #12]
 112 0026 5340     		eor	r3, r2
 113 0028 02D5     		bpl	.L2
  19:.\libfixmath/fix16.c ****     return fix16_overflow;
 114              		.loc 1 19 0 is_stmt 1
 115 002a 8023     		mov	r3, #128
 116 002c 1B06     		lsl	r3, r3, #24
 117 002e 00E0     		b	.L3
 118              	.L2:
  20:.\libfixmath/fix16.c ****   
  21:.\libfixmath/fix16.c ****   return sum;
 119              		.loc 1 21 0
 120 0030 FB68     		ldr	r3, [r7, #12]
 121              	.L3:
  22:.\libfixmath/fix16.c **** }
 122              		.loc 1 22 0
 123 0032 181C     		mov	r0, r3
 124 0034 BD46     		mov	sp, r7
 125 0036 06B0     		add	sp, sp, #24
 126              		@ sp needed
 127 0038 80BD     		pop	{r7, pc}
 128              		.cfi_endproc
 129              	.LFE6:
 130              		.size	fix16_add, .-fix16_add
 131 003a C046     		.section	.text.fix16_sub,"ax",%progbits
 132              		.align	2
 133              		.global	fix16_sub
 134              		.code	16
 135              		.thumb_func
 136              		.type	fix16_sub, %function
 137              	fix16_sub:
 138              	.LFB7:
  23:.\libfixmath/fix16.c **** 
  24:.\libfixmath/fix16.c **** fix16_t fix16_sub(fix16_t a, fix16_t b)
  25:.\libfixmath/fix16.c **** {
 139              		.loc 1 25 0
 140              		.cfi_startproc
 141 0000 80B5     		push	{r7, lr}
 142              		.cfi_def_cfa_offset 8
 143              		.cfi_offset 7, -8
 144              		.cfi_offset 14, -4
 145 0002 86B0     		sub	sp, sp, #24
 146              		.cfi_def_cfa_offset 32
ARM GAS  C:\Users\Felix\AppData\Local\Temp\ccHz6Ccb.s 			page 4


 147 0004 00AF     		add	r7, sp, #0
 148              		.cfi_def_cfa_register 7
 149 0006 7860     		str	r0, [r7, #4]
 150 0008 3960     		str	r1, [r7]
  26:.\libfixmath/fix16.c ****   uint32_t _a = a, _b = b;
 151              		.loc 1 26 0
 152 000a 7B68     		ldr	r3, [r7, #4]
 153 000c 7B61     		str	r3, [r7, #20]
 154 000e 3B68     		ldr	r3, [r7]
 155 0010 3B61     		str	r3, [r7, #16]
  27:.\libfixmath/fix16.c ****   uint32_t diff = _a - _b;
 156              		.loc 1 27 0
 157 0012 7A69     		ldr	r2, [r7, #20]
 158 0014 3B69     		ldr	r3, [r7, #16]
 159 0016 D31A     		sub	r3, r2, r3
 160 0018 FB60     		str	r3, [r7, #12]
  28:.\libfixmath/fix16.c **** 
  29:.\libfixmath/fix16.c ****   // Overflow can only happen if sign of a != sign of b, and then
  30:.\libfixmath/fix16.c ****   // it causes sign of diff != sign of a.
  31:.\libfixmath/fix16.c ****   if (((_a ^ _b) & 0x80000000) && ((_a ^ diff) & 0x80000000))
 161              		.loc 1 31 0
 162 001a 7A69     		ldr	r2, [r7, #20]
 163 001c 3B69     		ldr	r3, [r7, #16]
 164 001e 5340     		eor	r3, r2
 165 0020 06D5     		bpl	.L5
 166              		.loc 1 31 0 is_stmt 0 discriminator 1
 167 0022 7A69     		ldr	r2, [r7, #20]
 168 0024 FB68     		ldr	r3, [r7, #12]
 169 0026 5340     		eor	r3, r2
 170 0028 02D5     		bpl	.L5
  32:.\libfixmath/fix16.c ****     return fix16_overflow;
 171              		.loc 1 32 0 is_stmt 1
 172 002a 8023     		mov	r3, #128
 173 002c 1B06     		lsl	r3, r3, #24
 174 002e 00E0     		b	.L6
 175              	.L5:
  33:.\libfixmath/fix16.c ****   
  34:.\libfixmath/fix16.c ****   return diff;
 176              		.loc 1 34 0
 177 0030 FB68     		ldr	r3, [r7, #12]
 178              	.L6:
  35:.\libfixmath/fix16.c **** }
 179              		.loc 1 35 0
 180 0032 181C     		mov	r0, r3
 181 0034 BD46     		mov	sp, r7
 182 0036 06B0     		add	sp, sp, #24
 183              		@ sp needed
 184 0038 80BD     		pop	{r7, pc}
 185              		.cfi_endproc
 186              	.LFE7:
 187              		.size	fix16_sub, .-fix16_sub
 188 003a C046     		.section	.text.fix16_sadd,"ax",%progbits
 189              		.align	2
 190              		.global	fix16_sadd
 191              		.code	16
 192              		.thumb_func
 193              		.type	fix16_sadd, %function
ARM GAS  C:\Users\Felix\AppData\Local\Temp\ccHz6Ccb.s 			page 5


 194              	fix16_sadd:
 195              	.LFB8:
  36:.\libfixmath/fix16.c **** 
  37:.\libfixmath/fix16.c **** /* Saturating arithmetic */
  38:.\libfixmath/fix16.c **** fix16_t fix16_sadd(fix16_t a, fix16_t b)
  39:.\libfixmath/fix16.c **** {
 196              		.loc 1 39 0
 197              		.cfi_startproc
 198 0000 80B5     		push	{r7, lr}
 199              		.cfi_def_cfa_offset 8
 200              		.cfi_offset 7, -8
 201              		.cfi_offset 14, -4
 202 0002 84B0     		sub	sp, sp, #16
 203              		.cfi_def_cfa_offset 24
 204 0004 00AF     		add	r7, sp, #0
 205              		.cfi_def_cfa_register 7
 206 0006 7860     		str	r0, [r7, #4]
 207 0008 3960     		str	r1, [r7]
  40:.\libfixmath/fix16.c ****   fix16_t result = fix16_add(a, b);
 208              		.loc 1 40 0
 209 000a 7A68     		ldr	r2, [r7, #4]
 210 000c 3B68     		ldr	r3, [r7]
 211 000e 101C     		mov	r0, r2
 212 0010 191C     		mov	r1, r3
 213 0012 FFF7FEFF 		bl	fix16_add
 214 0016 031C     		mov	r3, r0
 215 0018 FB60     		str	r3, [r7, #12]
  41:.\libfixmath/fix16.c **** 
  42:.\libfixmath/fix16.c ****   if (result == fix16_overflow)
 216              		.loc 1 42 0
 217 001a 8023     		mov	r3, #128
 218 001c 1B06     		lsl	r3, r3, #24
 219 001e FA68     		ldr	r2, [r7, #12]
 220 0020 9A42     		cmp	r2, r3
 221 0022 07D1     		bne	.L8
  43:.\libfixmath/fix16.c ****     return (a > 0) ? fix16_max : fix16_min;
 222              		.loc 1 43 0
 223 0024 7B68     		ldr	r3, [r7, #4]
 224 0026 002B     		cmp	r3, #0
 225 0028 01DD     		ble	.L9
 226              		.loc 1 43 0 is_stmt 0 discriminator 1
 227 002a 054B     		ldr	r3, .L12
 228 002c 01E0     		b	.L10
 229              	.L9:
 230              		.loc 1 43 0 discriminator 2
 231 002e 8023     		mov	r3, #128
 232 0030 1B06     		lsl	r3, r3, #24
 233              	.L10:
 234              		.loc 1 43 0 discriminator 3
 235 0032 00E0     		b	.L11
 236              	.L8:
  44:.\libfixmath/fix16.c **** 
  45:.\libfixmath/fix16.c ****   return result;
 237              		.loc 1 45 0 is_stmt 1
 238 0034 FB68     		ldr	r3, [r7, #12]
 239              	.L11:
  46:.\libfixmath/fix16.c **** }  
ARM GAS  C:\Users\Felix\AppData\Local\Temp\ccHz6Ccb.s 			page 6


 240              		.loc 1 46 0
 241 0036 181C     		mov	r0, r3
 242 0038 BD46     		mov	sp, r7
 243 003a 04B0     		add	sp, sp, #16
 244              		@ sp needed
 245 003c 80BD     		pop	{r7, pc}
 246              	.L13:
 247 003e C046     		.align	2
 248              	.L12:
 249 0040 FFFFFF7F 		.word	2147483647
 250              		.cfi_endproc
 251              	.LFE8:
 252              		.size	fix16_sadd, .-fix16_sadd
 253              		.section	.text.fix16_ssub,"ax",%progbits
 254              		.align	2
 255              		.global	fix16_ssub
 256              		.code	16
 257              		.thumb_func
 258              		.type	fix16_ssub, %function
 259              	fix16_ssub:
 260              	.LFB9:
  47:.\libfixmath/fix16.c **** 
  48:.\libfixmath/fix16.c **** fix16_t fix16_ssub(fix16_t a, fix16_t b)
  49:.\libfixmath/fix16.c **** {
 261              		.loc 1 49 0
 262              		.cfi_startproc
 263 0000 80B5     		push	{r7, lr}
 264              		.cfi_def_cfa_offset 8
 265              		.cfi_offset 7, -8
 266              		.cfi_offset 14, -4
 267 0002 84B0     		sub	sp, sp, #16
 268              		.cfi_def_cfa_offset 24
 269 0004 00AF     		add	r7, sp, #0
 270              		.cfi_def_cfa_register 7
 271 0006 7860     		str	r0, [r7, #4]
 272 0008 3960     		str	r1, [r7]
  50:.\libfixmath/fix16.c ****   fix16_t result = fix16_sub(a, b);
 273              		.loc 1 50 0
 274 000a 7A68     		ldr	r2, [r7, #4]
 275 000c 3B68     		ldr	r3, [r7]
 276 000e 101C     		mov	r0, r2
 277 0010 191C     		mov	r1, r3
 278 0012 FFF7FEFF 		bl	fix16_sub
 279 0016 031C     		mov	r3, r0
 280 0018 FB60     		str	r3, [r7, #12]
  51:.\libfixmath/fix16.c **** 
  52:.\libfixmath/fix16.c ****   if (result == fix16_overflow)
 281              		.loc 1 52 0
 282 001a 8023     		mov	r3, #128
 283 001c 1B06     		lsl	r3, r3, #24
 284 001e FA68     		ldr	r2, [r7, #12]
 285 0020 9A42     		cmp	r2, r3
 286 0022 07D1     		bne	.L15
  53:.\libfixmath/fix16.c ****     return (a > 0) ? fix16_max : fix16_min;
 287              		.loc 1 53 0
 288 0024 7B68     		ldr	r3, [r7, #4]
 289 0026 002B     		cmp	r3, #0
ARM GAS  C:\Users\Felix\AppData\Local\Temp\ccHz6Ccb.s 			page 7


 290 0028 01DD     		ble	.L16
 291              		.loc 1 53 0 is_stmt 0 discriminator 1
 292 002a 054B     		ldr	r3, .L19
 293 002c 01E0     		b	.L17
 294              	.L16:
 295              		.loc 1 53 0 discriminator 2
 296 002e 8023     		mov	r3, #128
 297 0030 1B06     		lsl	r3, r3, #24
 298              	.L17:
 299              		.loc 1 53 0 discriminator 3
 300 0032 00E0     		b	.L18
 301              	.L15:
  54:.\libfixmath/fix16.c **** 
  55:.\libfixmath/fix16.c ****   return result;
 302              		.loc 1 55 0 is_stmt 1
 303 0034 FB68     		ldr	r3, [r7, #12]
 304              	.L18:
  56:.\libfixmath/fix16.c **** }
 305              		.loc 1 56 0
 306 0036 181C     		mov	r0, r3
 307 0038 BD46     		mov	sp, r7
 308 003a 04B0     		add	sp, sp, #16
 309              		@ sp needed
 310 003c 80BD     		pop	{r7, pc}
 311              	.L20:
 312 003e C046     		.align	2
 313              	.L19:
 314 0040 FFFFFF7F 		.word	2147483647
 315              		.cfi_endproc
 316              	.LFE9:
 317              		.size	fix16_ssub, .-fix16_ssub
 318              		.global	__aeabi_lmul
 319              		.section	.text.fix16_mul,"ax",%progbits
 320              		.align	2
 321              		.global	fix16_mul
 322              		.code	16
 323              		.thumb_func
 324              		.type	fix16_mul, %function
 325              	fix16_mul:
 326              	.LFB10:
  57:.\libfixmath/fix16.c **** #endif
  58:.\libfixmath/fix16.c **** 
  59:.\libfixmath/fix16.c **** 
  60:.\libfixmath/fix16.c **** 
  61:.\libfixmath/fix16.c **** /* 64-bit implementation for fix16_mul. Fastest version for e.g. ARM Cortex M3.
  62:.\libfixmath/fix16.c ****  * Performs a 32*32 -> 64bit multiplication. The middle 32 bits are the result,
  63:.\libfixmath/fix16.c ****  * bottom 16 bits are used for rounding, and upper 16 bits are used for overflow
  64:.\libfixmath/fix16.c ****  * detection.
  65:.\libfixmath/fix16.c ****  */
  66:.\libfixmath/fix16.c ****  
  67:.\libfixmath/fix16.c **** #if !defined(FIXMATH_NO_64BIT) && !defined(FIXMATH_OPTIMIZE_8BIT)
  68:.\libfixmath/fix16.c **** fix16_t fix16_mul(fix16_t inArg0, fix16_t inArg1)
  69:.\libfixmath/fix16.c **** {
 327              		.loc 1 69 0
 328              		.cfi_startproc
 329 0000 F0B5     		push	{r4, r5, r6, r7, lr}
 330              		.cfi_def_cfa_offset 20
ARM GAS  C:\Users\Felix\AppData\Local\Temp\ccHz6Ccb.s 			page 8


 331              		.cfi_offset 4, -20
 332              		.cfi_offset 5, -16
 333              		.cfi_offset 6, -12
 334              		.cfi_offset 7, -8
 335              		.cfi_offset 14, -4
 336 0002 91B0     		sub	sp, sp, #68
 337              		.cfi_def_cfa_offset 88
 338 0004 00AF     		add	r7, sp, #0
 339              		.cfi_def_cfa_register 7
 340 0006 F862     		str	r0, [r7, #44]
 341 0008 B962     		str	r1, [r7, #40]
  70:.\libfixmath/fix16.c ****   int64_t product = (int64_t)inArg0 * inArg1;
 342              		.loc 1 70 0
 343 000a FB6A     		ldr	r3, [r7, #44]
 344 000c 3B62     		str	r3, [r7, #32]
 345 000e DB17     		asr	r3, r3, #31
 346 0010 7B62     		str	r3, [r7, #36]
 347 0012 BB6A     		ldr	r3, [r7, #40]
 348 0014 BB61     		str	r3, [r7, #24]
 349 0016 DB17     		asr	r3, r3, #31
 350 0018 FB61     		str	r3, [r7, #28]
 351 001a 386A     		ldr	r0, [r7, #32]
 352 001c 796A     		ldr	r1, [r7, #36]
 353 001e BA69     		ldr	r2, [r7, #24]
 354 0020 FB69     		ldr	r3, [r7, #28]
 355 0022 FFF7FEFF 		bl	__aeabi_lmul
 356 0026 031C     		mov	r3, r0
 357 0028 0C1C     		mov	r4, r1
 358 002a BB63     		str	r3, [r7, #56]
 359 002c FC63     		str	r4, [r7, #60]
  71:.\libfixmath/fix16.c ****   
  72:.\libfixmath/fix16.c ****   #ifndef FIXMATH_NO_OVERFLOW
  73:.\libfixmath/fix16.c ****   // The upper 17 bits should all be the same (the sign).
  74:.\libfixmath/fix16.c ****   uint32_t upper = (product >> 47);
 360              		.loc 1 74 0
 361 002e FB6B     		ldr	r3, [r7, #60]
 362 0030 DB13     		asr	r3, r3, #15
 363 0032 3B61     		str	r3, [r7, #16]
 364 0034 FB6B     		ldr	r3, [r7, #60]
 365 0036 DB17     		asr	r3, r3, #31
 366 0038 7B61     		str	r3, [r7, #20]
 367 003a 3B69     		ldr	r3, [r7, #16]
 368 003c 7B63     		str	r3, [r7, #52]
  75:.\libfixmath/fix16.c ****   #endif
  76:.\libfixmath/fix16.c ****   
  77:.\libfixmath/fix16.c ****   if (product < 0)
 369              		.loc 1 77 0
 370 003e FB6B     		ldr	r3, [r7, #60]
 371 0040 002B     		cmp	r3, #0
 372 0042 0FDA     		bge	.L22
  78:.\libfixmath/fix16.c ****   {
  79:.\libfixmath/fix16.c ****     #ifndef FIXMATH_NO_OVERFLOW
  80:.\libfixmath/fix16.c ****     if (~upper)
 373              		.loc 1 80 0
 374 0044 7B6B     		ldr	r3, [r7, #52]
 375 0046 0133     		add	r3, r3, #1
 376 0048 02D0     		beq	.L24
ARM GAS  C:\Users\Felix\AppData\Local\Temp\ccHz6Ccb.s 			page 9


  81:.\libfixmath/fix16.c ****         return fix16_overflow;
 377              		.loc 1 81 0
 378 004a 8023     		mov	r3, #128
 379 004c 1B06     		lsl	r3, r3, #24
 380 004e 33E0     		b	.L25
 381              	.L24:
  82:.\libfixmath/fix16.c ****     #endif
  83:.\libfixmath/fix16.c ****     
  84:.\libfixmath/fix16.c ****     #ifndef FIXMATH_NO_ROUNDING
  85:.\libfixmath/fix16.c ****     // This adjustment is required in order to round -1/2 correctly
  86:.\libfixmath/fix16.c ****     product--;
 382              		.loc 1 86 0
 383 0050 B96B     		ldr	r1, [r7, #56]
 384 0052 FA6B     		ldr	r2, [r7, #60]
 385 0054 0123     		mov	r3, #1
 386 0056 5B42     		neg	r3, r3
 387 0058 DC17     		asr	r4, r3, #31
 388 005a 5B18     		add	r3, r3, r1
 389 005c 5441     		adc	r4, r4, r2
 390 005e BB63     		str	r3, [r7, #56]
 391 0060 FC63     		str	r4, [r7, #60]
 392 0062 05E0     		b	.L26
 393              	.L22:
  87:.\libfixmath/fix16.c ****     #endif
  88:.\libfixmath/fix16.c ****   }
  89:.\libfixmath/fix16.c ****   else
  90:.\libfixmath/fix16.c ****   {
  91:.\libfixmath/fix16.c ****     #ifndef FIXMATH_NO_OVERFLOW
  92:.\libfixmath/fix16.c ****     if (upper)
 394              		.loc 1 92 0
 395 0064 7B6B     		ldr	r3, [r7, #52]
 396 0066 002B     		cmp	r3, #0
 397 0068 02D0     		beq	.L26
  93:.\libfixmath/fix16.c ****         return fix16_overflow;
 398              		.loc 1 93 0
 399 006a 8023     		mov	r3, #128
 400 006c 1B06     		lsl	r3, r3, #24
 401 006e 23E0     		b	.L25
 402              	.L26:
  94:.\libfixmath/fix16.c ****     #endif
  95:.\libfixmath/fix16.c ****   }
  96:.\libfixmath/fix16.c ****   
  97:.\libfixmath/fix16.c ****   #ifdef FIXMATH_NO_ROUNDING
  98:.\libfixmath/fix16.c ****   return product >> 16;
  99:.\libfixmath/fix16.c ****   #else
 100:.\libfixmath/fix16.c ****   fix16_t result = product >> 16;
 403              		.loc 1 100 0
 404 0070 FB6B     		ldr	r3, [r7, #60]
 405 0072 1B04     		lsl	r3, r3, #16
 406 0074 BA6B     		ldr	r2, [r7, #56]
 407 0076 120C     		lsr	r2, r2, #16
 408 0078 BA60     		str	r2, [r7, #8]
 409 007a B968     		ldr	r1, [r7, #8]
 410 007c 1943     		orr	r1, r3
 411 007e B960     		str	r1, [r7, #8]
 412 0080 FB6B     		ldr	r3, [r7, #60]
 413 0082 1B14     		asr	r3, r3, #16
ARM GAS  C:\Users\Felix\AppData\Local\Temp\ccHz6Ccb.s 			page 10


 414 0084 FB60     		str	r3, [r7, #12]
 415 0086 BB68     		ldr	r3, [r7, #8]
 416 0088 3B63     		str	r3, [r7, #48]
 101:.\libfixmath/fix16.c ****   result += (product & 0x8000) >> 15;
 417              		.loc 1 101 0
 418 008a BA6B     		ldr	r2, [r7, #56]
 419 008c 8023     		mov	r3, #128
 420 008e 1B02     		lsl	r3, r3, #8
 421 0090 111C     		mov	r1, r2
 422 0092 1940     		and	r1, r3
 423 0094 3960     		str	r1, [r7]
 424 0096 FA6B     		ldr	r2, [r7, #60]
 425 0098 0023     		mov	r3, #0
 426 009a 111C     		mov	r1, r2
 427 009c 1940     		and	r1, r3
 428 009e 7960     		str	r1, [r7, #4]
 429 00a0 7A68     		ldr	r2, [r7, #4]
 430 00a2 5304     		lsl	r3, r2, #17
 431 00a4 3968     		ldr	r1, [r7]
 432 00a6 CD0B     		lsr	r5, r1, #15
 433 00a8 1D43     		orr	r5, r3
 434 00aa 7A68     		ldr	r2, [r7, #4]
 435 00ac D613     		asr	r6, r2, #15
 436 00ae 2A1C     		mov	r2, r5
 437 00b0 3B6B     		ldr	r3, [r7, #48]
 438 00b2 D318     		add	r3, r2, r3
 439 00b4 3B63     		str	r3, [r7, #48]
 102:.\libfixmath/fix16.c ****   
 103:.\libfixmath/fix16.c ****   return result;
 440              		.loc 1 103 0
 441 00b6 3B6B     		ldr	r3, [r7, #48]
 442              	.L25:
 104:.\libfixmath/fix16.c ****   #endif
 105:.\libfixmath/fix16.c **** }
 443              		.loc 1 105 0
 444 00b8 181C     		mov	r0, r3
 445 00ba BD46     		mov	sp, r7
 446 00bc 11B0     		add	sp, sp, #68
 447              		@ sp needed
 448 00be F0BD     		pop	{r4, r5, r6, r7, pc}
 449              		.cfi_endproc
 450              	.LFE10:
 451              		.size	fix16_mul, .-fix16_mul
 452              		.section	.text.fix16_smul,"ax",%progbits
 453              		.align	2
 454              		.global	fix16_smul
 455              		.code	16
 456              		.thumb_func
 457              		.type	fix16_smul, %function
 458              	fix16_smul:
 459              	.LFB11:
 106:.\libfixmath/fix16.c **** #endif
 107:.\libfixmath/fix16.c **** 
 108:.\libfixmath/fix16.c **** /* 32-bit implementation of fix16_mul. Potentially fast on 16-bit processors,
 109:.\libfixmath/fix16.c ****  * and this is a relatively good compromise for compilers that do not support
 110:.\libfixmath/fix16.c ****  * uint64_t. Uses 16*16->32bit multiplications.
 111:.\libfixmath/fix16.c ****  */
ARM GAS  C:\Users\Felix\AppData\Local\Temp\ccHz6Ccb.s 			page 11


 112:.\libfixmath/fix16.c **** #if defined(FIXMATH_NO_64BIT) && !defined(FIXMATH_OPTIMIZE_8BIT)
 113:.\libfixmath/fix16.c **** fix16_t fix16_mul(fix16_t inArg0, fix16_t inArg1)
 114:.\libfixmath/fix16.c **** {
 115:.\libfixmath/fix16.c ****   // Each argument is divided to 16-bit parts.
 116:.\libfixmath/fix16.c ****   //          AB
 117:.\libfixmath/fix16.c ****   //      *   CD
 118:.\libfixmath/fix16.c ****   // -----------
 119:.\libfixmath/fix16.c ****   //          BD  16 * 16 -> 32 bit products
 120:.\libfixmath/fix16.c ****   //         CB
 121:.\libfixmath/fix16.c ****   //         AD
 122:.\libfixmath/fix16.c ****   //        AC
 123:.\libfixmath/fix16.c ****   //       |----| 64 bit product
 124:.\libfixmath/fix16.c ****   int32_t A = (inArg0 >> 16), C = (inArg1 >> 16);
 125:.\libfixmath/fix16.c ****   uint32_t B = (inArg0 & 0xFFFF), D = (inArg1 & 0xFFFF);
 126:.\libfixmath/fix16.c ****   
 127:.\libfixmath/fix16.c ****   int32_t AC = A*C;
 128:.\libfixmath/fix16.c ****   int32_t AD_CB = A*D + C*B;
 129:.\libfixmath/fix16.c ****   uint32_t BD = B*D;
 130:.\libfixmath/fix16.c ****   
 131:.\libfixmath/fix16.c ****   int32_t product_hi = AC + (AD_CB >> 16);
 132:.\libfixmath/fix16.c ****   
 133:.\libfixmath/fix16.c ****   // Handle carry from lower 32 bits to upper part of result.
 134:.\libfixmath/fix16.c ****   uint32_t ad_cb_temp = AD_CB << 16;
 135:.\libfixmath/fix16.c ****   uint32_t product_lo = BD + ad_cb_temp;
 136:.\libfixmath/fix16.c ****   if (product_lo < BD)
 137:.\libfixmath/fix16.c ****     product_hi++;
 138:.\libfixmath/fix16.c ****   
 139:.\libfixmath/fix16.c **** #ifndef FIXMATH_NO_OVERFLOW
 140:.\libfixmath/fix16.c ****   // The upper 17 bits should all be the same (the sign).
 141:.\libfixmath/fix16.c ****   if (product_hi >> 31 != product_hi >> 15)
 142:.\libfixmath/fix16.c ****     return fix16_overflow;
 143:.\libfixmath/fix16.c **** #endif
 144:.\libfixmath/fix16.c ****   
 145:.\libfixmath/fix16.c **** #ifdef FIXMATH_NO_ROUNDING
 146:.\libfixmath/fix16.c ****   return (product_hi << 16) | (product_lo >> 16);
 147:.\libfixmath/fix16.c **** #else
 148:.\libfixmath/fix16.c ****   // Subtracting 0x8000 (= 0.5) and then using signed right shift
 149:.\libfixmath/fix16.c ****   // achieves proper rounding to result-1, except in the corner
 150:.\libfixmath/fix16.c ****   // case of negative numbers and lowest word = 0x8000.
 151:.\libfixmath/fix16.c ****   // To handle that, we also have to subtract 1 for negative numbers.
 152:.\libfixmath/fix16.c ****   uint32_t product_lo_tmp = product_lo;
 153:.\libfixmath/fix16.c ****   product_lo -= 0x8000;
 154:.\libfixmath/fix16.c ****   product_lo -= (uint32_t)product_hi >> 31;
 155:.\libfixmath/fix16.c ****   if (product_lo > product_lo_tmp)
 156:.\libfixmath/fix16.c ****     product_hi--;
 157:.\libfixmath/fix16.c ****   
 158:.\libfixmath/fix16.c ****   // Discard the lowest 16 bits. Note that this is not exactly the same
 159:.\libfixmath/fix16.c ****   // as dividing by 0x10000. For example if product = -1, result will
 160:.\libfixmath/fix16.c ****   // also be -1 and not 0. This is compensated by adding +1 to the result
 161:.\libfixmath/fix16.c ****   // and compensating this in turn in the rounding above.
 162:.\libfixmath/fix16.c ****   fix16_t result = (product_hi << 16) | (product_lo >> 16);
 163:.\libfixmath/fix16.c ****   result += 1;
 164:.\libfixmath/fix16.c ****   return result;
 165:.\libfixmath/fix16.c **** #endif
 166:.\libfixmath/fix16.c **** }
 167:.\libfixmath/fix16.c **** #endif
 168:.\libfixmath/fix16.c **** 
ARM GAS  C:\Users\Felix\AppData\Local\Temp\ccHz6Ccb.s 			page 12


 169:.\libfixmath/fix16.c **** /* 8-bit implementation of fix16_mul. Fastest on e.g. Atmel AVR.
 170:.\libfixmath/fix16.c ****  * Uses 8*8->16bit multiplications, and also skips any bytes that
 171:.\libfixmath/fix16.c ****  * are zero.
 172:.\libfixmath/fix16.c ****  */
 173:.\libfixmath/fix16.c **** #if defined(FIXMATH_OPTIMIZE_8BIT)
 174:.\libfixmath/fix16.c **** fix16_t fix16_mul(fix16_t inArg0, fix16_t inArg1)
 175:.\libfixmath/fix16.c **** {
 176:.\libfixmath/fix16.c ****   uint32_t _a = (inArg0 >= 0) ? inArg0 : (-inArg0);
 177:.\libfixmath/fix16.c ****   uint32_t _b = (inArg1 >= 0) ? inArg1 : (-inArg1);
 178:.\libfixmath/fix16.c ****   
 179:.\libfixmath/fix16.c ****   uint8_t va[4] = {_a, (_a >> 8), (_a >> 16), (_a >> 24)};
 180:.\libfixmath/fix16.c ****   uint8_t vb[4] = {_b, (_b >> 8), (_b >> 16), (_b >> 24)};
 181:.\libfixmath/fix16.c ****   
 182:.\libfixmath/fix16.c ****   uint32_t low = 0;
 183:.\libfixmath/fix16.c ****   uint32_t mid = 0;
 184:.\libfixmath/fix16.c ****   
 185:.\libfixmath/fix16.c ****   // Result column i depends on va[0..i] and vb[i..0]
 186:.\libfixmath/fix16.c **** 
 187:.\libfixmath/fix16.c ****   #ifndef FIXMATH_NO_OVERFLOW
 188:.\libfixmath/fix16.c ****   // i = 6
 189:.\libfixmath/fix16.c ****   if (va[3] && vb[3]) return fix16_overflow;
 190:.\libfixmath/fix16.c ****   #endif
 191:.\libfixmath/fix16.c ****   
 192:.\libfixmath/fix16.c ****   // i = 5
 193:.\libfixmath/fix16.c ****   if (va[2] && vb[3]) mid += (uint16_t)va[2] * vb[3];
 194:.\libfixmath/fix16.c ****   if (va[3] && vb[2]) mid += (uint16_t)va[3] * vb[2];
 195:.\libfixmath/fix16.c ****   mid <<= 8;
 196:.\libfixmath/fix16.c ****   
 197:.\libfixmath/fix16.c ****   // i = 4
 198:.\libfixmath/fix16.c ****   if (va[1] && vb[3]) mid += (uint16_t)va[1] * vb[3];
 199:.\libfixmath/fix16.c ****   if (va[2] && vb[2]) mid += (uint16_t)va[2] * vb[2];
 200:.\libfixmath/fix16.c ****   if (va[3] && vb[1]) mid += (uint16_t)va[3] * vb[1];
 201:.\libfixmath/fix16.c ****   
 202:.\libfixmath/fix16.c ****   #ifndef FIXMATH_NO_OVERFLOW
 203:.\libfixmath/fix16.c ****   if (mid & 0xFF000000) return fix16_overflow;
 204:.\libfixmath/fix16.c ****   #endif
 205:.\libfixmath/fix16.c ****   mid <<= 8;
 206:.\libfixmath/fix16.c ****   
 207:.\libfixmath/fix16.c ****   // i = 3
 208:.\libfixmath/fix16.c ****   if (va[0] && vb[3]) mid += (uint16_t)va[0] * vb[3];
 209:.\libfixmath/fix16.c ****   if (va[1] && vb[2]) mid += (uint16_t)va[1] * vb[2];
 210:.\libfixmath/fix16.c ****   if (va[2] && vb[1]) mid += (uint16_t)va[2] * vb[1];
 211:.\libfixmath/fix16.c ****   if (va[3] && vb[0]) mid += (uint16_t)va[3] * vb[0];
 212:.\libfixmath/fix16.c ****   
 213:.\libfixmath/fix16.c ****   #ifndef FIXMATH_NO_OVERFLOW
 214:.\libfixmath/fix16.c ****   if (mid & 0xFF000000) return fix16_overflow;
 215:.\libfixmath/fix16.c ****   #endif
 216:.\libfixmath/fix16.c ****   mid <<= 8;
 217:.\libfixmath/fix16.c ****   
 218:.\libfixmath/fix16.c ****   // i = 2
 219:.\libfixmath/fix16.c ****   if (va[0] && vb[2]) mid += (uint16_t)va[0] * vb[2];
 220:.\libfixmath/fix16.c ****   if (va[1] && vb[1]) mid += (uint16_t)va[1] * vb[1];
 221:.\libfixmath/fix16.c ****   if (va[2] && vb[0]) mid += (uint16_t)va[2] * vb[0];    
 222:.\libfixmath/fix16.c ****   
 223:.\libfixmath/fix16.c ****   // i = 1
 224:.\libfixmath/fix16.c ****   if (va[0] && vb[1]) low += (uint16_t)va[0] * vb[1];
 225:.\libfixmath/fix16.c ****   if (va[1] && vb[0]) low += (uint16_t)va[1] * vb[0];
ARM GAS  C:\Users\Felix\AppData\Local\Temp\ccHz6Ccb.s 			page 13


 226:.\libfixmath/fix16.c ****   low <<= 8;
 227:.\libfixmath/fix16.c ****   
 228:.\libfixmath/fix16.c ****   // i = 0
 229:.\libfixmath/fix16.c ****   if (va[0] && vb[0]) low += (uint16_t)va[0] * vb[0];
 230:.\libfixmath/fix16.c ****   
 231:.\libfixmath/fix16.c ****   #ifndef FIXMATH_NO_ROUNDING
 232:.\libfixmath/fix16.c ****   low += 0x8000;
 233:.\libfixmath/fix16.c ****   #endif
 234:.\libfixmath/fix16.c ****   mid += (low >> 16);
 235:.\libfixmath/fix16.c ****   
 236:.\libfixmath/fix16.c ****   #ifndef FIXMATH_NO_OVERFLOW
 237:.\libfixmath/fix16.c ****   if (mid & 0x80000000)
 238:.\libfixmath/fix16.c ****     return fix16_overflow;
 239:.\libfixmath/fix16.c ****   #endif
 240:.\libfixmath/fix16.c ****   
 241:.\libfixmath/fix16.c ****   fix16_t result = mid;
 242:.\libfixmath/fix16.c ****   
 243:.\libfixmath/fix16.c ****   /* Figure out the sign of result */
 244:.\libfixmath/fix16.c ****   if ((inArg0 >= 0) != (inArg1 >= 0))
 245:.\libfixmath/fix16.c ****   {
 246:.\libfixmath/fix16.c ****     result = -result;
 247:.\libfixmath/fix16.c ****   }
 248:.\libfixmath/fix16.c ****   
 249:.\libfixmath/fix16.c ****   return result;
 250:.\libfixmath/fix16.c **** }
 251:.\libfixmath/fix16.c **** #endif
 252:.\libfixmath/fix16.c **** 
 253:.\libfixmath/fix16.c **** #ifndef FIXMATH_NO_OVERFLOW
 254:.\libfixmath/fix16.c **** /* Wrapper around fix16_mul to add saturating arithmetic. */
 255:.\libfixmath/fix16.c **** fix16_t fix16_smul(fix16_t inArg0, fix16_t inArg1) {
 460              		.loc 1 255 0
 461              		.cfi_startproc
 462 0000 80B5     		push	{r7, lr}
 463              		.cfi_def_cfa_offset 8
 464              		.cfi_offset 7, -8
 465              		.cfi_offset 14, -4
 466 0002 84B0     		sub	sp, sp, #16
 467              		.cfi_def_cfa_offset 24
 468 0004 00AF     		add	r7, sp, #0
 469              		.cfi_def_cfa_register 7
 470 0006 7860     		str	r0, [r7, #4]
 471 0008 3960     		str	r1, [r7]
 256:.\libfixmath/fix16.c ****   fix16_t result = fix16_mul(inArg0, inArg1);
 472              		.loc 1 256 0
 473 000a 7A68     		ldr	r2, [r7, #4]
 474 000c 3B68     		ldr	r3, [r7]
 475 000e 101C     		mov	r0, r2
 476 0010 191C     		mov	r1, r3
 477 0012 FFF7FEFF 		bl	fix16_mul
 478 0016 031C     		mov	r3, r0
 479 0018 FB60     		str	r3, [r7, #12]
 257:.\libfixmath/fix16.c ****   
 258:.\libfixmath/fix16.c ****   if (result == fix16_overflow)
 480              		.loc 1 258 0
 481 001a 8023     		mov	r3, #128
 482 001c 1B06     		lsl	r3, r3, #24
 483 001e FA68     		ldr	r2, [r7, #12]
ARM GAS  C:\Users\Felix\AppData\Local\Temp\ccHz6Ccb.s 			page 14


 484 0020 9A42     		cmp	r2, r3
 485 0022 0FD1     		bne	.L28
 259:.\libfixmath/fix16.c ****   {
 260:.\libfixmath/fix16.c ****     if ((inArg0 >= 0) == (inArg1 >= 0))
 486              		.loc 1 260 0
 487 0024 7B68     		ldr	r3, [r7, #4]
 488 0026 DB0F     		lsr	r3, r3, #31
 489 0028 DAB2     		uxtb	r2, r3
 490 002a 3B68     		ldr	r3, [r7]
 491 002c DB43     		mvn	r3, r3
 492 002e DB0F     		lsr	r3, r3, #31
 493 0030 DBB2     		uxtb	r3, r3
 494 0032 5340     		eor	r3, r2
 495 0034 DBB2     		uxtb	r3, r3
 496 0036 002B     		cmp	r3, #0
 497 0038 01D0     		beq	.L29
 261:.\libfixmath/fix16.c ****       return fix16_max;
 498              		.loc 1 261 0
 499 003a 054B     		ldr	r3, .L31
 500 003c 03E0     		b	.L30
 501              	.L29:
 262:.\libfixmath/fix16.c ****     else
 263:.\libfixmath/fix16.c ****       return fix16_min;
 502              		.loc 1 263 0
 503 003e 8023     		mov	r3, #128
 504 0040 1B06     		lsl	r3, r3, #24
 505 0042 00E0     		b	.L30
 506              	.L28:
 264:.\libfixmath/fix16.c ****   }
 265:.\libfixmath/fix16.c ****   
 266:.\libfixmath/fix16.c ****   return result;
 507              		.loc 1 266 0
 508 0044 FB68     		ldr	r3, [r7, #12]
 509              	.L30:
 267:.\libfixmath/fix16.c **** }
 510              		.loc 1 267 0
 511 0046 181C     		mov	r0, r3
 512 0048 BD46     		mov	sp, r7
 513 004a 04B0     		add	sp, sp, #16
 514              		@ sp needed
 515 004c 80BD     		pop	{r7, pc}
 516              	.L32:
 517 004e C046     		.align	2
 518              	.L31:
 519 0050 FFFFFF7F 		.word	2147483647
 520              		.cfi_endproc
 521              	.LFE11:
 522              		.size	fix16_smul, .-fix16_smul
 523              		.global	__aeabi_uidiv
 524              		.global	__clzsi2
 525              		.global	__aeabi_uidivmod
 526              		.section	.text.fix16_div,"ax",%progbits
 527              		.align	2
 528              		.global	fix16_div
 529              		.code	16
 530              		.thumb_func
 531              		.type	fix16_div, %function
ARM GAS  C:\Users\Felix\AppData\Local\Temp\ccHz6Ccb.s 			page 15


 532              	fix16_div:
 533              	.LFB12:
 268:.\libfixmath/fix16.c **** #endif
 269:.\libfixmath/fix16.c **** 
 270:.\libfixmath/fix16.c **** /* 32-bit implementation of fix16_div. Fastest version for e.g. ARM Cortex M3.
 271:.\libfixmath/fix16.c ****  * Performs 32-bit divisions repeatedly to reduce the remainder. For this to
 272:.\libfixmath/fix16.c ****  * be efficient, the processor has to have 32-bit hardware division.
 273:.\libfixmath/fix16.c ****  */
 274:.\libfixmath/fix16.c **** #if !defined(FIXMATH_OPTIMIZE_8BIT)
 275:.\libfixmath/fix16.c **** #ifdef __GNUC__
 276:.\libfixmath/fix16.c **** // Count leading zeros, using processor-specific instruction if available.
 277:.\libfixmath/fix16.c **** #define clz(x) __builtin_clzl(x)
 278:.\libfixmath/fix16.c **** #else
 279:.\libfixmath/fix16.c **** static uint8_t clz(uint32_t x)
 280:.\libfixmath/fix16.c **** {
 281:.\libfixmath/fix16.c ****   uint8_t result = 0;
 282:.\libfixmath/fix16.c ****   if (x == 0) return 32;
 283:.\libfixmath/fix16.c ****   while (!(x & 0xF0000000)) { result += 4; x <<= 4; }
 284:.\libfixmath/fix16.c ****   while (!(x & 0x80000000)) { result += 1; x <<= 1; }
 285:.\libfixmath/fix16.c ****   return result;
 286:.\libfixmath/fix16.c **** }
 287:.\libfixmath/fix16.c **** #endif
 288:.\libfixmath/fix16.c **** 
 289:.\libfixmath/fix16.c **** fix16_t fix16_div(fix16_t a, fix16_t b)
 290:.\libfixmath/fix16.c **** {
 534              		.loc 1 290 0
 535              		.cfi_startproc
 536 0000 B0B5     		push	{r4, r5, r7, lr}
 537              		.cfi_def_cfa_offset 16
 538              		.cfi_offset 4, -16
 539              		.cfi_offset 5, -12
 540              		.cfi_offset 7, -8
 541              		.cfi_offset 14, -4
 542 0002 8EB0     		sub	sp, sp, #56
 543              		.cfi_def_cfa_offset 72
 544 0004 00AF     		add	r7, sp, #0
 545              		.cfi_def_cfa_register 7
 546 0006 7861     		str	r0, [r7, #20]
 547 0008 3961     		str	r1, [r7, #16]
 291:.\libfixmath/fix16.c ****   // This uses a hardware 32/32 bit division multiple times, until we have
 292:.\libfixmath/fix16.c ****   // computed all the bits in (a<<17)/b. Usually this takes 1-3 iterations.
 293:.\libfixmath/fix16.c ****   
 294:.\libfixmath/fix16.c ****   if (b == 0)
 548              		.loc 1 294 0
 549 000a 3B69     		ldr	r3, [r7, #16]
 550 000c 002B     		cmp	r3, #0
 551 000e 02D1     		bne	.L34
 295:.\libfixmath/fix16.c ****       return fix16_min;
 552              		.loc 1 295 0
 553 0010 8023     		mov	r3, #128
 554 0012 1B06     		lsl	r3, r3, #24
 555 0014 9CE0     		b	.L35
 556              	.L34:
 296:.\libfixmath/fix16.c ****   
 297:.\libfixmath/fix16.c ****   uint32_t remainder = (a >= 0) ? a : (-a);
 557              		.loc 1 297 0
 558 0016 7B69     		ldr	r3, [r7, #20]
ARM GAS  C:\Users\Felix\AppData\Local\Temp\ccHz6Ccb.s 			page 16


 559 0018 D917     		asr	r1, r3, #31
 560 001a 5B18     		add	r3, r3, r1
 561 001c 4B40     		eor	r3, r1
 562 001e 7B63     		str	r3, [r7, #52]
 298:.\libfixmath/fix16.c ****   uint32_t divider = (b >= 0) ? b : (-b);
 563              		.loc 1 298 0
 564 0020 3B69     		ldr	r3, [r7, #16]
 565 0022 DA17     		asr	r2, r3, #31
 566 0024 9B18     		add	r3, r3, r2
 567 0026 5340     		eor	r3, r2
 568 0028 3B63     		str	r3, [r7, #48]
 299:.\libfixmath/fix16.c ****   uint32_t quotient = 0;
 569              		.loc 1 299 0
 570 002a 0023     		mov	r3, #0
 571 002c FB62     		str	r3, [r7, #44]
 300:.\libfixmath/fix16.c ****   int bit_pos = 17;
 572              		.loc 1 300 0
 573 002e 1123     		mov	r3, #17
 574 0030 BB62     		str	r3, [r7, #40]
 301:.\libfixmath/fix16.c ****   
 302:.\libfixmath/fix16.c ****   // Kick-start the division a bit.
 303:.\libfixmath/fix16.c ****   // This improves speed in the worst-case scenarios where N and D are large
 304:.\libfixmath/fix16.c ****   // It gets a lower estimate for the result by N/(D >> 17 + 1).
 305:.\libfixmath/fix16.c ****   if (divider & 0xFFF00000)
 575              		.loc 1 305 0
 576 0032 3B6B     		ldr	r3, [r7, #48]
 577 0034 1B0D     		lsr	r3, r3, #20
 578 0036 1B05     		lsl	r3, r3, #20
 579 0038 22D0     		beq	.L36
 580              	.LBB2:
 306:.\libfixmath/fix16.c ****   {
 307:.\libfixmath/fix16.c ****     uint32_t shifted_div = ((divider >> 17) + 1);
 581              		.loc 1 307 0
 582 003a 3B6B     		ldr	r3, [r7, #48]
 583 003c 5B0C     		lsr	r3, r3, #17
 584 003e 0133     		add	r3, r3, #1
 585 0040 FB61     		str	r3, [r7, #28]
 308:.\libfixmath/fix16.c ****     quotient = remainder / shifted_div;
 586              		.loc 1 308 0
 587 0042 786B     		ldr	r0, [r7, #52]
 588 0044 F969     		ldr	r1, [r7, #28]
 589 0046 FFF7FEFF 		bl	__aeabi_uidiv
 590 004a 031C     		mov	r3, r0
 591 004c FB62     		str	r3, [r7, #44]
 309:.\libfixmath/fix16.c ****     remainder -= ((uint64_t)quotient * divider) >> 17;
 592              		.loc 1 309 0
 593 004e FB6A     		ldr	r3, [r7, #44]
 594 0050 BB60     		str	r3, [r7, #8]
 595 0052 0023     		mov	r3, #0
 596 0054 FB60     		str	r3, [r7, #12]
 597 0056 3B6B     		ldr	r3, [r7, #48]
 598 0058 3B60     		str	r3, [r7]
 599 005a 0023     		mov	r3, #0
 600 005c 7B60     		str	r3, [r7, #4]
 601 005e B868     		ldr	r0, [r7, #8]
 602 0060 F968     		ldr	r1, [r7, #12]
 603 0062 3A68     		ldr	r2, [r7]
ARM GAS  C:\Users\Felix\AppData\Local\Temp\ccHz6Ccb.s 			page 17


 604 0064 7B68     		ldr	r3, [r7, #4]
 605 0066 FFF7FEFF 		bl	__aeabi_lmul
 606 006a 021C     		mov	r2, r0
 607 006c 0B1C     		mov	r3, r1
 608 006e D903     		lsl	r1, r3, #15
 609 0070 540C     		lsr	r4, r2, #17
 610 0072 0C43     		orr	r4, r1
 611 0074 5D0C     		lsr	r5, r3, #17
 612 0076 231C     		mov	r3, r4
 613 0078 7A6B     		ldr	r2, [r7, #52]
 614 007a D31A     		sub	r3, r2, r3
 615 007c 7B63     		str	r3, [r7, #52]
 616              	.LBE2:
 310:.\libfixmath/fix16.c ****   }
 311:.\libfixmath/fix16.c ****   
 312:.\libfixmath/fix16.c ****   // If the divider is divisible by 2^n, take advantage of it.
 313:.\libfixmath/fix16.c ****   while (!(divider & 0xF) && bit_pos >= 4)
 617              		.loc 1 313 0
 618 007e 06E0     		b	.L37
 619              	.L36:
 620 0080 05E0     		b	.L37
 621              	.L39:
 314:.\libfixmath/fix16.c ****   {
 315:.\libfixmath/fix16.c ****     divider >>= 4;
 622              		.loc 1 315 0
 623 0082 3B6B     		ldr	r3, [r7, #48]
 624 0084 1B09     		lsr	r3, r3, #4
 625 0086 3B63     		str	r3, [r7, #48]
 316:.\libfixmath/fix16.c ****     bit_pos -= 4;
 626              		.loc 1 316 0
 627 0088 BB6A     		ldr	r3, [r7, #40]
 628 008a 043B     		sub	r3, r3, #4
 629 008c BB62     		str	r3, [r7, #40]
 630              	.L37:
 313:.\libfixmath/fix16.c ****   while (!(divider & 0xF) && bit_pos >= 4)
 631              		.loc 1 313 0 discriminator 1
 632 008e 3A6B     		ldr	r2, [r7, #48]
 633 0090 0F23     		mov	r3, #15
 634 0092 1340     		and	r3, r2
 635 0094 02D1     		bne	.L38
 313:.\libfixmath/fix16.c ****   while (!(divider & 0xF) && bit_pos >= 4)
 636              		.loc 1 313 0 is_stmt 0 discriminator 2
 637 0096 BB6A     		ldr	r3, [r7, #40]
 638 0098 032B     		cmp	r3, #3
 639 009a F2DC     		bgt	.L39
 640              	.L38:
 317:.\libfixmath/fix16.c ****   }
 318:.\libfixmath/fix16.c ****   
 319:.\libfixmath/fix16.c ****   while (remainder && bit_pos >= 0)
 641              		.loc 1 319 0 is_stmt 1
 642 009c 3CE0     		b	.L40
 643              	.L44:
 644              	.LBB3:
 320:.\libfixmath/fix16.c ****   {
 321:.\libfixmath/fix16.c ****     // Shift remainder as much as we can without overflowing
 322:.\libfixmath/fix16.c ****     int shift = clz(remainder);
 645              		.loc 1 322 0
ARM GAS  C:\Users\Felix\AppData\Local\Temp\ccHz6Ccb.s 			page 18


 646 009e 786B     		ldr	r0, [r7, #52]
 647 00a0 FFF7FEFF 		bl	__clzsi2
 648 00a4 031C     		mov	r3, r0
 649 00a6 7B62     		str	r3, [r7, #36]
 323:.\libfixmath/fix16.c ****     if (shift > bit_pos) shift = bit_pos;
 650              		.loc 1 323 0
 651 00a8 7A6A     		ldr	r2, [r7, #36]
 652 00aa BB6A     		ldr	r3, [r7, #40]
 653 00ac 9A42     		cmp	r2, r3
 654 00ae 01DD     		ble	.L41
 655              		.loc 1 323 0 is_stmt 0 discriminator 1
 656 00b0 BB6A     		ldr	r3, [r7, #40]
 657 00b2 7B62     		str	r3, [r7, #36]
 658              	.L41:
 324:.\libfixmath/fix16.c ****     remainder <<= shift;
 659              		.loc 1 324 0 is_stmt 1
 660 00b4 7A6B     		ldr	r2, [r7, #52]
 661 00b6 7B6A     		ldr	r3, [r7, #36]
 662 00b8 111C     		mov	r1, r2
 663 00ba 9940     		lsl	r1, r1, r3
 664 00bc 0B1C     		mov	r3, r1
 665 00be 7B63     		str	r3, [r7, #52]
 325:.\libfixmath/fix16.c ****     bit_pos -= shift;
 666              		.loc 1 325 0
 667 00c0 BA6A     		ldr	r2, [r7, #40]
 668 00c2 7B6A     		ldr	r3, [r7, #36]
 669 00c4 D31A     		sub	r3, r2, r3
 670 00c6 BB62     		str	r3, [r7, #40]
 326:.\libfixmath/fix16.c ****     
 327:.\libfixmath/fix16.c ****     uint32_t div = remainder / divider;
 671              		.loc 1 327 0
 672 00c8 786B     		ldr	r0, [r7, #52]
 673 00ca 396B     		ldr	r1, [r7, #48]
 674 00cc FFF7FEFF 		bl	__aeabi_uidiv
 675 00d0 031C     		mov	r3, r0
 676 00d2 BB61     		str	r3, [r7, #24]
 328:.\libfixmath/fix16.c ****     remainder = remainder % divider;
 677              		.loc 1 328 0
 678 00d4 7B6B     		ldr	r3, [r7, #52]
 679 00d6 181C     		mov	r0, r3
 680 00d8 396B     		ldr	r1, [r7, #48]
 681 00da FFF7FEFF 		bl	__aeabi_uidivmod
 682 00de 0B1C     		mov	r3, r1
 683 00e0 7B63     		str	r3, [r7, #52]
 329:.\libfixmath/fix16.c ****     quotient += div << bit_pos;
 684              		.loc 1 329 0
 685 00e2 BA69     		ldr	r2, [r7, #24]
 686 00e4 BB6A     		ldr	r3, [r7, #40]
 687 00e6 111C     		mov	r1, r2
 688 00e8 9940     		lsl	r1, r1, r3
 689 00ea 0B1C     		mov	r3, r1
 690 00ec FA6A     		ldr	r2, [r7, #44]
 691 00ee D318     		add	r3, r2, r3
 692 00f0 FB62     		str	r3, [r7, #44]
 330:.\libfixmath/fix16.c **** 
 331:.\libfixmath/fix16.c ****     #ifndef FIXMATH_NO_OVERFLOW
 332:.\libfixmath/fix16.c ****     if (div & ~(0xFFFFFFFF >> bit_pos))
ARM GAS  C:\Users\Felix\AppData\Local\Temp\ccHz6Ccb.s 			page 19


 693              		.loc 1 332 0
 694 00f2 0123     		mov	r3, #1
 695 00f4 5A42     		neg	r2, r3
 696 00f6 BB6A     		ldr	r3, [r7, #40]
 697 00f8 111C     		mov	r1, r2
 698 00fa D940     		lsr	r1, r1, r3
 699 00fc 0B1C     		mov	r3, r1
 700 00fe DB43     		mvn	r3, r3
 701 0100 BA69     		ldr	r2, [r7, #24]
 702 0102 1340     		and	r3, r2
 703 0104 02D0     		beq	.L42
 333:.\libfixmath/fix16.c ****         return fix16_overflow;
 704              		.loc 1 333 0
 705 0106 8023     		mov	r3, #128
 706 0108 1B06     		lsl	r3, r3, #24
 707 010a 21E0     		b	.L35
 708              	.L42:
 334:.\libfixmath/fix16.c ****     #endif
 335:.\libfixmath/fix16.c ****     
 336:.\libfixmath/fix16.c ****     remainder <<= 1;
 709              		.loc 1 336 0
 710 010c 7B6B     		ldr	r3, [r7, #52]
 711 010e 5B00     		lsl	r3, r3, #1
 712 0110 7B63     		str	r3, [r7, #52]
 337:.\libfixmath/fix16.c ****     bit_pos--;
 713              		.loc 1 337 0
 714 0112 BB6A     		ldr	r3, [r7, #40]
 715 0114 013B     		sub	r3, r3, #1
 716 0116 BB62     		str	r3, [r7, #40]
 717              	.L40:
 718              	.LBE3:
 319:.\libfixmath/fix16.c ****   while (remainder && bit_pos >= 0)
 719              		.loc 1 319 0 discriminator 1
 720 0118 7B6B     		ldr	r3, [r7, #52]
 721 011a 002B     		cmp	r3, #0
 722 011c 02D0     		beq	.L43
 319:.\libfixmath/fix16.c ****   while (remainder && bit_pos >= 0)
 723              		.loc 1 319 0 is_stmt 0 discriminator 2
 724 011e BB6A     		ldr	r3, [r7, #40]
 725 0120 002B     		cmp	r3, #0
 726 0122 BCDA     		bge	.L44
 727              	.L43:
 338:.\libfixmath/fix16.c ****   }
 339:.\libfixmath/fix16.c ****   
 340:.\libfixmath/fix16.c ****   #ifndef FIXMATH_NO_ROUNDING
 341:.\libfixmath/fix16.c ****   // Quotient is always positive so rounding is easy
 342:.\libfixmath/fix16.c ****   quotient++;
 728              		.loc 1 342 0 is_stmt 1
 729 0124 FB6A     		ldr	r3, [r7, #44]
 730 0126 0133     		add	r3, r3, #1
 731 0128 FB62     		str	r3, [r7, #44]
 343:.\libfixmath/fix16.c ****   #endif
 344:.\libfixmath/fix16.c ****   
 345:.\libfixmath/fix16.c ****   fix16_t result = quotient >> 1;
 732              		.loc 1 345 0
 733 012a FB6A     		ldr	r3, [r7, #44]
 734 012c 5B08     		lsr	r3, r3, #1
ARM GAS  C:\Users\Felix\AppData\Local\Temp\ccHz6Ccb.s 			page 20


 735 012e 3B62     		str	r3, [r7, #32]
 346:.\libfixmath/fix16.c ****   
 347:.\libfixmath/fix16.c ****   // Figure out the sign of the result
 348:.\libfixmath/fix16.c ****   if ((a ^ b) & 0x80000000)
 736              		.loc 1 348 0
 737 0130 7A69     		ldr	r2, [r7, #20]
 738 0132 3B69     		ldr	r3, [r7, #16]
 739 0134 5340     		eor	r3, r2
 740 0136 0AD5     		bpl	.L45
 349:.\libfixmath/fix16.c ****   {
 350:.\libfixmath/fix16.c ****     #ifndef FIXMATH_NO_OVERFLOW
 351:.\libfixmath/fix16.c ****     if (result == fix16_min)
 741              		.loc 1 351 0
 742 0138 8023     		mov	r3, #128
 743 013a 1B06     		lsl	r3, r3, #24
 744 013c 3A6A     		ldr	r2, [r7, #32]
 745 013e 9A42     		cmp	r2, r3
 746 0140 02D1     		bne	.L46
 352:.\libfixmath/fix16.c ****         return fix16_overflow;
 747              		.loc 1 352 0
 748 0142 8023     		mov	r3, #128
 749 0144 1B06     		lsl	r3, r3, #24
 750 0146 03E0     		b	.L35
 751              	.L46:
 353:.\libfixmath/fix16.c ****     #endif
 354:.\libfixmath/fix16.c ****     
 355:.\libfixmath/fix16.c ****     result = -result;
 752              		.loc 1 355 0
 753 0148 3B6A     		ldr	r3, [r7, #32]
 754 014a 5B42     		neg	r3, r3
 755 014c 3B62     		str	r3, [r7, #32]
 756              	.L45:
 356:.\libfixmath/fix16.c ****   }
 357:.\libfixmath/fix16.c ****   
 358:.\libfixmath/fix16.c ****   return result;
 757              		.loc 1 358 0
 758 014e 3B6A     		ldr	r3, [r7, #32]
 759              	.L35:
 359:.\libfixmath/fix16.c **** }
 760              		.loc 1 359 0
 761 0150 181C     		mov	r0, r3
 762 0152 BD46     		mov	sp, r7
 763 0154 0EB0     		add	sp, sp, #56
 764              		@ sp needed
 765 0156 B0BD     		pop	{r4, r5, r7, pc}
 766              		.cfi_endproc
 767              	.LFE12:
 768              		.size	fix16_div, .-fix16_div
 769              		.section	.text.fix16_sdiv,"ax",%progbits
 770              		.align	2
 771              		.global	fix16_sdiv
 772              		.code	16
 773              		.thumb_func
 774              		.type	fix16_sdiv, %function
 775              	fix16_sdiv:
 776              	.LFB13:
 360:.\libfixmath/fix16.c **** #endif
ARM GAS  C:\Users\Felix\AppData\Local\Temp\ccHz6Ccb.s 			page 21


 361:.\libfixmath/fix16.c **** 
 362:.\libfixmath/fix16.c **** /* Alternative 32-bit implementation of fix16_div. Fastest on e.g. Atmel AVR.
 363:.\libfixmath/fix16.c ****  * This does the division manually, and is therefore good for processors that
 364:.\libfixmath/fix16.c ****  * do not have hardware division.
 365:.\libfixmath/fix16.c ****  */
 366:.\libfixmath/fix16.c **** #if defined(FIXMATH_OPTIMIZE_8BIT)
 367:.\libfixmath/fix16.c **** fix16_t fix16_div(fix16_t a, fix16_t b)
 368:.\libfixmath/fix16.c **** {
 369:.\libfixmath/fix16.c ****   // This uses the basic binary restoring division algorithm.
 370:.\libfixmath/fix16.c ****   // It appears to be faster to do the whole division manually than
 371:.\libfixmath/fix16.c ****   // trying to compose a 64-bit divide out of 32-bit divisions on
 372:.\libfixmath/fix16.c ****   // platforms without hardware divide.
 373:.\libfixmath/fix16.c ****   
 374:.\libfixmath/fix16.c ****   if (b == 0)
 375:.\libfixmath/fix16.c ****     return fix16_min;
 376:.\libfixmath/fix16.c ****   
 377:.\libfixmath/fix16.c ****   uint32_t remainder = (a >= 0) ? a : (-a);
 378:.\libfixmath/fix16.c ****   uint32_t divider = (b >= 0) ? b : (-b);
 379:.\libfixmath/fix16.c **** 
 380:.\libfixmath/fix16.c ****   uint32_t quotient = 0;
 381:.\libfixmath/fix16.c ****   uint32_t bit = 0x10000;
 382:.\libfixmath/fix16.c ****   
 383:.\libfixmath/fix16.c ****   /* The algorithm requires D >= R */
 384:.\libfixmath/fix16.c ****   while (divider < remainder)
 385:.\libfixmath/fix16.c ****   {
 386:.\libfixmath/fix16.c ****     divider <<= 1;
 387:.\libfixmath/fix16.c ****     bit <<= 1;
 388:.\libfixmath/fix16.c ****   }
 389:.\libfixmath/fix16.c ****   
 390:.\libfixmath/fix16.c ****   #ifndef FIXMATH_NO_OVERFLOW
 391:.\libfixmath/fix16.c ****   if (!bit)
 392:.\libfixmath/fix16.c ****     return fix16_overflow;
 393:.\libfixmath/fix16.c ****   #endif
 394:.\libfixmath/fix16.c ****   
 395:.\libfixmath/fix16.c ****   if (divider & 0x80000000)
 396:.\libfixmath/fix16.c ****   {
 397:.\libfixmath/fix16.c ****     // Perform one step manually to avoid overflows later.
 398:.\libfixmath/fix16.c ****     // We know that divider's bottom bit is 0 here.
 399:.\libfixmath/fix16.c ****     if (remainder >= divider)
 400:.\libfixmath/fix16.c ****     {
 401:.\libfixmath/fix16.c ****         quotient |= bit;
 402:.\libfixmath/fix16.c ****         remainder -= divider;
 403:.\libfixmath/fix16.c ****     }
 404:.\libfixmath/fix16.c ****     divider >>= 1;
 405:.\libfixmath/fix16.c ****     bit >>= 1;
 406:.\libfixmath/fix16.c ****   }
 407:.\libfixmath/fix16.c ****   
 408:.\libfixmath/fix16.c ****   /* Main division loop */
 409:.\libfixmath/fix16.c ****   while (bit && remainder)
 410:.\libfixmath/fix16.c ****   {
 411:.\libfixmath/fix16.c ****     if (remainder >= divider)
 412:.\libfixmath/fix16.c ****     {
 413:.\libfixmath/fix16.c ****         quotient |= bit;
 414:.\libfixmath/fix16.c ****         remainder -= divider;
 415:.\libfixmath/fix16.c ****     }
 416:.\libfixmath/fix16.c ****     
 417:.\libfixmath/fix16.c ****     remainder <<= 1;
ARM GAS  C:\Users\Felix\AppData\Local\Temp\ccHz6Ccb.s 			page 22


 418:.\libfixmath/fix16.c ****     bit >>= 1;
 419:.\libfixmath/fix16.c ****   }   
 420:.\libfixmath/fix16.c ****       
 421:.\libfixmath/fix16.c ****   #ifndef FIXMATH_NO_ROUNDING
 422:.\libfixmath/fix16.c ****   if (remainder >= divider)
 423:.\libfixmath/fix16.c ****   {
 424:.\libfixmath/fix16.c ****     quotient++;
 425:.\libfixmath/fix16.c ****   }
 426:.\libfixmath/fix16.c ****   #endif
 427:.\libfixmath/fix16.c ****   
 428:.\libfixmath/fix16.c ****   fix16_t result = quotient;
 429:.\libfixmath/fix16.c ****   
 430:.\libfixmath/fix16.c ****   /* Figure out the sign of result */
 431:.\libfixmath/fix16.c ****   if ((a ^ b) & 0x80000000)
 432:.\libfixmath/fix16.c ****   {
 433:.\libfixmath/fix16.c ****     #ifndef FIXMATH_NO_OVERFLOW
 434:.\libfixmath/fix16.c ****     if (result == fix16_min)
 435:.\libfixmath/fix16.c ****         return fix16_overflow;
 436:.\libfixmath/fix16.c ****     #endif
 437:.\libfixmath/fix16.c ****     
 438:.\libfixmath/fix16.c ****     result = -result;
 439:.\libfixmath/fix16.c ****   }
 440:.\libfixmath/fix16.c ****   
 441:.\libfixmath/fix16.c ****   return result;
 442:.\libfixmath/fix16.c **** }
 443:.\libfixmath/fix16.c **** #endif
 444:.\libfixmath/fix16.c **** 
 445:.\libfixmath/fix16.c **** #ifndef FIXMATH_NO_OVERFLOW
 446:.\libfixmath/fix16.c **** /* Wrapper around fix16_div to add saturating arithmetic. */
 447:.\libfixmath/fix16.c **** fix16_t fix16_sdiv(fix16_t inArg0, fix16_t inArg1) {
 777              		.loc 1 447 0
 778              		.cfi_startproc
 779 0000 80B5     		push	{r7, lr}
 780              		.cfi_def_cfa_offset 8
 781              		.cfi_offset 7, -8
 782              		.cfi_offset 14, -4
 783 0002 84B0     		sub	sp, sp, #16
 784              		.cfi_def_cfa_offset 24
 785 0004 00AF     		add	r7, sp, #0
 786              		.cfi_def_cfa_register 7
 787 0006 7860     		str	r0, [r7, #4]
 788 0008 3960     		str	r1, [r7]
 448:.\libfixmath/fix16.c ****   fix16_t result = fix16_div(inArg0, inArg1);
 789              		.loc 1 448 0
 790 000a 7A68     		ldr	r2, [r7, #4]
 791 000c 3B68     		ldr	r3, [r7]
 792 000e 101C     		mov	r0, r2
 793 0010 191C     		mov	r1, r3
 794 0012 FFF7FEFF 		bl	fix16_div
 795 0016 031C     		mov	r3, r0
 796 0018 FB60     		str	r3, [r7, #12]
 449:.\libfixmath/fix16.c ****   
 450:.\libfixmath/fix16.c ****   if (result == fix16_overflow)
 797              		.loc 1 450 0
 798 001a 8023     		mov	r3, #128
 799 001c 1B06     		lsl	r3, r3, #24
 800 001e FA68     		ldr	r2, [r7, #12]
ARM GAS  C:\Users\Felix\AppData\Local\Temp\ccHz6Ccb.s 			page 23


 801 0020 9A42     		cmp	r2, r3
 802 0022 0FD1     		bne	.L48
 451:.\libfixmath/fix16.c ****   {
 452:.\libfixmath/fix16.c ****     if ((inArg0 >= 0) == (inArg1 >= 0))
 803              		.loc 1 452 0
 804 0024 7B68     		ldr	r3, [r7, #4]
 805 0026 DB0F     		lsr	r3, r3, #31
 806 0028 DAB2     		uxtb	r2, r3
 807 002a 3B68     		ldr	r3, [r7]
 808 002c DB43     		mvn	r3, r3
 809 002e DB0F     		lsr	r3, r3, #31
 810 0030 DBB2     		uxtb	r3, r3
 811 0032 5340     		eor	r3, r2
 812 0034 DBB2     		uxtb	r3, r3
 813 0036 002B     		cmp	r3, #0
 814 0038 01D0     		beq	.L49
 453:.\libfixmath/fix16.c ****       return fix16_max;
 815              		.loc 1 453 0
 816 003a 054B     		ldr	r3, .L51
 817 003c 03E0     		b	.L50
 818              	.L49:
 454:.\libfixmath/fix16.c ****     else
 455:.\libfixmath/fix16.c ****       return fix16_min;
 819              		.loc 1 455 0
 820 003e 8023     		mov	r3, #128
 821 0040 1B06     		lsl	r3, r3, #24
 822 0042 00E0     		b	.L50
 823              	.L48:
 456:.\libfixmath/fix16.c ****   }
 457:.\libfixmath/fix16.c ****   
 458:.\libfixmath/fix16.c ****   return result;
 824              		.loc 1 458 0
 825 0044 FB68     		ldr	r3, [r7, #12]
 826              	.L50:
 459:.\libfixmath/fix16.c **** }
 827              		.loc 1 459 0
 828 0046 181C     		mov	r0, r3
 829 0048 BD46     		mov	sp, r7
 830 004a 04B0     		add	sp, sp, #16
 831              		@ sp needed
 832 004c 80BD     		pop	{r7, pc}
 833              	.L52:
 834 004e C046     		.align	2
 835              	.L51:
 836 0050 FFFFFF7F 		.word	2147483647
 837              		.cfi_endproc
 838              	.LFE13:
 839              		.size	fix16_sdiv, .-fix16_sdiv
 840              		.section	.text.fix16_lerp8,"ax",%progbits
 841              		.align	2
 842              		.global	fix16_lerp8
 843              		.code	16
 844              		.thumb_func
 845              		.type	fix16_lerp8, %function
 846              	fix16_lerp8:
 847              	.LFB14:
 460:.\libfixmath/fix16.c **** #endif
ARM GAS  C:\Users\Felix\AppData\Local\Temp\ccHz6Ccb.s 			page 24


 461:.\libfixmath/fix16.c **** 
 462:.\libfixmath/fix16.c **** fix16_t fix16_lerp8(fix16_t inArg0, fix16_t inArg1, uint8_t inFract) {
 848              		.loc 1 462 0
 849              		.cfi_startproc
 850 0000 90B5     		push	{r4, r7, lr}
 851              		.cfi_def_cfa_offset 12
 852              		.cfi_offset 4, -12
 853              		.cfi_offset 7, -8
 854              		.cfi_offset 14, -4
 855 0002 87B0     		sub	sp, sp, #28
 856              		.cfi_def_cfa_offset 40
 857 0004 00AF     		add	r7, sp, #0
 858              		.cfi_def_cfa_register 7
 859 0006 F860     		str	r0, [r7, #12]
 860 0008 B960     		str	r1, [r7, #8]
 861 000a FB1D     		add	r3, r7, #7
 862 000c 1A70     		strb	r2, [r3]
 463:.\libfixmath/fix16.c **** 	int64_t tempOut = int64_mul_i32_i32(inArg0, ((1 << 8) - inFract));
 863              		.loc 1 463 0
 864 000e FB1D     		add	r3, r7, #7
 865 0010 1B78     		ldrb	r3, [r3]
 866 0012 8022     		mov	r2, #128
 867 0014 5200     		lsl	r2, r2, #1
 868 0016 D31A     		sub	r3, r2, r3
 869 0018 FA68     		ldr	r2, [r7, #12]
 870 001a 101C     		mov	r0, r2
 871 001c 191C     		mov	r1, r3
 872 001e FFF7FEFF 		bl	int64_mul_i32_i32
 873 0022 031C     		mov	r3, r0
 874 0024 3B61     		str	r3, [r7, #16]
 875 0026 DB17     		asr	r3, r3, #31
 876 0028 7B61     		str	r3, [r7, #20]
 464:.\libfixmath/fix16.c **** 	tempOut = int64_add(tempOut, int64_mul_i32_i32(inArg1, inFract));
 877              		.loc 1 464 0
 878 002a FB1D     		add	r3, r7, #7
 879 002c 1B78     		ldrb	r3, [r3]
 880 002e BA68     		ldr	r2, [r7, #8]
 881 0030 101C     		mov	r0, r2
 882 0032 191C     		mov	r1, r3
 883 0034 FFF7FEFF 		bl	int64_mul_i32_i32
 884 0038 021C     		mov	r2, r0
 885 003a 3B69     		ldr	r3, [r7, #16]
 886 003c 7C69     		ldr	r4, [r7, #20]
 887 003e 181C     		mov	r0, r3
 888 0040 211C     		mov	r1, r4
 889 0042 FFF7FEFF 		bl	int64_add
 890 0046 031C     		mov	r3, r0
 891 0048 3B61     		str	r3, [r7, #16]
 892 004a DB17     		asr	r3, r3, #31
 893 004c 7B61     		str	r3, [r7, #20]
 465:.\libfixmath/fix16.c **** 	tempOut = int64_shift(tempOut, -8);
 894              		.loc 1 465 0
 895 004e 3B69     		ldr	r3, [r7, #16]
 896 0050 7C69     		ldr	r4, [r7, #20]
 897 0052 0822     		mov	r2, #8
 898 0054 5242     		neg	r2, r2
 899 0056 181C     		mov	r0, r3
ARM GAS  C:\Users\Felix\AppData\Local\Temp\ccHz6Ccb.s 			page 25


 900 0058 211C     		mov	r1, r4
 901 005a FFF7FEFF 		bl	int64_shift
 902 005e 031C     		mov	r3, r0
 903 0060 3B61     		str	r3, [r7, #16]
 904 0062 DB17     		asr	r3, r3, #31
 905 0064 7B61     		str	r3, [r7, #20]
 466:.\libfixmath/fix16.c **** 	return (fix16_t)int64_lo(tempOut);
 906              		.loc 1 466 0
 907 0066 3B69     		ldr	r3, [r7, #16]
 908 0068 7C69     		ldr	r4, [r7, #20]
 909 006a 181C     		mov	r0, r3
 910 006c 211C     		mov	r1, r4
 911 006e FFF7FEFF 		bl	int64_lo
 912 0072 031C     		mov	r3, r0
 467:.\libfixmath/fix16.c **** }
 913              		.loc 1 467 0
 914 0074 181C     		mov	r0, r3
 915 0076 BD46     		mov	sp, r7
 916 0078 07B0     		add	sp, sp, #28
 917              		@ sp needed
 918 007a 90BD     		pop	{r4, r7, pc}
 919              		.cfi_endproc
 920              	.LFE14:
 921              		.size	fix16_lerp8, .-fix16_lerp8
 922              		.section	.text.fix16_lerp16,"ax",%progbits
 923              		.align	2
 924              		.global	fix16_lerp16
 925              		.code	16
 926              		.thumb_func
 927              		.type	fix16_lerp16, %function
 928              	fix16_lerp16:
 929              	.LFB15:
 468:.\libfixmath/fix16.c **** 
 469:.\libfixmath/fix16.c **** fix16_t fix16_lerp16(fix16_t inArg0, fix16_t inArg1, uint16_t inFract) {
 930              		.loc 1 469 0
 931              		.cfi_startproc
 932 0000 90B5     		push	{r4, r7, lr}
 933              		.cfi_def_cfa_offset 12
 934              		.cfi_offset 4, -12
 935              		.cfi_offset 7, -8
 936              		.cfi_offset 14, -4
 937 0002 87B0     		sub	sp, sp, #28
 938              		.cfi_def_cfa_offset 40
 939 0004 00AF     		add	r7, sp, #0
 940              		.cfi_def_cfa_register 7
 941 0006 F860     		str	r0, [r7, #12]
 942 0008 B960     		str	r1, [r7, #8]
 943 000a BB1D     		add	r3, r7, #6
 944 000c 1A80     		strh	r2, [r3]
 470:.\libfixmath/fix16.c **** 	int64_t tempOut = int64_mul_i32_i32(inArg0, ((1 << 16) - inFract));
 945              		.loc 1 470 0
 946 000e BB1D     		add	r3, r7, #6
 947 0010 1B88     		ldrh	r3, [r3]
 948 0012 8022     		mov	r2, #128
 949 0014 5202     		lsl	r2, r2, #9
 950 0016 D31A     		sub	r3, r2, r3
 951 0018 FA68     		ldr	r2, [r7, #12]
ARM GAS  C:\Users\Felix\AppData\Local\Temp\ccHz6Ccb.s 			page 26


 952 001a 101C     		mov	r0, r2
 953 001c 191C     		mov	r1, r3
 954 001e FFF7FEFF 		bl	int64_mul_i32_i32
 955 0022 031C     		mov	r3, r0
 956 0024 3B61     		str	r3, [r7, #16]
 957 0026 DB17     		asr	r3, r3, #31
 958 0028 7B61     		str	r3, [r7, #20]
 471:.\libfixmath/fix16.c **** 	tempOut = int64_add(tempOut, int64_mul_i32_i32(inArg1, inFract));
 959              		.loc 1 471 0
 960 002a BB1D     		add	r3, r7, #6
 961 002c 1B88     		ldrh	r3, [r3]
 962 002e BA68     		ldr	r2, [r7, #8]
 963 0030 101C     		mov	r0, r2
 964 0032 191C     		mov	r1, r3
 965 0034 FFF7FEFF 		bl	int64_mul_i32_i32
 966 0038 021C     		mov	r2, r0
 967 003a 3B69     		ldr	r3, [r7, #16]
 968 003c 7C69     		ldr	r4, [r7, #20]
 969 003e 181C     		mov	r0, r3
 970 0040 211C     		mov	r1, r4
 971 0042 FFF7FEFF 		bl	int64_add
 972 0046 031C     		mov	r3, r0
 973 0048 3B61     		str	r3, [r7, #16]
 974 004a DB17     		asr	r3, r3, #31
 975 004c 7B61     		str	r3, [r7, #20]
 472:.\libfixmath/fix16.c **** 	tempOut = int64_shift(tempOut, -16);
 976              		.loc 1 472 0
 977 004e 3B69     		ldr	r3, [r7, #16]
 978 0050 7C69     		ldr	r4, [r7, #20]
 979 0052 1022     		mov	r2, #16
 980 0054 5242     		neg	r2, r2
 981 0056 181C     		mov	r0, r3
 982 0058 211C     		mov	r1, r4
 983 005a FFF7FEFF 		bl	int64_shift
 984 005e 031C     		mov	r3, r0
 985 0060 3B61     		str	r3, [r7, #16]
 986 0062 DB17     		asr	r3, r3, #31
 987 0064 7B61     		str	r3, [r7, #20]
 473:.\libfixmath/fix16.c **** 	return (fix16_t)int64_lo(tempOut);
 988              		.loc 1 473 0
 989 0066 3B69     		ldr	r3, [r7, #16]
 990 0068 7C69     		ldr	r4, [r7, #20]
 991 006a 181C     		mov	r0, r3
 992 006c 211C     		mov	r1, r4
 993 006e FFF7FEFF 		bl	int64_lo
 994 0072 031C     		mov	r3, r0
 474:.\libfixmath/fix16.c **** }
 995              		.loc 1 474 0
 996 0074 181C     		mov	r0, r3
 997 0076 BD46     		mov	sp, r7
 998 0078 07B0     		add	sp, sp, #28
 999              		@ sp needed
 1000 007a 90BD     		pop	{r4, r7, pc}
 1001              		.cfi_endproc
 1002              	.LFE15:
 1003              		.size	fix16_lerp16, .-fix16_lerp16
 1004              		.section	.text.fix16_lerp32,"ax",%progbits
ARM GAS  C:\Users\Felix\AppData\Local\Temp\ccHz6Ccb.s 			page 27


 1005              		.align	2
 1006              		.global	fix16_lerp32
 1007              		.code	16
 1008              		.thumb_func
 1009              		.type	fix16_lerp32, %function
 1010              	fix16_lerp32:
 1011              	.LFB16:
 475:.\libfixmath/fix16.c **** 
 476:.\libfixmath/fix16.c **** #ifndef FIXMATH_NO_64BIT
 477:.\libfixmath/fix16.c **** fix16_t fix16_lerp32(fix16_t inArg0, fix16_t inArg1, uint32_t inFract) {
 1012              		.loc 1 477 0
 1013              		.cfi_startproc
 1014 0000 B0B5     		push	{r4, r5, r7, lr}
 1015              		.cfi_def_cfa_offset 16
 1016              		.cfi_offset 4, -16
 1017              		.cfi_offset 5, -12
 1018              		.cfi_offset 7, -8
 1019              		.cfi_offset 14, -4
 1020 0002 8CB0     		sub	sp, sp, #48
 1021              		.cfi_def_cfa_offset 64
 1022 0004 00AF     		add	r7, sp, #0
 1023              		.cfi_def_cfa_register 7
 1024 0006 7862     		str	r0, [r7, #36]
 1025 0008 3962     		str	r1, [r7, #32]
 1026 000a FA61     		str	r2, [r7, #28]
 478:.\libfixmath/fix16.c **** 	int64_t tempOut;
 479:.\libfixmath/fix16.c **** 	tempOut   = ((int64_t)inArg0 * (0 - inFract));
 1027              		.loc 1 479 0
 1028 000c 7B6A     		ldr	r3, [r7, #36]
 1029 000e 3B61     		str	r3, [r7, #16]
 1030 0010 DB17     		asr	r3, r3, #31
 1031 0012 7B61     		str	r3, [r7, #20]
 1032 0014 FB69     		ldr	r3, [r7, #28]
 1033 0016 5B42     		neg	r3, r3
 1034 0018 BB60     		str	r3, [r7, #8]
 1035 001a 0023     		mov	r3, #0
 1036 001c FB60     		str	r3, [r7, #12]
 1037 001e 3869     		ldr	r0, [r7, #16]
 1038 0020 7969     		ldr	r1, [r7, #20]
 1039 0022 BA68     		ldr	r2, [r7, #8]
 1040 0024 FB68     		ldr	r3, [r7, #12]
 1041 0026 FFF7FEFF 		bl	__aeabi_lmul
 1042 002a 021C     		mov	r2, r0
 1043 002c 0B1C     		mov	r3, r1
 1044 002e BA62     		str	r2, [r7, #40]
 1045 0030 FB62     		str	r3, [r7, #44]
 480:.\libfixmath/fix16.c **** 	tempOut  += ((int64_t)inArg1 * inFract);
 1046              		.loc 1 480 0
 1047 0032 3B6A     		ldr	r3, [r7, #32]
 1048 0034 3B60     		str	r3, [r7]
 1049 0036 DB17     		asr	r3, r3, #31
 1050 0038 7B60     		str	r3, [r7, #4]
 1051 003a FB69     		ldr	r3, [r7, #28]
 1052 003c 1C1C     		mov	r4, r3
 1053 003e 0023     		mov	r3, #0
 1054 0040 1D1C     		mov	r5, r3
 1055 0042 3868     		ldr	r0, [r7]
ARM GAS  C:\Users\Felix\AppData\Local\Temp\ccHz6Ccb.s 			page 28


 1056 0044 7968     		ldr	r1, [r7, #4]
 1057 0046 221C     		mov	r2, r4
 1058 0048 2B1C     		mov	r3, r5
 1059 004a FFF7FEFF 		bl	__aeabi_lmul
 1060 004e 031C     		mov	r3, r0
 1061 0050 0C1C     		mov	r4, r1
 1062 0052 B96A     		ldr	r1, [r7, #40]
 1063 0054 FA6A     		ldr	r2, [r7, #44]
 1064 0056 5B18     		add	r3, r3, r1
 1065 0058 5441     		adc	r4, r4, r2
 1066 005a BB62     		str	r3, [r7, #40]
 1067 005c FC62     		str	r4, [r7, #44]
 481:.\libfixmath/fix16.c **** 	tempOut >>= 32;
 1068              		.loc 1 481 0
 1069 005e FB6A     		ldr	r3, [r7, #44]
 1070 0060 1B00     		asr	r3, r3, #0
 1071 0062 BB62     		str	r3, [r7, #40]
 1072 0064 FB6A     		ldr	r3, [r7, #44]
 1073 0066 DB17     		asr	r3, r3, #31
 1074 0068 FB62     		str	r3, [r7, #44]
 482:.\libfixmath/fix16.c **** 	return (fix16_t)tempOut;
 1075              		.loc 1 482 0
 1076 006a BB6A     		ldr	r3, [r7, #40]
 483:.\libfixmath/fix16.c **** }
 1077              		.loc 1 483 0
 1078 006c 181C     		mov	r0, r3
 1079 006e BD46     		mov	sp, r7
 1080 0070 0CB0     		add	sp, sp, #48
 1081              		@ sp needed
 1082 0072 B0BD     		pop	{r4, r5, r7, pc}
 1083              		.cfi_endproc
 1084              	.LFE16:
 1085              		.size	fix16_lerp32, .-fix16_lerp32
 1086              		.text
 1087              	.Letext0:
 1088              		.file 2 "c:\\program files (x86)\\cypress\\psoc creator\\3.1\\psoc creator\\import\\gnu_cs\\arm\\4
 1089              		.file 3 "c:\\program files (x86)\\cypress\\psoc creator\\3.1\\psoc creator\\import\\gnu_cs\\arm\\4
 1090              		.file 4 ".\\libfixmath\\fix16.h"