ARM GAS  C:\Users\Felix\AppData\Local\Temp\cc1R7YW5.s 			page 1


   1              		.cpu cortex-m0
   2              		.fpu softvfp
   3              		.eabi_attribute 20, 1
   4              		.eabi_attribute 21, 1
   5              		.eabi_attribute 23, 3
   6              		.eabi_attribute 24, 1
   7              		.eabi_attribute 25, 1
   8              		.eabi_attribute 26, 1
   9              		.eabi_attribute 30, 6
  10              		.eabi_attribute 34, 0
  11              		.eabi_attribute 18, 4
  12              		.code	16
  13              		.file	"fix16_trig.c"
  14              		.text
  15              	.Ltext0:
  16              		.cfi_sections	.debug_frame
  17              		.section	.rodata
  18              		.align	2
  19              		.type	FOUR_DIV_PI, %object
  20              		.size	FOUR_DIV_PI, 4
  21              	FOUR_DIV_PI:
  22 0000 F3450100 		.word	83443
  23              		.align	2
  24              		.type	_FOUR_DIV_PI2, %object
  25              		.size	_FOUR_DIV_PI2, 4
  26              	_FOUR_DIV_PI2:
  27 0004 4098FFFF 		.word	-26560
  28              		.align	2
  29              		.type	X4_CORRECTION_COMPONENT, %object
  30              		.size	X4_CORRECTION_COMPONENT, 4
  31              	X4_CORRECTION_COMPONENT:
  32 0008 9A390000 		.word	14746
  33              		.align	2
  34              		.type	PI_DIV_4, %object
  35              		.size	PI_DIV_4, 4
  36              	PI_DIV_4:
  37 000c 0FC90000 		.word	51471
  38              		.align	2
  39              		.type	THREE_PI_DIV_4, %object
  40              		.size	THREE_PI_DIV_4, 4
  41              	THREE_PI_DIV_4:
  42 0010 2F5B0200 		.word	154415
  43              		.align	2
  44              		.type	fix16_max, %object
  45              		.size	fix16_max, 4
  46              	fix16_max:
  47 0014 FFFFFF7F 		.word	2147483647
  48              		.align	2
  49              		.type	fix16_min, %object
  50              		.size	fix16_min, 4
  51              	fix16_min:
  52 0018 00000080 		.word	-2147483648
  53              		.align	2
  54              		.type	fix16_overflow, %object
  55              		.size	fix16_overflow, 4
  56              	fix16_overflow:
  57 001c 00000080 		.word	-2147483648
ARM GAS  C:\Users\Felix\AppData\Local\Temp\cc1R7YW5.s 			page 2


  58              		.align	2
  59              		.type	fix16_pi, %object
  60              		.size	fix16_pi, 4
  61              	fix16_pi:
  62 0020 3F240300 		.word	205887
  63              		.align	2
  64              		.type	fix16_e, %object
  65              		.size	fix16_e, 4
  66              	fix16_e:
  67 0024 E1B70200 		.word	178145
  68              		.align	2
  69              		.type	fix16_one, %object
  70              		.size	fix16_one, 4
  71              	fix16_one:
  72 0028 00000100 		.word	65536
  73              		.bss
  74              		.align	2
  75              	_fix16_sin_cache_index:
  76 0000 00000000 		.space	16384
  76      00000000 
  76      00000000 
  76      00000000 
  76      00000000 
  77              		.align	2
  78              	_fix16_sin_cache_value:
  79 4000 00000000 		.space	16384
  79      00000000 
  79      00000000 
  79      00000000 
  79      00000000 
  80              		.align	2
  81              	_fix16_atan_cache_index:
  82 8000 00000000 		.space	32768
  82      00000000 
  82      00000000 
  82      00000000 
  82      00000000 
  83              		.align	2
  84              	_fix16_atan_cache_value:
  85 10000 00000000 		.space	16384
  85      00000000 
  85      00000000 
  85      00000000 
  85      00000000 
  86              		.section	.text.fix16_sin_parabola,"ax",%progbits
  87              		.align	2
  88              		.global	fix16_sin_parabola
  89              		.code	16
  90              		.thumb_func
  91              		.type	fix16_sin_parabola, %function
  92              	fix16_sin_parabola:
  93              	.LFB6:
  94              		.file 1 ".\\libfixmath\\fix16_trig.c"
   1:.\libfixmath/fix16_trig.c **** #include <limits.h>
   2:.\libfixmath/fix16_trig.c **** #include "fix16.h"
   3:.\libfixmath/fix16_trig.c **** 
   4:.\libfixmath/fix16_trig.c **** #if defined(FIXMATH_SIN_LUT)
ARM GAS  C:\Users\Felix\AppData\Local\Temp\cc1R7YW5.s 			page 3


   5:.\libfixmath/fix16_trig.c **** #include "fix16_trig_sin_lut.h"
   6:.\libfixmath/fix16_trig.c **** #elif !defined(FIXMATH_NO_CACHE)
   7:.\libfixmath/fix16_trig.c **** static fix16_t _fix16_sin_cache_index[4096]  = { 0 };
   8:.\libfixmath/fix16_trig.c **** static fix16_t _fix16_sin_cache_value[4096]  = { 0 };
   9:.\libfixmath/fix16_trig.c **** #endif
  10:.\libfixmath/fix16_trig.c **** 
  11:.\libfixmath/fix16_trig.c **** #ifndef FIXMATH_NO_CACHE
  12:.\libfixmath/fix16_trig.c **** static fix16_t _fix16_atan_cache_index[2][4096] = { { 0 }, { 0 } };
  13:.\libfixmath/fix16_trig.c **** static fix16_t _fix16_atan_cache_value[4096] = { 0 };
  14:.\libfixmath/fix16_trig.c **** #endif
  15:.\libfixmath/fix16_trig.c **** 
  16:.\libfixmath/fix16_trig.c **** 
  17:.\libfixmath/fix16_trig.c **** fix16_t fix16_sin_parabola(fix16_t inAngle)
  18:.\libfixmath/fix16_trig.c **** {
  95              		.loc 1 18 0
  96              		.cfi_startproc
  97 0000 90B5     		push	{r4, r7, lr}
  98              		.cfi_def_cfa_offset 12
  99              		.cfi_offset 4, -12
 100              		.cfi_offset 7, -8
 101              		.cfi_offset 14, -4
 102 0002 87B0     		sub	sp, sp, #28
 103              		.cfi_def_cfa_offset 40
 104 0004 00AF     		add	r7, sp, #0
 105              		.cfi_def_cfa_register 7
 106 0006 7860     		str	r0, [r7, #4]
  19:.\libfixmath/fix16_trig.c **** 	fix16_t abs_inAngle, abs_retval, retval;
  20:.\libfixmath/fix16_trig.c **** 	fix16_t mask;
  21:.\libfixmath/fix16_trig.c **** 
  22:.\libfixmath/fix16_trig.c **** 	/* Absolute function */
  23:.\libfixmath/fix16_trig.c **** 	mask = (inAngle >> (sizeof(fix16_t)*CHAR_BIT-1));
 107              		.loc 1 23 0
 108 0008 7B68     		ldr	r3, [r7, #4]
 109 000a DB17     		asr	r3, r3, #31
 110 000c 7B61     		str	r3, [r7, #20]
  24:.\libfixmath/fix16_trig.c **** 	abs_inAngle = (inAngle + mask) ^ mask;
 111              		.loc 1 24 0
 112 000e 7A68     		ldr	r2, [r7, #4]
 113 0010 7B69     		ldr	r3, [r7, #20]
 114 0012 D218     		add	r2, r2, r3
 115 0014 7B69     		ldr	r3, [r7, #20]
 116 0016 5340     		eor	r3, r2
 117 0018 3B61     		str	r3, [r7, #16]
  25:.\libfixmath/fix16_trig.c **** 	
  26:.\libfixmath/fix16_trig.c **** 	/* On 0->PI, sin looks like x² that is :
  27:.\libfixmath/fix16_trig.c **** 	   - centered on PI/2,
  28:.\libfixmath/fix16_trig.c **** 	   - equals 1 on PI/2,
  29:.\libfixmath/fix16_trig.c **** 	   - equals 0 on 0 and PI
  30:.\libfixmath/fix16_trig.c **** 	  that means :  4/PI * x  - 4/PI² * x²
  31:.\libfixmath/fix16_trig.c **** 	  Use abs(x) to handle (-PI) -> 0 zone.
  32:.\libfixmath/fix16_trig.c **** 	 */
  33:.\libfixmath/fix16_trig.c **** 	retval = fix16_mul(FOUR_DIV_PI, inAngle) + fix16_mul( fix16_mul(_FOUR_DIV_PI2, inAngle), abs_inAng
 118              		.loc 1 33 0
 119 001a 1B4A     		ldr	r2, .L3
 120 001c 7B68     		ldr	r3, [r7, #4]
 121 001e 101C     		mov	r0, r2
 122 0020 191C     		mov	r1, r3
ARM GAS  C:\Users\Felix\AppData\Local\Temp\cc1R7YW5.s 			page 4


 123 0022 FFF7FEFF 		bl	fix16_mul
 124 0026 041C     		mov	r4, r0
 125 0028 184A     		ldr	r2, .L3+4
 126 002a 7B68     		ldr	r3, [r7, #4]
 127 002c 101C     		mov	r0, r2
 128 002e 191C     		mov	r1, r3
 129 0030 FFF7FEFF 		bl	fix16_mul
 130 0034 021C     		mov	r2, r0
 131 0036 3B69     		ldr	r3, [r7, #16]
 132 0038 101C     		mov	r0, r2
 133 003a 191C     		mov	r1, r3
 134 003c FFF7FEFF 		bl	fix16_mul
 135 0040 031C     		mov	r3, r0
 136 0042 E318     		add	r3, r4, r3
 137 0044 FB60     		str	r3, [r7, #12]
  34:.\libfixmath/fix16_trig.c **** 	/* At this point, retval equals sin(inAngle) on important points ( -PI, -PI/2, 0, PI/2, PI),
  35:.\libfixmath/fix16_trig.c **** 	   but is not very precise between these points
  36:.\libfixmath/fix16_trig.c **** 	 */
  37:.\libfixmath/fix16_trig.c **** 	#ifndef FIXMATH_FAST_SIN
  38:.\libfixmath/fix16_trig.c **** 	/* Absolute value of retval */
  39:.\libfixmath/fix16_trig.c **** 	mask = (retval >> (sizeof(fix16_t)*CHAR_BIT-1));
 138              		.loc 1 39 0
 139 0046 FB68     		ldr	r3, [r7, #12]
 140 0048 DB17     		asr	r3, r3, #31
 141 004a 7B61     		str	r3, [r7, #20]
  40:.\libfixmath/fix16_trig.c **** 	abs_retval = (retval + mask) ^ mask;
 142              		.loc 1 40 0
 143 004c FA68     		ldr	r2, [r7, #12]
 144 004e 7B69     		ldr	r3, [r7, #20]
 145 0050 D218     		add	r2, r2, r3
 146 0052 7B69     		ldr	r3, [r7, #20]
 147 0054 5340     		eor	r3, r2
 148 0056 BB60     		str	r3, [r7, #8]
  41:.\libfixmath/fix16_trig.c **** 	/* So improve its precision by adding some x^4 component to retval */
  42:.\libfixmath/fix16_trig.c **** 	retval += fix16_mul(X4_CORRECTION_COMPONENT, fix16_mul(retval, abs_retval) - retval );
 149              		.loc 1 42 0
 150 0058 0D4C     		ldr	r4, .L3+8
 151 005a FA68     		ldr	r2, [r7, #12]
 152 005c BB68     		ldr	r3, [r7, #8]
 153 005e 101C     		mov	r0, r2
 154 0060 191C     		mov	r1, r3
 155 0062 FFF7FEFF 		bl	fix16_mul
 156 0066 021C     		mov	r2, r0
 157 0068 FB68     		ldr	r3, [r7, #12]
 158 006a D31A     		sub	r3, r2, r3
 159 006c 201C     		mov	r0, r4
 160 006e 191C     		mov	r1, r3
 161 0070 FFF7FEFF 		bl	fix16_mul
 162 0074 031C     		mov	r3, r0
 163 0076 FA68     		ldr	r2, [r7, #12]
 164 0078 D318     		add	r3, r2, r3
 165 007a FB60     		str	r3, [r7, #12]
  43:.\libfixmath/fix16_trig.c **** 	#endif
  44:.\libfixmath/fix16_trig.c **** 	return retval;
 166              		.loc 1 44 0
 167 007c FB68     		ldr	r3, [r7, #12]
  45:.\libfixmath/fix16_trig.c **** }
ARM GAS  C:\Users\Felix\AppData\Local\Temp\cc1R7YW5.s 			page 5


 168              		.loc 1 45 0
 169 007e 181C     		mov	r0, r3
 170 0080 BD46     		mov	sp, r7
 171 0082 07B0     		add	sp, sp, #28
 172              		@ sp needed
 173 0084 90BD     		pop	{r4, r7, pc}
 174              	.L4:
 175 0086 C046     		.align	2
 176              	.L3:
 177 0088 F3450100 		.word	83443
 178 008c 4098FFFF 		.word	-26560
 179 0090 9A390000 		.word	14746
 180              		.cfi_endproc
 181              	.LFE6:
 182              		.size	fix16_sin_parabola, .-fix16_sin_parabola
 183              		.global	__aeabi_idivmod
 184              		.global	__aeabi_idiv
 185              		.section	.text.fix16_sin,"ax",%progbits
 186              		.align	2
 187              		.global	fix16_sin
 188              		.code	16
 189              		.thumb_func
 190              		.type	fix16_sin, %function
 191              	fix16_sin:
 192              	.LFB7:
  46:.\libfixmath/fix16_trig.c **** 
  47:.\libfixmath/fix16_trig.c **** fix16_t fix16_sin(fix16_t inAngle) {
 193              		.loc 1 47 0
 194              		.cfi_startproc
 195 0000 80B5     		push	{r7, lr}
 196              		.cfi_def_cfa_offset 8
 197              		.cfi_offset 7, -8
 198              		.cfi_offset 14, -4
 199 0002 86B0     		sub	sp, sp, #24
 200              		.cfi_def_cfa_offset 32
 201 0004 00AF     		add	r7, sp, #0
 202              		.cfi_def_cfa_register 7
 203 0006 7860     		str	r0, [r7, #4]
  48:.\libfixmath/fix16_trig.c **** 	fix16_t tempAngle = inAngle % (fix16_pi << 1);
 204              		.loc 1 48 0
 205 0008 4D4B     		ldr	r3, .L10
 206 000a 5B00     		lsl	r3, r3, #1
 207 000c 7A68     		ldr	r2, [r7, #4]
 208 000e 101C     		mov	r0, r2
 209 0010 191C     		mov	r1, r3
 210 0012 FFF7FEFF 		bl	__aeabi_idivmod
 211 0016 0B1C     		mov	r3, r1
 212 0018 7B61     		str	r3, [r7, #20]
  49:.\libfixmath/fix16_trig.c **** 
  50:.\libfixmath/fix16_trig.c **** 	#ifdef FIXMATH_SIN_LUT
  51:.\libfixmath/fix16_trig.c **** 	if(tempAngle < 0)
  52:.\libfixmath/fix16_trig.c **** 		tempAngle += (fix16_pi << 1);
  53:.\libfixmath/fix16_trig.c **** 
  54:.\libfixmath/fix16_trig.c **** 	fix16_t tempOut;
  55:.\libfixmath/fix16_trig.c **** 	if(tempAngle >= fix16_pi) {
  56:.\libfixmath/fix16_trig.c **** 		tempAngle -= fix16_pi;
  57:.\libfixmath/fix16_trig.c **** 		if(tempAngle >= (fix16_pi >> 1))
ARM GAS  C:\Users\Felix\AppData\Local\Temp\cc1R7YW5.s 			page 6


  58:.\libfixmath/fix16_trig.c **** 			tempAngle = fix16_pi - tempAngle;
  59:.\libfixmath/fix16_trig.c **** 		tempOut = -(tempAngle >= _fix16_sin_lut_count ? fix16_one : _fix16_sin_lut[tempAngle]);
  60:.\libfixmath/fix16_trig.c **** 	} else {
  61:.\libfixmath/fix16_trig.c **** 		if(tempAngle >= (fix16_pi >> 1))
  62:.\libfixmath/fix16_trig.c **** 			tempAngle = fix16_pi - tempAngle;
  63:.\libfixmath/fix16_trig.c **** 		tempOut = (tempAngle >= _fix16_sin_lut_count ? fix16_one : _fix16_sin_lut[tempAngle]);
  64:.\libfixmath/fix16_trig.c **** 	}
  65:.\libfixmath/fix16_trig.c **** 	#else
  66:.\libfixmath/fix16_trig.c **** 	if(tempAngle > fix16_pi)
 213              		.loc 1 66 0
 214 001a 494B     		ldr	r3, .L10
 215 001c 7A69     		ldr	r2, [r7, #20]
 216 001e 9A42     		cmp	r2, r3
 217 0020 05DD     		ble	.L6
  67:.\libfixmath/fix16_trig.c **** 		tempAngle -= (fix16_pi << 1);
 218              		.loc 1 67 0
 219 0022 474B     		ldr	r3, .L10
 220 0024 5B00     		lsl	r3, r3, #1
 221 0026 7A69     		ldr	r2, [r7, #20]
 222 0028 D31A     		sub	r3, r2, r3
 223 002a 7B61     		str	r3, [r7, #20]
 224 002c 09E0     		b	.L7
 225              	.L6:
  68:.\libfixmath/fix16_trig.c **** 	else if(tempAngle < -fix16_pi)
 226              		.loc 1 68 0
 227 002e 444B     		ldr	r3, .L10
 228 0030 5A42     		neg	r2, r3
 229 0032 7B69     		ldr	r3, [r7, #20]
 230 0034 9A42     		cmp	r2, r3
 231 0036 04DD     		ble	.L7
  69:.\libfixmath/fix16_trig.c **** 		tempAngle += (fix16_pi << 1);
 232              		.loc 1 69 0
 233 0038 414B     		ldr	r3, .L10
 234 003a 5B00     		lsl	r3, r3, #1
 235 003c 7A69     		ldr	r2, [r7, #20]
 236 003e D318     		add	r3, r2, r3
 237 0040 7B61     		str	r3, [r7, #20]
 238              	.L7:
  70:.\libfixmath/fix16_trig.c **** 
  71:.\libfixmath/fix16_trig.c **** 	#ifndef FIXMATH_NO_CACHE
  72:.\libfixmath/fix16_trig.c **** 	fix16_t tempIndex = ((inAngle >> 5) & 0x00000FFF);
 239              		.loc 1 72 0
 240 0042 7B68     		ldr	r3, [r7, #4]
 241 0044 5B11     		asr	r3, r3, #5
 242 0046 1B05     		lsl	r3, r3, #20
 243 0048 1B0D     		lsr	r3, r3, #20
 244 004a 3B61     		str	r3, [r7, #16]
  73:.\libfixmath/fix16_trig.c **** 	if(_fix16_sin_cache_index[tempIndex] == inAngle)
 245              		.loc 1 73 0
 246 004c 3D4B     		ldr	r3, .L10+4
 247 004e 3A69     		ldr	r2, [r7, #16]
 248 0050 9200     		lsl	r2, r2, #2
 249 0052 D258     		ldr	r2, [r2, r3]
 250 0054 7B68     		ldr	r3, [r7, #4]
 251 0056 9A42     		cmp	r2, r3
 252 0058 04D1     		bne	.L8
  74:.\libfixmath/fix16_trig.c **** 		return _fix16_sin_cache_value[tempIndex];
ARM GAS  C:\Users\Felix\AppData\Local\Temp\cc1R7YW5.s 			page 7


 253              		.loc 1 74 0
 254 005a 3B4B     		ldr	r3, .L10+8
 255 005c 3A69     		ldr	r2, [r7, #16]
 256 005e 9200     		lsl	r2, r2, #2
 257 0060 D358     		ldr	r3, [r2, r3]
 258 0062 69E0     		b	.L9
 259              	.L8:
  75:.\libfixmath/fix16_trig.c **** 	#endif
  76:.\libfixmath/fix16_trig.c **** 
  77:.\libfixmath/fix16_trig.c **** 	fix16_t tempAngleSq = fix16_mul(tempAngle, tempAngle);
 260              		.loc 1 77 0
 261 0064 7A69     		ldr	r2, [r7, #20]
 262 0066 7B69     		ldr	r3, [r7, #20]
 263 0068 101C     		mov	r0, r2
 264 006a 191C     		mov	r1, r3
 265 006c FFF7FEFF 		bl	fix16_mul
 266 0070 031C     		mov	r3, r0
 267 0072 FB60     		str	r3, [r7, #12]
  78:.\libfixmath/fix16_trig.c **** 
  79:.\libfixmath/fix16_trig.c **** 	#ifndef FIXMATH_FAST_SIN // Most accurate version, accurate to ~2.1%
  80:.\libfixmath/fix16_trig.c **** 	fix16_t tempOut = tempAngle;
 268              		.loc 1 80 0
 269 0074 7B69     		ldr	r3, [r7, #20]
 270 0076 BB60     		str	r3, [r7, #8]
  81:.\libfixmath/fix16_trig.c **** 	tempAngle = fix16_mul(tempAngle, tempAngleSq);
 271              		.loc 1 81 0
 272 0078 7A69     		ldr	r2, [r7, #20]
 273 007a FB68     		ldr	r3, [r7, #12]
 274 007c 101C     		mov	r0, r2
 275 007e 191C     		mov	r1, r3
 276 0080 FFF7FEFF 		bl	fix16_mul
 277 0084 031C     		mov	r3, r0
 278 0086 7B61     		str	r3, [r7, #20]
  82:.\libfixmath/fix16_trig.c **** 	tempOut -= (tempAngle / 6);
 279              		.loc 1 82 0
 280 0088 7B69     		ldr	r3, [r7, #20]
 281 008a 181C     		mov	r0, r3
 282 008c 0621     		mov	r1, #6
 283 008e FFF7FEFF 		bl	__aeabi_idiv
 284 0092 031C     		mov	r3, r0
 285 0094 BA68     		ldr	r2, [r7, #8]
 286 0096 D31A     		sub	r3, r2, r3
 287 0098 BB60     		str	r3, [r7, #8]
  83:.\libfixmath/fix16_trig.c **** 	tempAngle = fix16_mul(tempAngle, tempAngleSq);
 288              		.loc 1 83 0
 289 009a 7A69     		ldr	r2, [r7, #20]
 290 009c FB68     		ldr	r3, [r7, #12]
 291 009e 101C     		mov	r0, r2
 292 00a0 191C     		mov	r1, r3
 293 00a2 FFF7FEFF 		bl	fix16_mul
 294 00a6 031C     		mov	r3, r0
 295 00a8 7B61     		str	r3, [r7, #20]
  84:.\libfixmath/fix16_trig.c **** 	tempOut += (tempAngle / 120);
 296              		.loc 1 84 0
 297 00aa 7B69     		ldr	r3, [r7, #20]
 298 00ac 181C     		mov	r0, r3
 299 00ae 7821     		mov	r1, #120
ARM GAS  C:\Users\Felix\AppData\Local\Temp\cc1R7YW5.s 			page 8


 300 00b0 FFF7FEFF 		bl	__aeabi_idiv
 301 00b4 031C     		mov	r3, r0
 302 00b6 BA68     		ldr	r2, [r7, #8]
 303 00b8 D318     		add	r3, r2, r3
 304 00ba BB60     		str	r3, [r7, #8]
  85:.\libfixmath/fix16_trig.c **** 	tempAngle = fix16_mul(tempAngle, tempAngleSq);
 305              		.loc 1 85 0
 306 00bc 7A69     		ldr	r2, [r7, #20]
 307 00be FB68     		ldr	r3, [r7, #12]
 308 00c0 101C     		mov	r0, r2
 309 00c2 191C     		mov	r1, r3
 310 00c4 FFF7FEFF 		bl	fix16_mul
 311 00c8 031C     		mov	r3, r0
 312 00ca 7B61     		str	r3, [r7, #20]
  86:.\libfixmath/fix16_trig.c **** 	tempOut -= (tempAngle / 5040);
 313              		.loc 1 86 0
 314 00cc 7B69     		ldr	r3, [r7, #20]
 315 00ce 181C     		mov	r0, r3
 316 00d0 1E49     		ldr	r1, .L10+12
 317 00d2 FFF7FEFF 		bl	__aeabi_idiv
 318 00d6 031C     		mov	r3, r0
 319 00d8 BA68     		ldr	r2, [r7, #8]
 320 00da D31A     		sub	r3, r2, r3
 321 00dc BB60     		str	r3, [r7, #8]
  87:.\libfixmath/fix16_trig.c **** 	tempAngle = fix16_mul(tempAngle, tempAngleSq);
 322              		.loc 1 87 0
 323 00de 7A69     		ldr	r2, [r7, #20]
 324 00e0 FB68     		ldr	r3, [r7, #12]
 325 00e2 101C     		mov	r0, r2
 326 00e4 191C     		mov	r1, r3
 327 00e6 FFF7FEFF 		bl	fix16_mul
 328 00ea 031C     		mov	r3, r0
 329 00ec 7B61     		str	r3, [r7, #20]
  88:.\libfixmath/fix16_trig.c **** 	tempOut += (tempAngle / 362880);
 330              		.loc 1 88 0
 331 00ee 7B69     		ldr	r3, [r7, #20]
 332 00f0 181C     		mov	r0, r3
 333 00f2 1749     		ldr	r1, .L10+16
 334 00f4 FFF7FEFF 		bl	__aeabi_idiv
 335 00f8 031C     		mov	r3, r0
 336 00fa BA68     		ldr	r2, [r7, #8]
 337 00fc D318     		add	r3, r2, r3
 338 00fe BB60     		str	r3, [r7, #8]
  89:.\libfixmath/fix16_trig.c **** 	tempAngle = fix16_mul(tempAngle, tempAngleSq);
 339              		.loc 1 89 0
 340 0100 7A69     		ldr	r2, [r7, #20]
 341 0102 FB68     		ldr	r3, [r7, #12]
 342 0104 101C     		mov	r0, r2
 343 0106 191C     		mov	r1, r3
 344 0108 FFF7FEFF 		bl	fix16_mul
 345 010c 031C     		mov	r3, r0
 346 010e 7B61     		str	r3, [r7, #20]
  90:.\libfixmath/fix16_trig.c **** 	tempOut -= (tempAngle / 39916800);
 347              		.loc 1 90 0
 348 0110 7B69     		ldr	r3, [r7, #20]
 349 0112 181C     		mov	r0, r3
 350 0114 0F49     		ldr	r1, .L10+20
ARM GAS  C:\Users\Felix\AppData\Local\Temp\cc1R7YW5.s 			page 9


 351 0116 FFF7FEFF 		bl	__aeabi_idiv
 352 011a 031C     		mov	r3, r0
 353 011c BA68     		ldr	r2, [r7, #8]
 354 011e D31A     		sub	r3, r2, r3
 355 0120 BB60     		str	r3, [r7, #8]
  91:.\libfixmath/fix16_trig.c **** 	#else // Fast implementation, runs at 159% the speed of above 'accurate' version with an slightly 
  92:.\libfixmath/fix16_trig.c **** 	fix16_t tempOut;
  93:.\libfixmath/fix16_trig.c **** 	tempOut = fix16_mul(-13, tempAngleSq) + 546;
  94:.\libfixmath/fix16_trig.c **** 	tempOut = fix16_mul(tempOut, tempAngleSq) - 10923;
  95:.\libfixmath/fix16_trig.c **** 	tempOut = fix16_mul(tempOut, tempAngleSq) + 65536;
  96:.\libfixmath/fix16_trig.c **** 	tempOut = fix16_mul(tempOut, tempAngle);
  97:.\libfixmath/fix16_trig.c **** 	#endif
  98:.\libfixmath/fix16_trig.c **** 
  99:.\libfixmath/fix16_trig.c **** 	#ifndef FIXMATH_NO_CACHE
 100:.\libfixmath/fix16_trig.c **** 	_fix16_sin_cache_index[tempIndex] = inAngle;
 356              		.loc 1 100 0
 357 0122 084B     		ldr	r3, .L10+4
 358 0124 3A69     		ldr	r2, [r7, #16]
 359 0126 9200     		lsl	r2, r2, #2
 360 0128 7968     		ldr	r1, [r7, #4]
 361 012a D150     		str	r1, [r2, r3]
 101:.\libfixmath/fix16_trig.c **** 	_fix16_sin_cache_value[tempIndex] = tempOut;
 362              		.loc 1 101 0
 363 012c 064B     		ldr	r3, .L10+8
 364 012e 3A69     		ldr	r2, [r7, #16]
 365 0130 9200     		lsl	r2, r2, #2
 366 0132 B968     		ldr	r1, [r7, #8]
 367 0134 D150     		str	r1, [r2, r3]
 102:.\libfixmath/fix16_trig.c **** 	#endif
 103:.\libfixmath/fix16_trig.c **** 	#endif
 104:.\libfixmath/fix16_trig.c **** 
 105:.\libfixmath/fix16_trig.c **** 	return tempOut;
 368              		.loc 1 105 0
 369 0136 BB68     		ldr	r3, [r7, #8]
 370              	.L9:
 106:.\libfixmath/fix16_trig.c **** }
 371              		.loc 1 106 0
 372 0138 181C     		mov	r0, r3
 373 013a BD46     		mov	sp, r7
 374 013c 06B0     		add	sp, sp, #24
 375              		@ sp needed
 376 013e 80BD     		pop	{r7, pc}
 377              	.L11:
 378              		.align	2
 379              	.L10:
 380 0140 3F240300 		.word	205887
 381 0144 00000000 		.word	_fix16_sin_cache_index
 382 0148 00400000 		.word	_fix16_sin_cache_value
 383 014c B0130000 		.word	5040
 384 0150 80890500 		.word	362880
 385 0154 00156102 		.word	39916800
 386              		.cfi_endproc
 387              	.LFE7:
 388              		.size	fix16_sin, .-fix16_sin
 389              		.section	.text.fix16_cos,"ax",%progbits
 390              		.align	2
 391              		.global	fix16_cos
ARM GAS  C:\Users\Felix\AppData\Local\Temp\cc1R7YW5.s 			page 10


 392              		.code	16
 393              		.thumb_func
 394              		.type	fix16_cos, %function
 395              	fix16_cos:
 396              	.LFB8:
 107:.\libfixmath/fix16_trig.c **** 
 108:.\libfixmath/fix16_trig.c **** fix16_t fix16_cos(fix16_t inAngle) {
 397              		.loc 1 108 0
 398              		.cfi_startproc
 399 0000 80B5     		push	{r7, lr}
 400              		.cfi_def_cfa_offset 8
 401              		.cfi_offset 7, -8
 402              		.cfi_offset 14, -4
 403 0002 82B0     		sub	sp, sp, #8
 404              		.cfi_def_cfa_offset 16
 405 0004 00AF     		add	r7, sp, #0
 406              		.cfi_def_cfa_register 7
 407 0006 7860     		str	r0, [r7, #4]
 109:.\libfixmath/fix16_trig.c **** 	return fix16_sin(inAngle + (fix16_pi >> 1));
 408              		.loc 1 109 0
 409 0008 054B     		ldr	r3, .L14
 410 000a 5A10     		asr	r2, r3, #1
 411 000c 7B68     		ldr	r3, [r7, #4]
 412 000e D318     		add	r3, r2, r3
 413 0010 181C     		mov	r0, r3
 414 0012 FFF7FEFF 		bl	fix16_sin
 415 0016 031C     		mov	r3, r0
 110:.\libfixmath/fix16_trig.c **** }
 416              		.loc 1 110 0
 417 0018 181C     		mov	r0, r3
 418 001a BD46     		mov	sp, r7
 419 001c 02B0     		add	sp, sp, #8
 420              		@ sp needed
 421 001e 80BD     		pop	{r7, pc}
 422              	.L15:
 423              		.align	2
 424              	.L14:
 425 0020 3F240300 		.word	205887
 426              		.cfi_endproc
 427              	.LFE8:
 428              		.size	fix16_cos, .-fix16_cos
 429              		.section	.text.fix16_tan,"ax",%progbits
 430              		.align	2
 431              		.global	fix16_tan
 432              		.code	16
 433              		.thumb_func
 434              		.type	fix16_tan, %function
 435              	fix16_tan:
 436              	.LFB9:
 111:.\libfixmath/fix16_trig.c **** 
 112:.\libfixmath/fix16_trig.c **** fix16_t fix16_tan(fix16_t inAngle) {
 437              		.loc 1 112 0
 438              		.cfi_startproc
 439 0000 90B5     		push	{r4, r7, lr}
 440              		.cfi_def_cfa_offset 12
 441              		.cfi_offset 4, -12
 442              		.cfi_offset 7, -8
ARM GAS  C:\Users\Felix\AppData\Local\Temp\cc1R7YW5.s 			page 11


 443              		.cfi_offset 14, -4
 444 0002 83B0     		sub	sp, sp, #12
 445              		.cfi_def_cfa_offset 24
 446 0004 00AF     		add	r7, sp, #0
 447              		.cfi_def_cfa_register 7
 448 0006 7860     		str	r0, [r7, #4]
 113:.\libfixmath/fix16_trig.c **** 	return fix16_sdiv(fix16_sin(inAngle), fix16_cos(inAngle));
 449              		.loc 1 113 0
 450 0008 7B68     		ldr	r3, [r7, #4]
 451 000a 181C     		mov	r0, r3
 452 000c FFF7FEFF 		bl	fix16_sin
 453 0010 041C     		mov	r4, r0
 454 0012 7B68     		ldr	r3, [r7, #4]
 455 0014 181C     		mov	r0, r3
 456 0016 FFF7FEFF 		bl	fix16_cos
 457 001a 031C     		mov	r3, r0
 458 001c 201C     		mov	r0, r4
 459 001e 191C     		mov	r1, r3
 460 0020 FFF7FEFF 		bl	fix16_sdiv
 461 0024 031C     		mov	r3, r0
 114:.\libfixmath/fix16_trig.c **** }
 462              		.loc 1 114 0
 463 0026 181C     		mov	r0, r3
 464 0028 BD46     		mov	sp, r7
 465 002a 03B0     		add	sp, sp, #12
 466              		@ sp needed
 467 002c 90BD     		pop	{r4, r7, pc}
 468              		.cfi_endproc
 469              	.LFE9:
 470              		.size	fix16_tan, .-fix16_tan
 471 002e C046     		.section	.text.fix16_asin,"ax",%progbits
 472              		.align	2
 473              		.global	fix16_asin
 474              		.code	16
 475              		.thumb_func
 476              		.type	fix16_asin, %function
 477              	fix16_asin:
 478              	.LFB10:
 115:.\libfixmath/fix16_trig.c **** 
 116:.\libfixmath/fix16_trig.c **** fix16_t fix16_asin(fix16_t inValue) {
 479              		.loc 1 116 0
 480              		.cfi_startproc
 481 0000 90B5     		push	{r4, r7, lr}
 482              		.cfi_def_cfa_offset 12
 483              		.cfi_offset 4, -12
 484              		.cfi_offset 7, -8
 485              		.cfi_offset 14, -4
 486 0002 85B0     		sub	sp, sp, #20
 487              		.cfi_def_cfa_offset 32
 488 0004 00AF     		add	r7, sp, #0
 489              		.cfi_def_cfa_register 7
 490 0006 7860     		str	r0, [r7, #4]
 117:.\libfixmath/fix16_trig.c **** 	if((inValue > fix16_one) || (inValue < -fix16_one))
 491              		.loc 1 117 0
 492 0008 8023     		mov	r3, #128
 493 000a 5B02     		lsl	r3, r3, #9
 494 000c 7A68     		ldr	r2, [r7, #4]
ARM GAS  C:\Users\Felix\AppData\Local\Temp\cc1R7YW5.s 			page 12


 495 000e 9A42     		cmp	r2, r3
 496 0010 05DC     		bgt	.L19
 497              		.loc 1 117 0 is_stmt 0 discriminator 1
 498 0012 8023     		mov	r3, #128
 499 0014 5B02     		lsl	r3, r3, #9
 500 0016 5A42     		neg	r2, r3
 501 0018 7B68     		ldr	r3, [r7, #4]
 502 001a 9A42     		cmp	r2, r3
 503 001c 01DD     		ble	.L20
 504              	.L19:
 118:.\libfixmath/fix16_trig.c **** 		return 0;
 505              		.loc 1 118 0 is_stmt 1
 506 001e 0023     		mov	r3, #0
 507 0020 1DE0     		b	.L21
 508              	.L20:
 119:.\libfixmath/fix16_trig.c **** 	fix16_t tempOut;
 120:.\libfixmath/fix16_trig.c **** 	tempOut = (fix16_one - fix16_mul(inValue, inValue));
 509              		.loc 1 120 0
 510 0022 8023     		mov	r3, #128
 511 0024 5C02     		lsl	r4, r3, #9
 512 0026 7A68     		ldr	r2, [r7, #4]
 513 0028 7B68     		ldr	r3, [r7, #4]
 514 002a 101C     		mov	r0, r2
 515 002c 191C     		mov	r1, r3
 516 002e FFF7FEFF 		bl	fix16_mul
 517 0032 031C     		mov	r3, r0
 518 0034 E31A     		sub	r3, r4, r3
 519 0036 FB60     		str	r3, [r7, #12]
 121:.\libfixmath/fix16_trig.c **** 	tempOut = fix16_div(inValue, fix16_sqrt(tempOut));
 520              		.loc 1 121 0
 521 0038 FB68     		ldr	r3, [r7, #12]
 522 003a 181C     		mov	r0, r3
 523 003c FFF7FEFF 		bl	fix16_sqrt
 524 0040 031C     		mov	r3, r0
 525 0042 7A68     		ldr	r2, [r7, #4]
 526 0044 101C     		mov	r0, r2
 527 0046 191C     		mov	r1, r3
 528 0048 FFF7FEFF 		bl	fix16_div
 529 004c 031C     		mov	r3, r0
 530 004e FB60     		str	r3, [r7, #12]
 122:.\libfixmath/fix16_trig.c **** 	tempOut = fix16_atan(tempOut);
 531              		.loc 1 122 0
 532 0050 FB68     		ldr	r3, [r7, #12]
 533 0052 181C     		mov	r0, r3
 534 0054 FFF7FEFF 		bl	fix16_atan
 535 0058 031C     		mov	r3, r0
 536 005a FB60     		str	r3, [r7, #12]
 123:.\libfixmath/fix16_trig.c **** 	return tempOut;
 537              		.loc 1 123 0
 538 005c FB68     		ldr	r3, [r7, #12]
 539              	.L21:
 124:.\libfixmath/fix16_trig.c **** }
 540              		.loc 1 124 0
 541 005e 181C     		mov	r0, r3
 542 0060 BD46     		mov	sp, r7
 543 0062 05B0     		add	sp, sp, #20
 544              		@ sp needed
ARM GAS  C:\Users\Felix\AppData\Local\Temp\cc1R7YW5.s 			page 13


 545 0064 90BD     		pop	{r4, r7, pc}
 546              		.cfi_endproc
 547              	.LFE10:
 548              		.size	fix16_asin, .-fix16_asin
 549 0066 C046     		.section	.text.fix16_acos,"ax",%progbits
 550              		.align	2
 551              		.global	fix16_acos
 552              		.code	16
 553              		.thumb_func
 554              		.type	fix16_acos, %function
 555              	fix16_acos:
 556              	.LFB11:
 125:.\libfixmath/fix16_trig.c **** 
 126:.\libfixmath/fix16_trig.c **** fix16_t fix16_acos(fix16_t inValue) {
 557              		.loc 1 126 0
 558              		.cfi_startproc
 559 0000 90B5     		push	{r4, r7, lr}
 560              		.cfi_def_cfa_offset 12
 561              		.cfi_offset 4, -12
 562              		.cfi_offset 7, -8
 563              		.cfi_offset 14, -4
 564 0002 83B0     		sub	sp, sp, #12
 565              		.cfi_def_cfa_offset 24
 566 0004 00AF     		add	r7, sp, #0
 567              		.cfi_def_cfa_register 7
 568 0006 7860     		str	r0, [r7, #4]
 127:.\libfixmath/fix16_trig.c **** 	return ((fix16_pi >> 1) - fix16_asin(inValue));
 569              		.loc 1 127 0
 570 0008 054B     		ldr	r3, .L24
 571 000a 5C10     		asr	r4, r3, #1
 572 000c 7B68     		ldr	r3, [r7, #4]
 573 000e 181C     		mov	r0, r3
 574 0010 FFF7FEFF 		bl	fix16_asin
 575 0014 031C     		mov	r3, r0
 576 0016 E31A     		sub	r3, r4, r3
 128:.\libfixmath/fix16_trig.c **** }
 577              		.loc 1 128 0
 578 0018 181C     		mov	r0, r3
 579 001a BD46     		mov	sp, r7
 580 001c 03B0     		add	sp, sp, #12
 581              		@ sp needed
 582 001e 90BD     		pop	{r4, r7, pc}
 583              	.L25:
 584              		.align	2
 585              	.L24:
 586 0020 3F240300 		.word	205887
 587              		.cfi_endproc
 588              	.LFE11:
 589              		.size	fix16_acos, .-fix16_acos
 590              		.section	.text.fix16_atan2,"ax",%progbits
 591              		.align	2
 592              		.global	fix16_atan2
 593              		.code	16
 594              		.thumb_func
 595              		.type	fix16_atan2, %function
 596              	fix16_atan2:
 597              	.LFB12:
ARM GAS  C:\Users\Felix\AppData\Local\Temp\cc1R7YW5.s 			page 14


 129:.\libfixmath/fix16_trig.c **** 
 130:.\libfixmath/fix16_trig.c **** fix16_t fix16_atan2(fix16_t inY , fix16_t inX) {
 598              		.loc 1 130 0
 599              		.cfi_startproc
 600 0000 90B5     		push	{r4, r7, lr}
 601              		.cfi_def_cfa_offset 12
 602              		.cfi_offset 4, -12
 603              		.cfi_offset 7, -8
 604              		.cfi_offset 14, -4
 605 0002 89B0     		sub	sp, sp, #36
 606              		.cfi_def_cfa_offset 48
 607 0004 00AF     		add	r7, sp, #0
 608              		.cfi_def_cfa_register 7
 609 0006 7860     		str	r0, [r7, #4]
 610 0008 3960     		str	r1, [r7]
 131:.\libfixmath/fix16_trig.c **** 	fix16_t abs_inY, mask, angle, r, r_3;
 132:.\libfixmath/fix16_trig.c **** 
 133:.\libfixmath/fix16_trig.c **** 	#ifndef FIXMATH_NO_CACHE
 134:.\libfixmath/fix16_trig.c **** 	uintptr_t hash = (inX ^ inY);
 611              		.loc 1 134 0
 612 000a 3A68     		ldr	r2, [r7]
 613 000c 7B68     		ldr	r3, [r7, #4]
 614 000e 5340     		eor	r3, r2
 615 0010 BB61     		str	r3, [r7, #24]
 135:.\libfixmath/fix16_trig.c **** 	hash ^= hash >> 20;
 616              		.loc 1 135 0
 617 0012 BB69     		ldr	r3, [r7, #24]
 618 0014 1B0D     		lsr	r3, r3, #20
 619 0016 BA69     		ldr	r2, [r7, #24]
 620 0018 5340     		eor	r3, r2
 621 001a BB61     		str	r3, [r7, #24]
 136:.\libfixmath/fix16_trig.c **** 	hash &= 0x0FFF;
 622              		.loc 1 136 0
 623 001c BB69     		ldr	r3, [r7, #24]
 624 001e 1B05     		lsl	r3, r3, #20
 625 0020 1B0D     		lsr	r3, r3, #20
 626 0022 BB61     		str	r3, [r7, #24]
 137:.\libfixmath/fix16_trig.c **** 	if((_fix16_atan_cache_index[0][hash] == inX) && (_fix16_atan_cache_index[1][hash] == inY))
 627              		.loc 1 137 0
 628 0024 4C4B     		ldr	r3, .L32
 629 0026 BA69     		ldr	r2, [r7, #24]
 630 0028 9200     		lsl	r2, r2, #2
 631 002a D258     		ldr	r2, [r2, r3]
 632 002c 3B68     		ldr	r3, [r7]
 633 002e 9A42     		cmp	r2, r3
 634 0030 0ED1     		bne	.L27
 635              		.loc 1 137 0 is_stmt 0 discriminator 1
 636 0032 494B     		ldr	r3, .L32
 637 0034 BA69     		ldr	r2, [r7, #24]
 638 0036 8021     		mov	r1, #128
 639 0038 4901     		lsl	r1, r1, #5
 640 003a 5218     		add	r2, r2, r1
 641 003c 9200     		lsl	r2, r2, #2
 642 003e D258     		ldr	r2, [r2, r3]
 643 0040 7B68     		ldr	r3, [r7, #4]
 644 0042 9A42     		cmp	r2, r3
 645 0044 04D1     		bne	.L27
ARM GAS  C:\Users\Felix\AppData\Local\Temp\cc1R7YW5.s 			page 15


 138:.\libfixmath/fix16_trig.c **** 		return _fix16_atan_cache_value[hash];
 646              		.loc 1 138 0 is_stmt 1
 647 0046 454B     		ldr	r3, .L32+4
 648 0048 BA69     		ldr	r2, [r7, #24]
 649 004a 9200     		lsl	r2, r2, #2
 650 004c D358     		ldr	r3, [r2, r3]
 651 004e 7FE0     		b	.L28
 652              	.L27:
 139:.\libfixmath/fix16_trig.c **** 	#endif
 140:.\libfixmath/fix16_trig.c **** 
 141:.\libfixmath/fix16_trig.c **** 	/* Absolute inY */
 142:.\libfixmath/fix16_trig.c **** 	mask = (inY >> (sizeof(fix16_t)*CHAR_BIT-1));
 653              		.loc 1 142 0
 654 0050 7B68     		ldr	r3, [r7, #4]
 655 0052 DB17     		asr	r3, r3, #31
 656 0054 7B61     		str	r3, [r7, #20]
 143:.\libfixmath/fix16_trig.c **** 	abs_inY = (inY + mask) ^ mask;
 657              		.loc 1 143 0
 658 0056 7A68     		ldr	r2, [r7, #4]
 659 0058 7B69     		ldr	r3, [r7, #20]
 660 005a D218     		add	r2, r2, r3
 661 005c 7B69     		ldr	r3, [r7, #20]
 662 005e 5340     		eor	r3, r2
 663 0060 3B61     		str	r3, [r7, #16]
 144:.\libfixmath/fix16_trig.c **** 
 145:.\libfixmath/fix16_trig.c **** 	if (inX >= 0)
 664              		.loc 1 145 0
 665 0062 3B68     		ldr	r3, [r7]
 666 0064 002B     		cmp	r3, #0
 667 0066 2DDB     		blt	.L29
 146:.\libfixmath/fix16_trig.c **** 	{
 147:.\libfixmath/fix16_trig.c **** 		r = fix16_div( (inX - abs_inY), (inX + abs_inY));
 668              		.loc 1 147 0
 669 0068 3A68     		ldr	r2, [r7]
 670 006a 3B69     		ldr	r3, [r7, #16]
 671 006c D21A     		sub	r2, r2, r3
 672 006e 3968     		ldr	r1, [r7]
 673 0070 3B69     		ldr	r3, [r7, #16]
 674 0072 CB18     		add	r3, r1, r3
 675 0074 101C     		mov	r0, r2
 676 0076 191C     		mov	r1, r3
 677 0078 FFF7FEFF 		bl	fix16_div
 678 007c 031C     		mov	r3, r0
 679 007e FB60     		str	r3, [r7, #12]
 148:.\libfixmath/fix16_trig.c **** 		r_3 = fix16_mul(fix16_mul(r, r),r);
 680              		.loc 1 148 0
 681 0080 FA68     		ldr	r2, [r7, #12]
 682 0082 FB68     		ldr	r3, [r7, #12]
 683 0084 101C     		mov	r0, r2
 684 0086 191C     		mov	r1, r3
 685 0088 FFF7FEFF 		bl	fix16_mul
 686 008c 021C     		mov	r2, r0
 687 008e FB68     		ldr	r3, [r7, #12]
 688 0090 101C     		mov	r0, r2
 689 0092 191C     		mov	r1, r3
 690 0094 FFF7FEFF 		bl	fix16_mul
 691 0098 031C     		mov	r3, r0
ARM GAS  C:\Users\Felix\AppData\Local\Temp\cc1R7YW5.s 			page 16


 692 009a BB60     		str	r3, [r7, #8]
 149:.\libfixmath/fix16_trig.c **** 		angle = fix16_mul(0x00003240 , r_3) - fix16_mul(0x0000FB50,r) + PI_DIV_4;
 693              		.loc 1 149 0
 694 009c C923     		mov	r3, #201
 695 009e 9A01     		lsl	r2, r3, #6
 696 00a0 BB68     		ldr	r3, [r7, #8]
 697 00a2 101C     		mov	r0, r2
 698 00a4 191C     		mov	r1, r3
 699 00a6 FFF7FEFF 		bl	fix16_mul
 700 00aa 041C     		mov	r4, r0
 701 00ac 2C4A     		ldr	r2, .L32+8
 702 00ae FB68     		ldr	r3, [r7, #12]
 703 00b0 101C     		mov	r0, r2
 704 00b2 191C     		mov	r1, r3
 705 00b4 FFF7FEFF 		bl	fix16_mul
 706 00b8 031C     		mov	r3, r0
 707 00ba E21A     		sub	r2, r4, r3
 708 00bc 294B     		ldr	r3, .L32+12
 709 00be D318     		add	r3, r2, r3
 710 00c0 FB61     		str	r3, [r7, #28]
 711 00c2 2CE0     		b	.L30
 712              	.L29:
 150:.\libfixmath/fix16_trig.c **** 	} else {
 151:.\libfixmath/fix16_trig.c **** 		r = fix16_div( (inX + abs_inY), (abs_inY - inX));
 713              		.loc 1 151 0
 714 00c4 3A68     		ldr	r2, [r7]
 715 00c6 3B69     		ldr	r3, [r7, #16]
 716 00c8 D218     		add	r2, r2, r3
 717 00ca 3969     		ldr	r1, [r7, #16]
 718 00cc 3B68     		ldr	r3, [r7]
 719 00ce CB1A     		sub	r3, r1, r3
 720 00d0 101C     		mov	r0, r2
 721 00d2 191C     		mov	r1, r3
 722 00d4 FFF7FEFF 		bl	fix16_div
 723 00d8 031C     		mov	r3, r0
 724 00da FB60     		str	r3, [r7, #12]
 152:.\libfixmath/fix16_trig.c **** 		r_3 = fix16_mul(fix16_mul(r, r),r);
 725              		.loc 1 152 0
 726 00dc FA68     		ldr	r2, [r7, #12]
 727 00de FB68     		ldr	r3, [r7, #12]
 728 00e0 101C     		mov	r0, r2
 729 00e2 191C     		mov	r1, r3
 730 00e4 FFF7FEFF 		bl	fix16_mul
 731 00e8 021C     		mov	r2, r0
 732 00ea FB68     		ldr	r3, [r7, #12]
 733 00ec 101C     		mov	r0, r2
 734 00ee 191C     		mov	r1, r3
 735 00f0 FFF7FEFF 		bl	fix16_mul
 736 00f4 031C     		mov	r3, r0
 737 00f6 BB60     		str	r3, [r7, #8]
 153:.\libfixmath/fix16_trig.c **** 		angle = fix16_mul(0x00003240 , r_3) - fix16_mul(0x0000FB50,r) + THREE_PI_DIV_4;
 738              		.loc 1 153 0
 739 00f8 C923     		mov	r3, #201
 740 00fa 9A01     		lsl	r2, r3, #6
 741 00fc BB68     		ldr	r3, [r7, #8]
 742 00fe 101C     		mov	r0, r2
 743 0100 191C     		mov	r1, r3
ARM GAS  C:\Users\Felix\AppData\Local\Temp\cc1R7YW5.s 			page 17


 744 0102 FFF7FEFF 		bl	fix16_mul
 745 0106 041C     		mov	r4, r0
 746 0108 154A     		ldr	r2, .L32+8
 747 010a FB68     		ldr	r3, [r7, #12]
 748 010c 101C     		mov	r0, r2
 749 010e 191C     		mov	r1, r3
 750 0110 FFF7FEFF 		bl	fix16_mul
 751 0114 031C     		mov	r3, r0
 752 0116 E21A     		sub	r2, r4, r3
 753 0118 134B     		ldr	r3, .L32+16
 754 011a D318     		add	r3, r2, r3
 755 011c FB61     		str	r3, [r7, #28]
 756              	.L30:
 154:.\libfixmath/fix16_trig.c **** 	}
 155:.\libfixmath/fix16_trig.c **** 	if (inY < 0)
 757              		.loc 1 155 0
 758 011e 7B68     		ldr	r3, [r7, #4]
 759 0120 002B     		cmp	r3, #0
 760 0122 02DA     		bge	.L31
 156:.\libfixmath/fix16_trig.c **** 	{
 157:.\libfixmath/fix16_trig.c **** 		angle = -angle;
 761              		.loc 1 157 0
 762 0124 FB69     		ldr	r3, [r7, #28]
 763 0126 5B42     		neg	r3, r3
 764 0128 FB61     		str	r3, [r7, #28]
 765              	.L31:
 158:.\libfixmath/fix16_trig.c **** 	}
 159:.\libfixmath/fix16_trig.c **** 
 160:.\libfixmath/fix16_trig.c **** 	#ifndef FIXMATH_NO_CACHE
 161:.\libfixmath/fix16_trig.c **** 	_fix16_atan_cache_index[0][hash] = inX;
 766              		.loc 1 161 0
 767 012a 0B4B     		ldr	r3, .L32
 768 012c BA69     		ldr	r2, [r7, #24]
 769 012e 9200     		lsl	r2, r2, #2
 770 0130 3968     		ldr	r1, [r7]
 771 0132 D150     		str	r1, [r2, r3]
 162:.\libfixmath/fix16_trig.c **** 	_fix16_atan_cache_index[1][hash] = inY;
 772              		.loc 1 162 0
 773 0134 084B     		ldr	r3, .L32
 774 0136 BA69     		ldr	r2, [r7, #24]
 775 0138 8021     		mov	r1, #128
 776 013a 4901     		lsl	r1, r1, #5
 777 013c 5218     		add	r2, r2, r1
 778 013e 9200     		lsl	r2, r2, #2
 779 0140 7968     		ldr	r1, [r7, #4]
 780 0142 D150     		str	r1, [r2, r3]
 163:.\libfixmath/fix16_trig.c **** 	_fix16_atan_cache_value[hash] = angle;
 781              		.loc 1 163 0
 782 0144 054B     		ldr	r3, .L32+4
 783 0146 BA69     		ldr	r2, [r7, #24]
 784 0148 9200     		lsl	r2, r2, #2
 785 014a F969     		ldr	r1, [r7, #28]
 786 014c D150     		str	r1, [r2, r3]
 164:.\libfixmath/fix16_trig.c **** 	#endif
 165:.\libfixmath/fix16_trig.c **** 
 166:.\libfixmath/fix16_trig.c **** 	return angle;
 787              		.loc 1 166 0
ARM GAS  C:\Users\Felix\AppData\Local\Temp\cc1R7YW5.s 			page 18


 788 014e FB69     		ldr	r3, [r7, #28]
 789              	.L28:
 167:.\libfixmath/fix16_trig.c **** }
 790              		.loc 1 167 0
 791 0150 181C     		mov	r0, r3
 792 0152 BD46     		mov	sp, r7
 793 0154 09B0     		add	sp, sp, #36
 794              		@ sp needed
 795 0156 90BD     		pop	{r4, r7, pc}
 796              	.L33:
 797              		.align	2
 798              	.L32:
 799 0158 00800000 		.word	_fix16_atan_cache_index
 800 015c 00000100 		.word	_fix16_atan_cache_value
 801 0160 50FB0000 		.word	64336
 802 0164 0FC90000 		.word	51471
 803 0168 2F5B0200 		.word	154415
 804              		.cfi_endproc
 805              	.LFE12:
 806              		.size	fix16_atan2, .-fix16_atan2
 807              		.section	.text.fix16_atan,"ax",%progbits
 808              		.align	2
 809              		.global	fix16_atan
 810              		.code	16
 811              		.thumb_func
 812              		.type	fix16_atan, %function
 813              	fix16_atan:
 814              	.LFB13:
 168:.\libfixmath/fix16_trig.c **** 
 169:.\libfixmath/fix16_trig.c **** fix16_t fix16_atan(fix16_t inValue) {
 815              		.loc 1 169 0
 816              		.cfi_startproc
 817 0000 80B5     		push	{r7, lr}
 818              		.cfi_def_cfa_offset 8
 819              		.cfi_offset 7, -8
 820              		.cfi_offset 14, -4
 821 0002 82B0     		sub	sp, sp, #8
 822              		.cfi_def_cfa_offset 16
 823 0004 00AF     		add	r7, sp, #0
 824              		.cfi_def_cfa_register 7
 825 0006 7860     		str	r0, [r7, #4]
 170:.\libfixmath/fix16_trig.c **** 	return fix16_atan2(inValue, fix16_one);
 826              		.loc 1 170 0
 827 0008 8023     		mov	r3, #128
 828 000a 5B02     		lsl	r3, r3, #9
 829 000c 7A68     		ldr	r2, [r7, #4]
 830 000e 101C     		mov	r0, r2
 831 0010 191C     		mov	r1, r3
 832 0012 FFF7FEFF 		bl	fix16_atan2
 833 0016 031C     		mov	r3, r0
 171:.\libfixmath/fix16_trig.c **** }
 834              		.loc 1 171 0
 835 0018 181C     		mov	r0, r3
 836 001a BD46     		mov	sp, r7
 837 001c 02B0     		add	sp, sp, #8
 838              		@ sp needed
 839 001e 80BD     		pop	{r7, pc}
ARM GAS  C:\Users\Felix\AppData\Local\Temp\cc1R7YW5.s 			page 19


 840              		.cfi_endproc
 841              	.LFE13:
 842              		.size	fix16_atan, .-fix16_atan
 843              		.text
 844              	.Letext0:
 845              		.file 2 "c:\\program files (x86)\\cypress\\psoc creator\\3.1\\psoc creator\\import\\gnu_cs\\arm\\4
 846              		.file 3 "c:\\program files (x86)\\cypress\\psoc creator\\3.1\\psoc creator\\import\\gnu_cs\\arm\\4
 847              		.file 4 ".\\libfixmath\\fix16.h"