ARM GAS  C:\Users\Felix\AppData\Local\Temp\ccMAvig3.s 			page 1


   1              		.cpu cortex-m0
   2              		.fpu softvfp
   3              		.eabi_attribute 20, 1
   4              		.eabi_attribute 21, 1
   5              		.eabi_attribute 23, 3
   6              		.eabi_attribute 24, 1
   7              		.eabi_attribute 25, 1
   8              		.eabi_attribute 26, 1
   9              		.eabi_attribute 30, 6
  10              		.eabi_attribute 34, 0
  11              		.eabi_attribute 18, 4
  12              		.code	16
  13              		.file	"main.c"
  14              		.text
  15              	.Ltext0:
  16              		.cfi_sections	.debug_frame
  17              		.global	imuInitArray
  18              		.section	.rodata
  19              		.align	2
  20              		.type	imuInitArray, %object
  21              		.size	imuInitArray, 10
  22              	imuInitArray:
  23 0000 19       		.byte	25
  24 0001 04       		.byte	4
  25 0002 1A       		.byte	26
  26 0003 03       		.byte	3
  27 0004 1B       		.byte	27
  28 0005 18       		.byte	24
  29 0006 1C       		.byte	28
  30 0007 08       		.byte	8
  31 0008 6B       		.byte	107
  32 0009 01       		.byte	1
  33              		.global	dataReady
  34              		.bss
  35              		.type	dataReady, %object
  36              		.size	dataReady, 1
  37              	dataReady:
  38 0000 00       		.space	1
  39              		.global	accData
  40 0001 000000   		.align	2
  41              		.type	accData, %object
  42              		.size	accData, 8
  43              	accData:
  44 0004 00000000 		.space	8
  44      00000000 
  45              		.global	gyroData
  46              		.align	2
  47              		.type	gyroData, %object
  48              		.size	gyroData, 4
  49              	gyroData:
  50 000c 00000000 		.space	4
  51              		.global	gyroAng
  52              		.align	2
  53              		.type	gyroAng, %object
  54              		.size	gyroAng, 4
  55              	gyroAng:
  56 0010 00000000 		.space	4
ARM GAS  C:\Users\Felix\AppData\Local\Temp\ccMAvig3.s 			page 2


  57              		.global	accAng
  58              		.align	2
  59              		.type	accAng, %object
  60              		.size	accAng, 4
  61              	accAng:
  62 0014 00000000 		.space	4
  63              		.global	estAng
  64              		.align	2
  65              		.type	estAng, %object
  66              		.size	estAng, 4
  67              	estAng:
  68 0018 00000000 		.space	4
  69              		.section	.rodata
  70 000a 0000     		.align	2
  71              	.LC0:
  72 000c 0D0A0D0A 		.ascii	"\015\012\015\012Hello \000"
  72      48656C6C 
  72      6F2000
  73 0017 00       		.align	2
  74              	.LC3:
  75 0018 20576F72 		.ascii	" World!\015\012\015\012\000"
  75      6C64210D 
  75      0A0D0A00 
  76              		.align	2
  77              	.LC10:
  78 0024 25642C20 		.ascii	"%d, \000"
  78      00
  79              		.section	.text.main,"ax",%progbits
  80              		.align	2
  81              		.global	main
  82              		.code	16
  83              		.thumb_func
  84              		.type	main, %function
  85              	main:
  86              	.LFB33:
  87              		.file 1 ".\\main.c"
   1:.\main.c      **** /*******************************************************************************
   2:.\main.c      **** * File Name: main.c
   3:.\main.c      **** *
   4:.\main.c      **** * Version: 1.00
   5:.\main.c      **** *
   6:.\main.c      **** * Description:
   7:.\main.c      **** *  
   8:.\main.c      **** *
   9:.\main.c      **** ********************************************************************************
  10:.\main.c      **** * 
  11:.\main.c      **** *******************************************************************************/
  12:.\main.c      **** 
  13:.\main.c      **** #include <project.h>
  14:.\main.c      **** #include <stdio.h>
  15:.\main.c      **** #include <fixedMath.h>
  16:.\main.c      **** 
  17:.\main.c      **** /* Macro definitions */
  18:.\main.c      **** #define DEBUG 1
  19:.\main.c      **** 
  20:.\main.c      **** //sample rate and sample period
  21:.\main.c      **** #define FS 200
ARM GAS  C:\Users\Felix\AppData\Local\Temp\ccMAvig3.s 			page 3


  22:.\main.c      **** #define DT 328 // 65536/FS //dt defined as a 16.16 fixed point number
  23:.\main.c      **** 
  24:.\main.c      **** /* The scale factor of the mpu6050 gyroscope is 16.4 Lsb per    *
  25:.\main.c      ****  * deg/s, converted to 16.16 fixed point. (2^16/16.4  )         */
  26:.\main.c      **** #define GYRO_SCALE_FACTOR 3996
  27:.\main.c      **** /* The accelerometer scale factor of the mpu6050 accelerometer  *
  28:.\main.c      ****  * in the +- 4g range is 8192 Lsb/g, converted to 16.16 fixed   *
  29:.\main.c      ****  * point. (2^16/8192)                                           */
  30:.\main.c      **** #define ACC_SCALE_FACTOR 8
  31:.\main.c      **** 
  32:.\main.c      **** // 180 and 360 in 16.16 fixed point
  33:.\main.c      **** #define DEG_180 11796480 //(180 << 16)
  34:.\main.c      **** #define DEG_360 23592960 //(360 << 16)
  35:.\main.c      **** 
  36:.\main.c      **** #define GYRO_WEIGHT 58982 //0.90 * 2^16
  37:.\main.c      **** #define ACC_WEIGHT 6554 // (1 - gyro_weight) * 2^16
  38:.\main.c      **** 
  39:.\main.c      **** //I2C defines
  40:.\main.c      **** #define IMU_ADDRESS 0b1101000 //+1 for alt
  41:.\main.c      **** //#define GYRO_ADDRESS 0x68 //7 bit right justified
  42:.\main.c      **** //#define ACC_ADDRESS 0x53 //7 bit right justified
  43:.\main.c      **** 
  44:.\main.c      **** #define IMU_INIT_LEN 5
  45:.\main.c      **** //#define ACC_INIT_LEN 5
  46:.\main.c      **** //#define GYRO_INIT_LEN 4
  47:.\main.c      **** //#define ACC_Y_OFFSET 0
  48:.\main.c      **** //#define ACC_Z_OFFSET 0
  49:.\main.c      **** 
  50:.\main.c      **** #define GYRO_FIRST_DATA 0x43 //this is X_H which will be followed by X_L
  51:.\main.c      **** #define ACC_FIRST_DATA 0x3D //first in seq. Y_H, Y_L, Z_H, Z_L
  52:.\main.c      **** 
  53:.\main.c      **** #define SAMPLE_SIZE 190
  54:.\main.c      **** 
  55:.\main.c      **** /* Global constants */
  56:.\main.c      **** 
  57:.\main.c      **** const uint8_t imuInitArray[IMU_INIT_LEN][2] = {
  58:.\main.c      ****     {0x19, 4},              //set the datarate to 200Hz (1kHz/1+4)
  59:.\main.c      ****     {0x1A, 3},              //set dlpf freq to 44 and 42 for acc and gyro respectively
  60:.\main.c      ****     {0x1B, 24},             //gyro range = +/-2000 deg/s
  61:.\main.c      ****     {0x1C, 8},              //acc range = +/-4g
  62:.\main.c      ****     {0x6B, 1}               //set clk source to x gyro
  63:.\main.c      **** };
  64:.\main.c      **** 
  65:.\main.c      **** 
  66:.\main.c      **** //const uint8_t accInitArray[ACC_INIT_LEN][2] = {
  67:.\main.c      **** //    {0x1F, ACC_Y_OFFSET}, // calibration of y axis
  68:.\main.c      **** //    {0x20, ACC_Z_OFFSET}, // calibration of z axis
  69:.\main.c      **** //    {0x31, 0x01},         // set to +-4g range
  70:.\main.c      **** //    {0x2D, 0x12},         // activate meassurements
  71:.\main.c      **** //    {0x2D, 0x08},         // activate meassurements
  72:.\main.c      **** //};
  73:.\main.c      **** //
  74:.\main.c      **** //const uint8_t gyroInitArray[GYRO_INIT_LEN][2] = {
  75:.\main.c      **** //    {0x15, 0x03},         /* set the sample rate to 250Hz (1kHz/3+1) */
  76:.\main.c      **** //    {0x16, 0x1B},         /* set full range mode and 42Hz cutoff for *
  77:.\main.c      **** //                           * internal filter                         */
  78:.\main.c      **** //    {0x17, 0x01},         /* configure device to send data rdy int   */
ARM GAS  C:\Users\Felix\AppData\Local\Temp\ccMAvig3.s 			page 4


  79:.\main.c      **** //    {0x3E, 0x03}           //00 for debug normal 0x19 /* put y and z gyro in standby and select  
  80:.\main.c      **** //                           /* x gyro for clock                        */       
  81:.\main.c      **** //};
  82:.\main.c      **** 
  83:.\main.c      **** /* Global variables */
  84:.\main.c      **** volatile uint8 dataReady = 0;
  85:.\main.c      **** fix16_t accData[2] = {0, 0}, gyroData = 0;
  86:.\main.c      **** fix16_t gyroAng = 0, accAng = 0, estAng = 0;
  87:.\main.c      **** 
  88:.\main.c      **** /* Function prototypes */
  89:.\main.c      **** void setupI2CDevice(uint8_t addr, const uint8_t initArray[][2] , uint8_t arrayLen);    
  90:.\main.c      **** uint8_t readI2CReg(uint8_t addr, uint8_t reg);
  91:.\main.c      **** void writeI2CReg(uint8_t addr, uint8_t reg, uint8_t val);
  92:.\main.c      **** void readGyroData(fix16_t* gyroData);
  93:.\main.c      **** void readAccData(fix16_t* accData);
  94:.\main.c      **** CY_ISR_PROTO(gyroDataReadyInterrupt);
  95:.\main.c      **** 
  96:.\main.c      **** 
  97:.\main.c      **** int main()
  98:.\main.c      **** {
  88              		.loc 1 98 0
  89              		.cfi_startproc
  90 0000 90B5     		push	{r4, r7, lr}
  91              		.cfi_def_cfa_offset 12
  92              		.cfi_offset 4, -12
  93              		.cfi_offset 7, -8
  94              		.cfi_offset 14, -4
  95 0002 89B0     		sub	sp, sp, #36
  96              		.cfi_def_cfa_offset 48
  97 0004 00AF     		add	r7, sp, #0
  98              		.cfi_def_cfa_register 7
  99:.\main.c      ****     /* Start the Components */
 100:.\main.c      ****     UART_Start();
  99              		.loc 1 100 0
 100 0006 FFF7FEFF 		bl	UART_Start
 101:.\main.c      ****     I2C_Start();
 101              		.loc 1 101 0
 102 000a FFF7FEFF 		bl	I2C_Start
 102:.\main.c      ****     DATA_TIMER_Start();
 103              		.loc 1 102 0
 104 000e FFF7FEFF 		bl	DATA_TIMER_Start
 103:.\main.c      ****     
 104:.\main.c      ****     UART_UartPutString("\r\n\r\nHello ");
 105              		.loc 1 104 0
 106 0012 4A4B     		ldr	r3, .L8
 107 0014 181C     		mov	r0, r3
 108 0016 FFF7FEFF 		bl	UART_UartPutString
 105:.\main.c      ****     
 106:.\main.c      ****     /* Setup the accelerometer and gyro */
 107:.\main.c      ****     //setupI2CDevice(GYRO_ADDRESS, gyroInitArray, GYRO_INIT_LEN);
 108:.\main.c      ****     //setupI2CDevice(ACC_ADDRESS, accInitArray, ACC_INIT_LEN);
 109:.\main.c      ****     setupI2CDevice(IMU_ADDRESS, imuInitArray, IMU_INIT_LEN);
 109              		.loc 1 109 0
 110 001a 494B     		ldr	r3, .L8+4
 111 001c 6820     		mov	r0, #104
 112 001e 191C     		mov	r1, r3
 113 0020 0522     		mov	r2, #5
ARM GAS  C:\Users\Felix\AppData\Local\Temp\ccMAvig3.s 			page 5


 114 0022 FFF7FEFF 		bl	setupI2CDevice
 110:.\main.c      ****       
 111:.\main.c      ****     /*print opening msg*/
 112:.\main.c      ****     UART_UartPutString(" World!\r\n\r\n");
 115              		.loc 1 112 0
 116 0026 474B     		ldr	r3, .L8+8
 117 0028 181C     		mov	r0, r3
 118 002a FFF7FEFF 		bl	UART_UartPutString
 113:.\main.c      ****     
 114:.\main.c      ****     /* Enable global interrupts */
 115:.\main.c      ****     GYRO_DR_INT_StartEx(&gyroDataReadyInterrupt);    
 119              		.loc 1 115 0
 120 002e 464B     		ldr	r3, .L8+12
 121 0030 181C     		mov	r0, r3
 122 0032 FFF7FEFF 		bl	GYRO_DR_INT_StartEx
 116:.\main.c      ****     
 117:.\main.c      ****     fix16_t gyroAng = 0;
 123              		.loc 1 117 0
 124 0036 0023     		mov	r3, #0
 125 0038 FB61     		str	r3, [r7, #28]
 118:.\main.c      ****    
 119:.\main.c      ****     CyGlobalIntEnable;
 126              		.loc 1 119 0
 127              	@ 119 ".\main.c" 1
 128 003a 62B6     		CPSIE   i
 129              	@ 0 "" 2
 130              		.code	16
 131              	.L7:
 132              	.LBB2:
 120:.\main.c      ****     while(1)
 121:.\main.c      ****     {
 122:.\main.c      ****         //wait for data
 123:.\main.c      ****         while(dataReady == 0);
 133              		.loc 1 123 0
 134 003c C046     		mov	r8, r8
 135              	.L2:
 136              		.loc 1 123 0 is_stmt 0 discriminator 1
 137 003e 434B     		ldr	r3, .L8+16
 138 0040 1B78     		ldrb	r3, [r3]
 139 0042 DBB2     		uxtb	r3, r3
 140 0044 002B     		cmp	r3, #0
 141 0046 FAD0     		beq	.L2
 124:.\main.c      ****         
 125:.\main.c      ****         //read sensor data
 126:.\main.c      ****         readGyroData(&gyroData);
 142              		.loc 1 126 0 is_stmt 1
 143 0048 414B     		ldr	r3, .L8+20
 144 004a 181C     		mov	r0, r3
 145 004c FFF7FEFF 		bl	readGyroData
 127:.\main.c      ****         readAccData(accData);
 146              		.loc 1 127 0
 147 0050 404B     		ldr	r3, .L8+24
 148 0052 181C     		mov	r0, r3
 149 0054 FFF7FEFF 		bl	readAccData
 128:.\main.c      ****         
 129:.\main.c      ****         // Integrate gyro data over last sample period, and calculate new angle from gyro          
 130:.\main.c      ****         estAng += fix16mul(gyroData, DT);
ARM GAS  C:\Users\Felix\AppData\Local\Temp\ccMAvig3.s 			page 6


 150              		.loc 1 130 0
 151 0058 3D4B     		ldr	r3, .L8+20
 152 005a 1A68     		ldr	r2, [r3]
 153 005c A423     		mov	r3, #164
 154 005e 5B00     		lsl	r3, r3, #1
 155 0060 101C     		mov	r0, r2
 156 0062 191C     		mov	r1, r3
 157 0064 FFF7FEFF 		bl	fix16mul
 158 0068 021C     		mov	r2, r0
 159 006a 3B4B     		ldr	r3, .L8+28
 160 006c 1B68     		ldr	r3, [r3]
 161 006e D218     		add	r2, r2, r3
 162 0070 394B     		ldr	r3, .L8+28
 163 0072 1A60     		str	r2, [r3]
 131:.\main.c      ****         
 132:.\main.c      ****         // wrap angle if outside +/- 180 area
 133:.\main.c      ****         if(estAng < -DEG_180) estAng += DEG_360; 
 164              		.loc 1 133 0
 165 0074 384B     		ldr	r3, .L8+28
 166 0076 1A68     		ldr	r2, [r3]
 167 0078 384B     		ldr	r3, .L8+32
 168 007a 9A42     		cmp	r2, r3
 169 007c 06DA     		bge	.L3
 170              		.loc 1 133 0 is_stmt 0 discriminator 1
 171 007e 364B     		ldr	r3, .L8+28
 172 0080 1B68     		ldr	r3, [r3]
 173 0082 B421     		mov	r1, #180
 174 0084 4904     		lsl	r1, r1, #17
 175 0086 5A18     		add	r2, r3, r1
 176 0088 334B     		ldr	r3, .L8+28
 177 008a 1A60     		str	r2, [r3]
 178              	.L3:
 134:.\main.c      ****         if(estAng > DEG_180) estAng -= DEG_360; 
 179              		.loc 1 134 0 is_stmt 1
 180 008c 324B     		ldr	r3, .L8+28
 181 008e 1A68     		ldr	r2, [r3]
 182 0090 B423     		mov	r3, #180
 183 0092 1B04     		lsl	r3, r3, #16
 184 0094 9A42     		cmp	r2, r3
 185 0096 05DD     		ble	.L4
 186              		.loc 1 134 0 is_stmt 0 discriminator 1
 187 0098 2F4B     		ldr	r3, .L8+28
 188 009a 1B68     		ldr	r3, [r3]
 189 009c 3049     		ldr	r1, .L8+36
 190 009e 5A18     		add	r2, r3, r1
 191 00a0 2D4B     		ldr	r3, .L8+28
 192 00a2 1A60     		str	r2, [r3]
 193              	.L4:
 135:.\main.c      ****         
 136:.\main.c      ****         /* Correct angle estimate using accelerometer data if it is estimated valid. *
 137:.\main.c      ****          * The acc input can be used if the accelleration vector has a length close  *
 138:.\main.c      ****          * to 1g (no force other than gravity), which is estimated by the sum of the *
 139:.\main.c      ****          * components for computational efficiency.                                  */
 140:.\main.c      ****         fix16_t forceMagEst = fix16abs(accData[0]) + fix16abs(accData[1]);
 194              		.loc 1 140 0 is_stmt 1
 195 00a4 2B4B     		ldr	r3, .L8+24
 196 00a6 1B68     		ldr	r3, [r3]
ARM GAS  C:\Users\Felix\AppData\Local\Temp\ccMAvig3.s 			page 7


 197 00a8 181C     		mov	r0, r3
 198 00aa FFF7FEFF 		bl	fix16abs
 199 00ae 041C     		mov	r4, r0
 200 00b0 284B     		ldr	r3, .L8+24
 201 00b2 5B68     		ldr	r3, [r3, #4]
 202 00b4 181C     		mov	r0, r3
 203 00b6 FFF7FEFF 		bl	fix16abs
 204 00ba 031C     		mov	r3, r0
 205 00bc E318     		add	r3, r4, r3
 206 00be BB61     		str	r3, [r7, #24]
 141:.\main.c      ****         
 142:.\main.c      ****         // Use if forcemag is between 0.95*(2^16) and 1.3*(2^16)
 143:.\main.c      ****         fix16_t accAng = 0;
 207              		.loc 1 143 0
 208 00c0 0023     		mov	r3, #0
 209 00c2 7B61     		str	r3, [r7, #20]
 144:.\main.c      ****         if(62259 < forceMagEst && forceMagEst < 85197) 
 210              		.loc 1 144 0
 211 00c4 BA69     		ldr	r2, [r7, #24]
 212 00c6 274B     		ldr	r3, .L8+40
 213 00c8 9A42     		cmp	r2, r3
 214 00ca 25DD     		ble	.L5
 215              		.loc 1 144 0 is_stmt 0 discriminator 1
 216 00cc BA69     		ldr	r2, [r7, #24]
 217 00ce 264B     		ldr	r3, .L8+44
 218 00d0 9A42     		cmp	r2, r3
 219 00d2 21DC     		bgt	.L5
 145:.\main.c      ****         {
 146:.\main.c      ****             accAng = fix16rad2deg(FIXED_HALF_PI + fix16atan2(accData[1], accData[0]));
 220              		.loc 1 146 0 is_stmt 1
 221 00d4 1F4B     		ldr	r3, .L8+24
 222 00d6 5A68     		ldr	r2, [r3, #4]
 223 00d8 1E4B     		ldr	r3, .L8+24
 224 00da 1B68     		ldr	r3, [r3]
 225 00dc 101C     		mov	r0, r2
 226 00de 191C     		mov	r1, r3
 227 00e0 FFF7FEFF 		bl	fix16atan2
 228 00e4 031C     		mov	r3, r0
 229 00e6 214A     		ldr	r2, .L8+48
 230 00e8 9B18     		add	r3, r3, r2
 231 00ea 181C     		mov	r0, r3
 232 00ec FFF7FEFF 		bl	fix16rad2deg
 233 00f0 031C     		mov	r3, r0
 234 00f2 7B61     		str	r3, [r7, #20]
 147:.\main.c      ****             //take part of gyro estimate and add complementary part of acc estimate
 148:.\main.c      ****             estAng = fix16mul(GYRO_WEIGHT, estAng) 
 235              		.loc 1 148 0
 236 00f4 184B     		ldr	r3, .L8+28
 237 00f6 1B68     		ldr	r3, [r3]
 238 00f8 1D4A     		ldr	r2, .L8+52
 239 00fa 101C     		mov	r0, r2
 240 00fc 191C     		mov	r1, r3
 241 00fe FFF7FEFF 		bl	fix16mul
 242 0102 041C     		mov	r4, r0
 149:.\main.c      ****                      + fix16mul(ACC_WEIGHT, accAng);
 243              		.loc 1 149 0
 244 0104 1B4A     		ldr	r2, .L8+56
ARM GAS  C:\Users\Felix\AppData\Local\Temp\ccMAvig3.s 			page 8


 245 0106 7B69     		ldr	r3, [r7, #20]
 246 0108 101C     		mov	r0, r2
 247 010a 191C     		mov	r1, r3
 248 010c FFF7FEFF 		bl	fix16mul
 249 0110 031C     		mov	r3, r0
 250 0112 E218     		add	r2, r4, r3
 148:.\main.c      ****             estAng = fix16mul(GYRO_WEIGHT, estAng) 
 251              		.loc 1 148 0
 252 0114 104B     		ldr	r3, .L8+28
 253 0116 1A60     		str	r2, [r3]
 254              	.L5:
 150:.\main.c      ****         }    
 151:.\main.c      ****             
 152:.\main.c      ****             
 153:.\main.c      ****         //print result
 154:.\main.c      ****         
 155:.\main.c      ****         char result[15];
 156:.\main.c      ****         sprintf(result, "%d, ", estAng);
 255              		.loc 1 156 0
 256 0118 0F4B     		ldr	r3, .L8+28
 257 011a 1B68     		ldr	r3, [r3]
 258 011c 391D     		add	r1, r7, #4
 259 011e 164A     		ldr	r2, .L8+60
 260 0120 081C     		mov	r0, r1
 261 0122 111C     		mov	r1, r2
 262 0124 1A1C     		mov	r2, r3
 263 0126 FFF7FEFF 		bl	sprintf
 157:.\main.c      ****         UART_UartPutString(result);
 264              		.loc 1 157 0
 265 012a 3B1D     		add	r3, r7, #4
 266 012c 181C     		mov	r0, r3
 267 012e FFF7FEFF 		bl	UART_UartPutString
 158:.\main.c      ****         dataReady = 0;
 268              		.loc 1 158 0
 269 0132 064B     		ldr	r3, .L8+16
 270 0134 0022     		mov	r2, #0
 271 0136 1A70     		strb	r2, [r3]
 272              	.LBE2:
 159:.\main.c      ****     }
 273              		.loc 1 159 0
 274 0138 C046     		mov	r8, r8
 275              	.LBB3:
 123:.\main.c      ****         while(dataReady == 0);
 276              		.loc 1 123 0
 277 013a 7FE7     		b	.L7
 278              	.L9:
 279              		.align	2
 280              	.L8:
 281 013c 0C000000 		.word	.LC0
 282 0140 00000000 		.word	imuInitArray
 283 0144 18000000 		.word	.LC3
 284 0148 00000000 		.word	gyroDataReadyInterrupt
 285 014c 00000000 		.word	dataReady
 286 0150 00000000 		.word	gyroData
 287 0154 00000000 		.word	accData
 288 0158 00000000 		.word	estAng
 289 015c 00004CFF 		.word	-11796480
ARM GAS  C:\Users\Felix\AppData\Local\Temp\ccMAvig3.s 			page 9


 290 0160 000098FE 		.word	-23592960
 291 0164 33F30000 		.word	62259
 292 0168 CC4C0100 		.word	85196
 293 016c 20920100 		.word	102944
 294 0170 66E60000 		.word	58982
 295 0174 9A190000 		.word	6554
 296 0178 24000000 		.word	.LC10
 297              	.LBE3:
 298              		.cfi_endproc
 299              	.LFE33:
 300              		.size	main, .-main
 301              		.section	.text.setupI2CDevice,"ax",%progbits
 302              		.align	2
 303              		.global	setupI2CDevice
 304              		.code	16
 305              		.thumb_func
 306              		.type	setupI2CDevice, %function
 307              	setupI2CDevice:
 308              	.LFB34:
 160:.\main.c      **** }
 161:.\main.c      **** 
 162:.\main.c      **** void setupI2CDevice(uint8_t addr, const uint8_t initArray[][2] , uint8_t arrayLen){
 309              		.loc 1 162 0
 310              		.cfi_startproc
 311 0000 80B5     		push	{r7, lr}
 312              		.cfi_def_cfa_offset 8
 313              		.cfi_offset 7, -8
 314              		.cfi_offset 14, -4
 315 0002 84B0     		sub	sp, sp, #16
 316              		.cfi_def_cfa_offset 24
 317 0004 00AF     		add	r7, sp, #0
 318              		.cfi_def_cfa_register 7
 319 0006 3960     		str	r1, [r7]
 320 0008 FB1D     		add	r3, r7, #7
 321 000a 011C     		add	r1, r0, #0
 322 000c 1970     		strb	r1, [r3]
 323 000e BB1D     		add	r3, r7, #6
 324 0010 1A70     		strb	r2, [r3]
 163:.\main.c      ****     int i;
 164:.\main.c      ****     for(i = 0; i < arrayLen; i++){
 325              		.loc 1 164 0
 326 0012 0023     		mov	r3, #0
 327 0014 FB60     		str	r3, [r7, #12]
 328 0016 13E0     		b	.L11
 329              	.L12:
 165:.\main.c      ****         writeI2CReg(addr, initArray[i][0], initArray[i][1]);
 330              		.loc 1 165 0 discriminator 2
 331 0018 FB68     		ldr	r3, [r7, #12]
 332 001a 5B00     		lsl	r3, r3, #1
 333 001c 3A68     		ldr	r2, [r7]
 334 001e D318     		add	r3, r2, r3
 335 0020 1A78     		ldrb	r2, [r3]
 336 0022 FB68     		ldr	r3, [r7, #12]
 337 0024 5B00     		lsl	r3, r3, #1
 338 0026 3968     		ldr	r1, [r7]
 339 0028 CB18     		add	r3, r1, r3
 340 002a 5B78     		ldrb	r3, [r3, #1]
ARM GAS  C:\Users\Felix\AppData\Local\Temp\ccMAvig3.s 			page 10


 341 002c F91D     		add	r1, r7, #7
 342 002e 0978     		ldrb	r1, [r1]
 343 0030 081C     		mov	r0, r1
 344 0032 111C     		mov	r1, r2
 345 0034 1A1C     		mov	r2, r3
 346 0036 FFF7FEFF 		bl	writeI2CReg
 164:.\main.c      ****     for(i = 0; i < arrayLen; i++){
 347              		.loc 1 164 0 discriminator 2
 348 003a FB68     		ldr	r3, [r7, #12]
 349 003c 0133     		add	r3, r3, #1
 350 003e FB60     		str	r3, [r7, #12]
 351              	.L11:
 164:.\main.c      ****     for(i = 0; i < arrayLen; i++){
 352              		.loc 1 164 0 is_stmt 0 discriminator 1
 353 0040 BB1D     		add	r3, r7, #6
 354 0042 1A78     		ldrb	r2, [r3]
 355 0044 FB68     		ldr	r3, [r7, #12]
 356 0046 9A42     		cmp	r2, r3
 357 0048 E6DC     		bgt	.L12
 166:.\main.c      ****     }
 167:.\main.c      **** }
 358              		.loc 1 167 0 is_stmt 1
 359 004a BD46     		mov	sp, r7
 360 004c 04B0     		add	sp, sp, #16
 361              		@ sp needed
 362 004e 80BD     		pop	{r7, pc}
 363              		.cfi_endproc
 364              	.LFE34:
 365              		.size	setupI2CDevice, .-setupI2CDevice
 366              		.section	.text.readI2CReg,"ax",%progbits
 367              		.align	2
 368              		.global	readI2CReg
 369              		.code	16
 370              		.thumb_func
 371              		.type	readI2CReg, %function
 372              	readI2CReg:
 373              	.LFB35:
 168:.\main.c      ****     
 169:.\main.c      **** uint8_t readI2CReg(uint8_t addr, uint8_t reg)
 170:.\main.c      **** {
 374              		.loc 1 170 0
 375              		.cfi_startproc
 376 0000 80B5     		push	{r7, lr}
 377              		.cfi_def_cfa_offset 8
 378              		.cfi_offset 7, -8
 379              		.cfi_offset 14, -4
 380 0002 84B0     		sub	sp, sp, #16
 381              		.cfi_def_cfa_offset 24
 382 0004 00AF     		add	r7, sp, #0
 383              		.cfi_def_cfa_register 7
 384 0006 0A1C     		mov	r2, r1
 385 0008 FB1D     		add	r3, r7, #7
 386 000a 011C     		add	r1, r0, #0
 387 000c 1970     		strb	r1, [r3]
 388 000e BB1D     		add	r3, r7, #6
 389 0010 1A70     		strb	r2, [r3]
 171:.\main.c      ****     
ARM GAS  C:\Users\Felix\AppData\Local\Temp\ccMAvig3.s 			page 11


 172:.\main.c      ****     uint8_t result; 
 173:.\main.c      ****     
 174:.\main.c      **** 	if (I2C_I2CMasterSendStart(addr, 0) == I2C_I2C_MSTR_NO_ERROR) /* Check if transfer completed witho
 390              		.loc 1 174 0
 391 0012 FB1D     		add	r3, r7, #7
 392 0014 1B78     		ldrb	r3, [r3]
 393 0016 181C     		mov	r0, r3
 394 0018 0021     		mov	r1, #0
 395 001a FFF7FEFF 		bl	I2C_I2CMasterSendStart
 396 001e 031C     		mov	r3, r0
 397 0020 002B     		cmp	r3, #0
 398 0022 19D1     		bne	.L14
 175:.\main.c      ****     { 
 176:.\main.c      ****         if(I2C_I2CMasterWriteByte(reg) == I2C_I2C_MSTR_NO_ERROR)
 399              		.loc 1 176 0
 400 0024 BB1D     		add	r3, r7, #6
 401 0026 1B78     		ldrb	r3, [r3]
 402 0028 181C     		mov	r0, r3
 403 002a FFF7FEFF 		bl	I2C_I2CMasterWriteByte
 404 002e 031C     		mov	r3, r0
 405 0030 002B     		cmp	r3, #0
 406 0032 11D1     		bne	.L14
 177:.\main.c      **** 		{
 178:.\main.c      ****             if(I2C_I2CMasterSendRestart(addr, 1) == I2C_I2C_MSTR_NO_ERROR)
 407              		.loc 1 178 0
 408 0034 FB1D     		add	r3, r7, #7
 409 0036 1B78     		ldrb	r3, [r3]
 410 0038 181C     		mov	r0, r3
 411 003a 0121     		mov	r1, #1
 412 003c FFF7FEFF 		bl	I2C_I2CMasterSendRestart
 413 0040 031C     		mov	r3, r0
 414 0042 002B     		cmp	r3, #0
 415 0044 08D1     		bne	.L14
 179:.\main.c      **** 			{
 180:.\main.c      ****                 result = I2C_I2CMasterReadByte(I2C_I2C_NAK_DATA);
 416              		.loc 1 180 0
 417 0046 0120     		mov	r0, #1
 418 0048 FFF7FEFF 		bl	I2C_I2CMasterReadByte
 419 004c 021C     		mov	r2, r0
 420 004e 3B1C     		mov	r3, r7
 421 0050 0F33     		add	r3, r3, #15
 422 0052 1A70     		strb	r2, [r3]
 181:.\main.c      ****                 I2C_I2CMasterSendStop();
 423              		.loc 1 181 0
 424 0054 FFF7FEFF 		bl	I2C_I2CMasterSendStop
 425              	.L14:
 182:.\main.c      **** 				
 183:.\main.c      **** 			}
 184:.\main.c      **** 		}
 185:.\main.c      **** 	}
 186:.\main.c      **** 	return result;		
 426              		.loc 1 186 0
 427 0058 3B1C     		mov	r3, r7
 428 005a 0F33     		add	r3, r3, #15
 429 005c 1B78     		ldrb	r3, [r3]
 187:.\main.c      ****     
 188:.\main.c      **** }
ARM GAS  C:\Users\Felix\AppData\Local\Temp\ccMAvig3.s 			page 12


 430              		.loc 1 188 0
 431 005e 181C     		mov	r0, r3
 432 0060 BD46     		mov	sp, r7
 433 0062 04B0     		add	sp, sp, #16
 434              		@ sp needed
 435 0064 80BD     		pop	{r7, pc}
 436              		.cfi_endproc
 437              	.LFE35:
 438              		.size	readI2CReg, .-readI2CReg
 439 0066 C046     		.section	.text.writeI2CReg,"ax",%progbits
 440              		.align	2
 441              		.global	writeI2CReg
 442              		.code	16
 443              		.thumb_func
 444              		.type	writeI2CReg, %function
 445              	writeI2CReg:
 446              	.LFB36:
 189:.\main.c      **** 
 190:.\main.c      **** void writeI2CReg(uint8_t addr, uint8_t reg, uint8_t val){
 447              		.loc 1 190 0
 448              		.cfi_startproc
 449 0000 80B5     		push	{r7, lr}
 450              		.cfi_def_cfa_offset 8
 451              		.cfi_offset 7, -8
 452              		.cfi_offset 14, -4
 453 0002 82B0     		sub	sp, sp, #8
 454              		.cfi_def_cfa_offset 16
 455 0004 00AF     		add	r7, sp, #0
 456              		.cfi_def_cfa_register 7
 457 0006 FB1D     		add	r3, r7, #7
 458 0008 1870     		strb	r0, [r3]
 459 000a BB1D     		add	r3, r7, #6
 460 000c 1970     		strb	r1, [r3]
 461 000e 7B1D     		add	r3, r7, #5
 462 0010 1A70     		strb	r2, [r3]
 191:.\main.c      ****     //I2C_I2CMasterSendStart(addr, 0);
 192:.\main.c      ****     //I2C_I2CMasterWriteByte(reg);
 193:.\main.c      ****     //I2C_I2CMasterWriteByte(val);
 194:.\main.c      ****     //I2C_I2CMasterSendStop();
 195:.\main.c      ****    
 196:.\main.c      ****     
 197:.\main.c      **** 	if (I2C_I2CMasterSendStart(addr, 0) == I2C_I2C_MSTR_NO_ERROR) /* Check if transfer completed witho
 463              		.loc 1 197 0
 464 0012 FB1D     		add	r3, r7, #7
 465 0014 1B78     		ldrb	r3, [r3]
 466 0016 181C     		mov	r0, r3
 467 0018 0021     		mov	r1, #0
 468 001a FFF7FEFF 		bl	I2C_I2CMasterSendStart
 469 001e 031C     		mov	r3, r0
 470 0020 002B     		cmp	r3, #0
 471 0022 11D1     		bne	.L16
 198:.\main.c      ****     { 
 199:.\main.c      ****         if(I2C_I2CMasterWriteByte(reg) == I2C_I2C_MSTR_NO_ERROR)
 472              		.loc 1 199 0
 473 0024 BB1D     		add	r3, r7, #6
 474 0026 1B78     		ldrb	r3, [r3]
 475 0028 181C     		mov	r0, r3
ARM GAS  C:\Users\Felix\AppData\Local\Temp\ccMAvig3.s 			page 13


 476 002a FFF7FEFF 		bl	I2C_I2CMasterWriteByte
 477 002e 031C     		mov	r3, r0
 478 0030 002B     		cmp	r3, #0
 479 0032 09D1     		bne	.L16
 200:.\main.c      **** 		{
 201:.\main.c      ****               if(I2C_I2CMasterWriteByte(val) == I2C_I2C_MSTR_NO_ERROR)   
 480              		.loc 1 201 0
 481 0034 7B1D     		add	r3, r7, #5
 482 0036 1B78     		ldrb	r3, [r3]
 483 0038 181C     		mov	r0, r3
 484 003a FFF7FEFF 		bl	I2C_I2CMasterWriteByte
 485 003e 031C     		mov	r3, r0
 486 0040 002B     		cmp	r3, #0
 487 0042 01D1     		bne	.L16
 202:.\main.c      ****                 {      
 203:.\main.c      ****                     I2C_I2CMasterSendStop();
 488              		.loc 1 203 0
 489 0044 FFF7FEFF 		bl	I2C_I2CMasterSendStop
 490              	.L16:
 204:.\main.c      ****     		    }
 205:.\main.c      **** 		}
 206:.\main.c      **** 	}
 207:.\main.c      **** 	
 208:.\main.c      ****     
 209:.\main.c      ****     
 210:.\main.c      **** }
 491              		.loc 1 210 0
 492 0048 BD46     		mov	sp, r7
 493 004a 02B0     		add	sp, sp, #8
 494              		@ sp needed
 495 004c 80BD     		pop	{r7, pc}
 496              		.cfi_endproc
 497              	.LFE36:
 498              		.size	writeI2CReg, .-writeI2CReg
 499 004e C046     		.section	.text.readGyroData,"ax",%progbits
 500              		.align	2
 501              		.global	readGyroData
 502              		.code	16
 503              		.thumb_func
 504              		.type	readGyroData, %function
 505              	readGyroData:
 506              	.LFB37:
 211:.\main.c      **** 
 212:.\main.c      **** void readGyroData(fix16_t* gyroData)
 213:.\main.c      **** {
 507              		.loc 1 213 0
 508              		.cfi_startproc
 509 0000 90B5     		push	{r4, r7, lr}
 510              		.cfi_def_cfa_offset 12
 511              		.cfi_offset 4, -12
 512              		.cfi_offset 7, -8
 513              		.cfi_offset 14, -4
 514 0002 85B0     		sub	sp, sp, #20
 515              		.cfi_def_cfa_offset 32
 516 0004 00AF     		add	r7, sp, #0
 517              		.cfi_def_cfa_register 7
 518 0006 7860     		str	r0, [r7, #4]
ARM GAS  C:\Users\Felix\AppData\Local\Temp\ccMAvig3.s 			page 14


 214:.\main.c      ****     //read the acc data from the accellerometer
 215:.\main.c      ****     int16_t rawGyroX = readI2CReg(IMU_ADDRESS, GYRO_FIRST_DATA + 1) 
 519              		.loc 1 215 0
 520 0008 6820     		mov	r0, #104
 521 000a 4421     		mov	r1, #68
 522 000c FFF7FEFF 		bl	readI2CReg
 523 0010 031C     		mov	r3, r0
 524 0012 1C1C     		mov	r4, r3
 216:.\main.c      ****             + ((int16_t) readI2CReg(IMU_ADDRESS, GYRO_FIRST_DATA) << 8);
 525              		.loc 1 216 0
 526 0014 6820     		mov	r0, #104
 527 0016 4321     		mov	r1, #67
 528 0018 FFF7FEFF 		bl	readI2CReg
 529 001c 031C     		mov	r3, r0
 215:.\main.c      ****     int16_t rawGyroX = readI2CReg(IMU_ADDRESS, GYRO_FIRST_DATA + 1) 
 530              		.loc 1 215 0
 531 001e 1B02     		lsl	r3, r3, #8
 532 0020 9BB2     		uxth	r3, r3
 533 0022 E318     		add	r3, r4, r3
 534 0024 9AB2     		uxth	r2, r3
 535 0026 3B1C     		mov	r3, r7
 536 0028 0E33     		add	r3, r3, #14
 537 002a 1A80     		strh	r2, [r3]
 217:.\main.c      ****     //scale data and return it
 218:.\main.c      ****     *gyroData = (fix16_t) rawGyroX * GYRO_SCALE_FACTOR;
 538              		.loc 1 218 0
 539 002c 3B1C     		mov	r3, r7
 540 002e 0E33     		add	r3, r3, #14
 541 0030 0022     		mov	r2, #0
 542 0032 9B5E     		ldrsh	r3, [r3, r2]
 543 0034 034A     		ldr	r2, .L19
 544 0036 5A43     		mul	r2, r3
 545 0038 7B68     		ldr	r3, [r7, #4]
 546 003a 1A60     		str	r2, [r3]
 219:.\main.c      **** }
 547              		.loc 1 219 0
 548 003c BD46     		mov	sp, r7
 549 003e 05B0     		add	sp, sp, #20
 550              		@ sp needed
 551 0040 90BD     		pop	{r4, r7, pc}
 552              	.L20:
 553 0042 C046     		.align	2
 554              	.L19:
 555 0044 9C0F0000 		.word	3996
 556              		.cfi_endproc
 557              	.LFE37:
 558              		.size	readGyroData, .-readGyroData
 559              		.section	.text.readAccData,"ax",%progbits
 560              		.align	2
 561              		.global	readAccData
 562              		.code	16
 563              		.thumb_func
 564              		.type	readAccData, %function
 565              	readAccData:
 566              	.LFB38:
 220:.\main.c      **** 
 221:.\main.c      **** void readAccData(fix16_t* accData)
ARM GAS  C:\Users\Felix\AppData\Local\Temp\ccMAvig3.s 			page 15


 222:.\main.c      **** {
 567              		.loc 1 222 0
 568              		.cfi_startproc
 569 0000 90B5     		push	{r4, r7, lr}
 570              		.cfi_def_cfa_offset 12
 571              		.cfi_offset 4, -12
 572              		.cfi_offset 7, -8
 573              		.cfi_offset 14, -4
 574 0002 85B0     		sub	sp, sp, #20
 575              		.cfi_def_cfa_offset 32
 576 0004 00AF     		add	r7, sp, #0
 577              		.cfi_def_cfa_register 7
 578 0006 7860     		str	r0, [r7, #4]
 223:.\main.c      ****     //read the raw data from the accellerometer
 224:.\main.c      ****     int16 rawAccY = readI2CReg(IMU_ADDRESS, ACC_FIRST_DATA+1) 
 579              		.loc 1 224 0
 580 0008 6820     		mov	r0, #104
 581 000a 3E21     		mov	r1, #62
 582 000c FFF7FEFF 		bl	readI2CReg
 583 0010 031C     		mov	r3, r0
 584 0012 1C1C     		mov	r4, r3
 225:.\main.c      ****             + ((int16_t) readI2CReg(IMU_ADDRESS, ACC_FIRST_DATA)<<8);
 585              		.loc 1 225 0
 586 0014 6820     		mov	r0, #104
 587 0016 3D21     		mov	r1, #61
 588 0018 FFF7FEFF 		bl	readI2CReg
 589 001c 031C     		mov	r3, r0
 224:.\main.c      ****     int16 rawAccY = readI2CReg(IMU_ADDRESS, ACC_FIRST_DATA+1) 
 590              		.loc 1 224 0
 591 001e 1B02     		lsl	r3, r3, #8
 592 0020 9BB2     		uxth	r3, r3
 593 0022 E318     		add	r3, r4, r3
 594 0024 9AB2     		uxth	r2, r3
 595 0026 3B1C     		mov	r3, r7
 596 0028 0E33     		add	r3, r3, #14
 597 002a 1A80     		strh	r2, [r3]
 226:.\main.c      ****     int16 rawAccZ = readI2CReg(IMU_ADDRESS, ACC_FIRST_DATA+3) 
 598              		.loc 1 226 0
 599 002c 6820     		mov	r0, #104
 600 002e 4021     		mov	r1, #64
 601 0030 FFF7FEFF 		bl	readI2CReg
 602 0034 031C     		mov	r3, r0
 603 0036 1C1C     		mov	r4, r3
 227:.\main.c      ****             + ((int16_t) readI2CReg(IMU_ADDRESS, ACC_FIRST_DATA + 2)<<8);
 604              		.loc 1 227 0
 605 0038 6820     		mov	r0, #104
 606 003a 3F21     		mov	r1, #63
 607 003c FFF7FEFF 		bl	readI2CReg
 608 0040 031C     		mov	r3, r0
 226:.\main.c      ****     int16 rawAccZ = readI2CReg(IMU_ADDRESS, ACC_FIRST_DATA+3) 
 609              		.loc 1 226 0
 610 0042 1B02     		lsl	r3, r3, #8
 611 0044 9BB2     		uxth	r3, r3
 612 0046 E318     		add	r3, r4, r3
 613 0048 9AB2     		uxth	r2, r3
 614 004a 3B1C     		mov	r3, r7
 615 004c 0C33     		add	r3, r3, #12
ARM GAS  C:\Users\Felix\AppData\Local\Temp\ccMAvig3.s 			page 16


 616 004e 1A80     		strh	r2, [r3]
 228:.\main.c      ****     //scale data and return it
 229:.\main.c      ****     accData[0] = (fix16_t) rawAccY * ACC_SCALE_FACTOR; 
 617              		.loc 1 229 0
 618 0050 3B1C     		mov	r3, r7
 619 0052 0E33     		add	r3, r3, #14
 620 0054 0021     		mov	r1, #0
 621 0056 5B5E     		ldrsh	r3, [r3, r1]
 622 0058 DA00     		lsl	r2, r3, #3
 623 005a 7B68     		ldr	r3, [r7, #4]
 624 005c 1A60     		str	r2, [r3]
 230:.\main.c      ****     accData[1] = (fix16_t) rawAccZ * ACC_SCALE_FACTOR;
 625              		.loc 1 230 0
 626 005e 7B68     		ldr	r3, [r7, #4]
 627 0060 0433     		add	r3, r3, #4
 628 0062 3A1C     		mov	r2, r7
 629 0064 0C32     		add	r2, r2, #12
 630 0066 0021     		mov	r1, #0
 631 0068 525E     		ldrsh	r2, [r2, r1]
 632 006a D200     		lsl	r2, r2, #3
 633 006c 1A60     		str	r2, [r3]
 231:.\main.c      **** }
 634              		.loc 1 231 0
 635 006e BD46     		mov	sp, r7
 636 0070 05B0     		add	sp, sp, #20
 637              		@ sp needed
 638 0072 90BD     		pop	{r4, r7, pc}
 639              		.cfi_endproc
 640              	.LFE38:
 641              		.size	readAccData, .-readAccData
 642              		.section	.text.error,"ax",%progbits
 643              		.align	2
 644              		.global	error
 645              		.code	16
 646              		.thumb_func
 647              		.type	error, %function
 648              	error:
 649              	.LFB39:
 232:.\main.c      **** 
 233:.\main.c      **** void error(char* str)
 234:.\main.c      **** {
 650              		.loc 1 234 0
 651              		.cfi_startproc
 652 0000 80B5     		push	{r7, lr}
 653              		.cfi_def_cfa_offset 8
 654              		.cfi_offset 7, -8
 655              		.cfi_offset 14, -4
 656 0002 82B0     		sub	sp, sp, #8
 657              		.cfi_def_cfa_offset 16
 658 0004 00AF     		add	r7, sp, #0
 659              		.cfi_def_cfa_register 7
 660 0006 7860     		str	r0, [r7, #4]
 235:.\main.c      ****     UART_UartPutString(str);
 661              		.loc 1 235 0
 662 0008 7B68     		ldr	r3, [r7, #4]
 663 000a 181C     		mov	r0, r3
 664 000c FFF7FEFF 		bl	UART_UartPutString
ARM GAS  C:\Users\Felix\AppData\Local\Temp\ccMAvig3.s 			page 17


 665              	.L23:
 236:.\main.c      ****     while(1);
 666              		.loc 1 236 0 discriminator 1
 667 0010 FEE7     		b	.L23
 668              		.cfi_endproc
 669              	.LFE39:
 670              		.size	error, .-error
 671 0012 C046     		.section	.rodata
 672 0029 000000   		.align	2
 673              	.LC13:
 674 002c 0D0A0A4C 		.ascii	"\015\012\012Lag Error!\015\012\012\000"
 674      61672045 
 674      72726F72 
 674      210D0A0A 
 674      00
 675 003d 000000   		.section	.text.gyroDataReadyInterrupt,"ax",%progbits
 676              		.align	2
 677              		.global	gyroDataReadyInterrupt
 678              		.code	16
 679              		.thumb_func
 680              		.type	gyroDataReadyInterrupt, %function
 681              	gyroDataReadyInterrupt:
 682              	.LFB40:
 237:.\main.c      **** }
 238:.\main.c      **** 
 239:.\main.c      **** CY_ISR(gyroDataReadyInterrupt)
 240:.\main.c      **** {
 683              		.loc 1 240 0
 684              		.cfi_startproc
 685 0000 80B5     		push	{r7, lr}
 686              		.cfi_def_cfa_offset 8
 687              		.cfi_offset 7, -8
 688              		.cfi_offset 14, -4
 689 0002 00AF     		add	r7, sp, #0
 690              		.cfi_def_cfa_register 7
 241:.\main.c      ****     //if dataReady flag has not been cleared, the system is lagging.
 242:.\main.c      ****     if(dataReady == 1) error("\r\n\nLag Error!\r\n\n");
 691              		.loc 1 242 0
 692 0004 064B     		ldr	r3, .L26
 693 0006 1B78     		ldrb	r3, [r3]
 694 0008 DBB2     		uxtb	r3, r3
 695 000a 012B     		cmp	r3, #1
 696 000c 03D1     		bne	.L25
 697              		.loc 1 242 0 is_stmt 0 discriminator 1
 698 000e 054B     		ldr	r3, .L26+4
 699 0010 181C     		mov	r0, r3
 700 0012 FFF7FEFF 		bl	error
 701              	.L25:
 243:.\main.c      ****     //else set data ready flag
 244:.\main.c      ****     dataReady = 1;
 702              		.loc 1 244 0 is_stmt 1
 703 0016 024B     		ldr	r3, .L26
 704 0018 0122     		mov	r2, #1
 705 001a 1A70     		strb	r2, [r3]
 245:.\main.c      **** }
 706              		.loc 1 245 0
 707 001c BD46     		mov	sp, r7
ARM GAS  C:\Users\Felix\AppData\Local\Temp\ccMAvig3.s 			page 18


 708              		@ sp needed
 709 001e 80BD     		pop	{r7, pc}
 710              	.L27:
 711              		.align	2
 712              	.L26:
 713 0020 00000000 		.word	dataReady
 714 0024 2C000000 		.word	.LC13
 715              		.cfi_endproc
 716              	.LFE40:
 717              		.size	gyroDataReadyInterrupt, .-gyroDataReadyInterrupt
 718              		.text
 719              	.Letext0:
 720              		.file 2 "c:\\program files (x86)\\cypress\\psoc creator\\3.1\\psoc creator\\import\\gnu_cs\\arm\\4
 721              		.file 3 "c:\\program files (x86)\\cypress\\psoc creator\\3.1\\psoc creator\\import\\gnu_cs\\arm\\4
 722              		.file 4 ".\\Generated_Source\\PSoC4/cytypes.h"
 723              		.file 5 "./fixedMath.h"