ARM GAS  C:\Users\Felix\AppData\Local\Temp\cc50rYoC.s 			page 1


   1              		.cpu cortex-m0
   2              		.fpu softvfp
   3              		.eabi_attribute 20, 1
   4              		.eabi_attribute 21, 1
   5              		.eabi_attribute 23, 3
   6              		.eabi_attribute 24, 1
   7              		.eabi_attribute 25, 1
   8              		.eabi_attribute 26, 1
   9              		.eabi_attribute 30, 6
  10              		.eabi_attribute 34, 0
  11              		.eabi_attribute 18, 4
  12              		.code	16
  13              		.file	"main.c"
  14              		.text
  15              	.Ltext0:
  16              		.cfi_sections	.debug_frame
  17              		.global	accInitArray
  18              		.section	.rodata
  19              		.align	2
  20              		.type	accInitArray, %object
  21              		.size	accInitArray, 10
  22              	accInitArray:
  23 0000 1F       		.byte	31
  24 0001 00       		.byte	0
  25 0002 20       		.byte	32
  26 0003 00       		.byte	0
  27 0004 31       		.byte	49
  28 0005 01       		.byte	1
  29 0006 2D       		.byte	45
  30 0007 12       		.byte	18
  31 0008 2D       		.byte	45
  32 0009 08       		.byte	8
  33              		.global	gyroInitArray
  34 000a 0000     		.align	2
  35              		.type	gyroInitArray, %object
  36              		.size	gyroInitArray, 8
  37              	gyroInitArray:
  38 000c 15       		.byte	21
  39 000d 03       		.byte	3
  40 000e 16       		.byte	22
  41 000f 1B       		.byte	27
  42 0010 17       		.byte	23
  43 0011 01       		.byte	1
  44 0012 3E       		.byte	62
  45 0013 03       		.byte	3
  46              		.global	dataReady
  47              		.bss
  48              		.type	dataReady, %object
  49              		.size	dataReady, 1
  50              	dataReady:
  51 0000 00       		.space	1
  52              		.global	rdy
  53              		.type	rdy, %object
  54              		.size	rdy, 1
  55              	rdy:
  56 0001 00       		.space	1
  57              		.global	accData
ARM GAS  C:\Users\Felix\AppData\Local\Temp\cc50rYoC.s 			page 2


  58 0002 0000     		.align	2
  59              		.type	accData, %object
  60              		.size	accData, 8
  61              	accData:
  62 0004 00000000 		.space	8
  62      00000000 
  63              		.global	gyroData
  64              		.align	2
  65              		.type	gyroData, %object
  66              		.size	gyroData, 4
  67              	gyroData:
  68 000c 00000000 		.space	4
  69              		.global	estAng
  70              		.align	2
  71              		.type	estAng, %object
  72              		.size	estAng, 4
  73              	estAng:
  74 0010 00000000 		.space	4
  75              		.section	.rodata
  76              		.align	2
  77              	.LC3:
  78 0014 0D0A0D0A 		.ascii	"\015\012\015\012Hello World!\015\012\015\012\000"
  78      48656C6C 
  78      6F20576F 
  78      726C6421 
  78      0D0A0D0A 
  79 0029 000000   		.align	2
  80              	.LC5:
  81 002c 0A4F4B0A 		.ascii	"\012OK\012\000"
  81      00
  82              		.section	.text.main,"ax",%progbits
  83              		.align	2
  84              		.global	main
  85              		.code	16
  86              		.thumb_func
  87              		.type	main, %function
  88              	main:
  89              	.LFB33:
  90              		.file 1 ".\\main.c"
   1:.\main.c      **** /*******************************************************************************
   2:.\main.c      **** * File Name: main.c
   3:.\main.c      **** *
   4:.\main.c      **** * Version: 1.00
   5:.\main.c      **** *
   6:.\main.c      **** * Description:
   7:.\main.c      **** *  
   8:.\main.c      **** *
   9:.\main.c      **** ********************************************************************************
  10:.\main.c      **** * 
  11:.\main.c      **** *******************************************************************************/
  12:.\main.c      **** 
  13:.\main.c      **** #include <device.h>
  14:.\main.c      **** #include <stdio.h>
  15:.\main.c      **** #include <fixedMath.h>
  16:.\main.c      **** 
  17:.\main.c      **** /* Macro definitions */
  18:.\main.c      **** #define DEBUG 1
ARM GAS  C:\Users\Felix\AppData\Local\Temp\cc50rYoC.s 			page 3


  19:.\main.c      **** 
  20:.\main.c      **** //sample rate and sample period
  21:.\main.c      **** #define FS 250
  22:.\main.c      **** #define DT (1 << 2^16)/FS //dt defined as a 16.16 fixed point number
  23:.\main.c      **** 
  24:.\main.c      **** /* The scale factor of the ITG3200 gyroscope is 14.375 Lsb per  *
  25:.\main.c      ****  * deg/s, converted to 16.16 fixed point. (2^16/14.375)         */
  26:.\main.c      **** #define GYRO_SCALE_FACTOR 4559
  27:.\main.c      **** /* The accelerometer scale factor of the ADXL345 in +- 4g range *
  28:.\main.c      ****  * is 128Lsb per g, converted to 16.16 fixed point. (2^16/2^7)  */
  29:.\main.c      **** #define ACC_SCALE_FACTOR 512
  30:.\main.c      **** 
  31:.\main.c      **** // 180 and 360 in 16.16 fixed point
  32:.\main.c      **** #define DEG_180 (180 << 16)
  33:.\main.c      **** #define DEG_360 (360 << 16)
  34:.\main.c      **** 
  35:.\main.c      **** #define GYRO_WEIGHT 62259 //0.95 * 2^16
  36:.\main.c      **** #define ACC_WEIGHT 0x100 - GYRO_WEIGHT // (1 - gyro_weight) * 2^16
  37:.\main.c      **** 
  38:.\main.c      **** //I2C defines
  39:.\main.c      **** #define GYRO_ADDRESS 0x68 //7 bit right justified
  40:.\main.c      **** #define ACC_ADDRESS 0x53 //7 bit right justified
  41:.\main.c      **** 
  42:.\main.c      **** #define ACC_INIT_LEN 5
  43:.\main.c      **** #define GYRO_INIT_LEN 4
  44:.\main.c      **** 
  45:.\main.c      **** #define ACC_Y_OFFSET 0
  46:.\main.c      **** #define ACC_Z_OFFSET 0
  47:.\main.c      **** 
  48:.\main.c      **** #define GYRO_FIRST_DATA 0x1D //this is X_H which will be followed by X_L
  49:.\main.c      **** #define ACC_FIRST_DATA 0x34 //first in seq. Y_L, Y_H, Z_L, Z_H
  50:.\main.c      **** 
  51:.\main.c      **** #define SAMPLE_SIZE 190
  52:.\main.c      **** 
  53:.\main.c      **** /* Global constants */
  54:.\main.c      **** const uint8_t accInitArray[ACC_INIT_LEN][2] = {
  55:.\main.c      ****     {0x1F, ACC_Y_OFFSET}, // calibration of y axis
  56:.\main.c      ****     {0x20, ACC_Z_OFFSET}, // calibration of z axis
  57:.\main.c      ****     {0x31, 0x01},         // set to +-4g range
  58:.\main.c      ****     {0x2D, 0x12},         // activate meassurements
  59:.\main.c      ****     {0x2D, 0x08},         // activate meassurements
  60:.\main.c      **** };
  61:.\main.c      **** 
  62:.\main.c      **** const uint8_t gyroInitArray[GYRO_INIT_LEN][2] = {
  63:.\main.c      ****     {0x15, 0x03},         /* set the sample rate to 250Hz (1kHz/3+1) */
  64:.\main.c      ****     {0x16, 0x1B},         /* set full range mode and 42Hz cutoff for *
  65:.\main.c      ****                            * internal filter                         */
  66:.\main.c      ****     {0x17, 0x01},         /* configure device to send data rdy int   */
  67:.\main.c      ****     {0x3E, 0x03}         //00 for debug normal 0x19 /* put y and z gyro in standby and select  *
  68:.\main.c      ****                            /* x gyro for clock                        */       
  69:.\main.c      **** };
  70:.\main.c      **** 
  71:.\main.c      **** /* Global variables */
  72:.\main.c      **** volatile uint8 dataReady = 0, rdy = 0;
  73:.\main.c      **** volatile fix16_t accData[2] = {0, 0}, gyroData = 0;
  74:.\main.c      **** fix16_t estAng = 0;
  75:.\main.c      **** //volatile fix16_t data[3][SAMPLE_SIZE];
ARM GAS  C:\Users\Felix\AppData\Local\Temp\cc50rYoC.s 			page 4


  76:.\main.c      **** //volatile uint16 count = 0;
  77:.\main.c      **** 
  78:.\main.c      **** /* Function prototypes */
  79:.\main.c      **** void setupI2CDevice(uint8_t addr, const uint8_t initArray[][2] , uint8_t arrayLen);    
  80:.\main.c      **** uint8_t readI2CReg(uint8_t addr, uint8_t reg);
  81:.\main.c      **** void writeI2CReg(uint8_t addr, uint8_t reg, uint8_t val);
  82:.\main.c      **** CY_ISR_PROTO(gyroDataReadyInterrupt);
  83:.\main.c      **** 
  84:.\main.c      **** 
  85:.\main.c      **** /* Function implementations */
  86:.\main.c      **** int main()
  87:.\main.c      **** {
  91              		.loc 1 87 0
  92              		.cfi_startproc
  93 0000 80B5     		push	{r7, lr}
  94              		.cfi_def_cfa_offset 8
  95              		.cfi_offset 7, -8
  96              		.cfi_offset 14, -4
  97 0002 82B0     		sub	sp, sp, #8
  98              		.cfi_def_cfa_offset 16
  99 0004 00AF     		add	r7, sp, #0
 100              		.cfi_def_cfa_register 7
  88:.\main.c      ****     /* Start the Components */
  89:.\main.c      ****     UART_Start();
 101              		.loc 1 89 0
 102 0006 FFF7FEFF 		bl	UART_Start
  90:.\main.c      ****     I2C_Start();
 103              		.loc 1 90 0
 104 000a FFF7FEFF 		bl	I2C_Start
  91:.\main.c      ****    
  92:.\main.c      ****     
  93:.\main.c      ****     /* Setup the accelerometer and gyro */
  94:.\main.c      ****     setupI2CDevice(GYRO_ADDRESS, gyroInitArray, GYRO_INIT_LEN);
 105              		.loc 1 94 0
 106 000e 134B     		ldr	r3, .L4
 107 0010 6820     		mov	r0, #104
 108 0012 191C     		mov	r1, r3
 109 0014 0422     		mov	r2, #4
 110 0016 FFF7FEFF 		bl	setupI2CDevice
  95:.\main.c      ****     setupI2CDevice(ACC_ADDRESS, accInitArray, ACC_INIT_LEN);
 111              		.loc 1 95 0
 112 001a 114B     		ldr	r3, .L4+4
 113 001c 5320     		mov	r0, #83
 114 001e 191C     		mov	r1, r3
 115 0020 0522     		mov	r2, #5
 116 0022 FFF7FEFF 		bl	setupI2CDevice
  96:.\main.c      ****         
  97:.\main.c      ****     /* Enable global interrupts */
  98:.\main.c      ****     GYRO_DR_INT_StartEx(&gyroDataReadyInterrupt);
 117              		.loc 1 98 0
 118 0026 0F4B     		ldr	r3, .L4+8
 119 0028 181C     		mov	r0, r3
 120 002a FFF7FEFF 		bl	GYRO_DR_INT_StartEx
  99:.\main.c      ****     CyGlobalIntEnable;
 121              		.loc 1 99 0
 122              	@ 99 ".\main.c" 1
 123 002e 62B6     		CPSIE   i
ARM GAS  C:\Users\Felix\AppData\Local\Temp\cc50rYoC.s 			page 5


 124              	@ 0 "" 2
 100:.\main.c      ****     
 101:.\main.c      ****     /*print opening msg*/
 102:.\main.c      ****     UART_UartPutString("\r\n\r\nHello World!\r\n\r\n");
 125              		.loc 1 102 0
 126              		.code	16
 127 0030 0D4B     		ldr	r3, .L4+12
 128 0032 181C     		mov	r0, r3
 129 0034 FFF7FEFF 		bl	UART_UartPutString
 103:.\main.c      ****    
 104:.\main.c      ****     unsigned char c;
 105:.\main.c      ****     while ((c = UART_UartGetChar()) != '1');
 130              		.loc 1 105 0
 131 0038 C046     		mov	r8, r8
 132              	.L2:
 133              		.loc 1 105 0 is_stmt 0 discriminator 1
 134 003a FFF7FEFF 		bl	UART_UartGetChar
 135 003e 021C     		mov	r2, r0
 136 0040 FB1D     		add	r3, r7, #7
 137 0042 1A70     		strb	r2, [r3]
 138 0044 FB1D     		add	r3, r7, #7
 139 0046 1B78     		ldrb	r3, [r3]
 140 0048 312B     		cmp	r3, #49
 141 004a F6D1     		bne	.L2
 106:.\main.c      ****     UART_UartPutString("\nOK\n");
 142              		.loc 1 106 0 is_stmt 1
 143 004c 074B     		ldr	r3, .L4+16
 144 004e 181C     		mov	r0, r3
 145 0050 FFF7FEFF 		bl	UART_UartPutString
 107:.\main.c      **** 
 108:.\main.c      ****     rdy = 1;
 146              		.loc 1 108 0
 147 0054 064B     		ldr	r3, .L4+20
 148 0056 0122     		mov	r2, #1
 149 0058 1A70     		strb	r2, [r3]
 150              	.L3:
 109:.\main.c      ****    
 110:.\main.c      **** //    while(count < SAMPLE_SIZE);
 111:.\main.c      **** //    CyGlobalIntDisable;
 112:.\main.c      **** //    UART_UartPutString("\r\ndata = [");
 113:.\main.c      **** //    char result[15];
 114:.\main.c      **** //    
 115:.\main.c      **** //    int i, x, y, z;
 116:.\main.c      **** //    for(i = 0; i < SAMPLE_SIZE-1; i++)
 117:.\main.c      **** //    {
 118:.\main.c      **** //        x = (int)data[0][i];
 119:.\main.c      **** //        y = (int)data[1][i];
 120:.\main.c      **** //        z = (int)data[2][i];
 121:.\main.c      **** //        sprintf(result, "%d, %d, %d;", x, y, z);
 122:.\main.c      **** //        UART_UartPutString(result);
 123:.\main.c      **** //    }
 124:.\main.c      **** //    sprintf(result, "%d, %d, %d];", (int) data[0][SAMPLE_SIZE-1], (int)data[1][SAMPLE_SIZE-1], (i
 125:.\main.c      **** //    UART_UartPutString(result);
 126:.\main.c      ****     
 127:.\main.c      ****     while(1);
 151              		.loc 1 127 0 discriminator 1
 152 005a FEE7     		b	.L3
ARM GAS  C:\Users\Felix\AppData\Local\Temp\cc50rYoC.s 			page 6


 153              	.L5:
 154              		.align	2
 155              	.L4:
 156 005c 00000000 		.word	gyroInitArray
 157 0060 00000000 		.word	accInitArray
 158 0064 00000000 		.word	gyroDataReadyInterrupt
 159 0068 14000000 		.word	.LC3
 160 006c 2C000000 		.word	.LC5
 161 0070 00000000 		.word	rdy
 162              		.cfi_endproc
 163              	.LFE33:
 164              		.size	main, .-main
 165              		.section	.text.setupI2CDevice,"ax",%progbits
 166              		.align	2
 167              		.global	setupI2CDevice
 168              		.code	16
 169              		.thumb_func
 170              		.type	setupI2CDevice, %function
 171              	setupI2CDevice:
 172              	.LFB34:
 128:.\main.c      **** }
 129:.\main.c      **** 
 130:.\main.c      **** void setupI2CDevice(uint8_t addr, const uint8_t initArray[][2] , uint8_t arrayLen){
 173              		.loc 1 130 0
 174              		.cfi_startproc
 175 0000 80B5     		push	{r7, lr}
 176              		.cfi_def_cfa_offset 8
 177              		.cfi_offset 7, -8
 178              		.cfi_offset 14, -4
 179 0002 84B0     		sub	sp, sp, #16
 180              		.cfi_def_cfa_offset 24
 181 0004 00AF     		add	r7, sp, #0
 182              		.cfi_def_cfa_register 7
 183 0006 3960     		str	r1, [r7]
 184 0008 FB1D     		add	r3, r7, #7
 185 000a 011C     		add	r1, r0, #0
 186 000c 1970     		strb	r1, [r3]
 187 000e BB1D     		add	r3, r7, #6
 188 0010 1A70     		strb	r2, [r3]
 131:.\main.c      ****     int i;
 132:.\main.c      ****     for(i = 0; i < arrayLen; i++){
 189              		.loc 1 132 0
 190 0012 0023     		mov	r3, #0
 191 0014 FB60     		str	r3, [r7, #12]
 192 0016 13E0     		b	.L7
 193              	.L8:
 133:.\main.c      ****         writeI2CReg(addr, initArray[i][0], initArray[i][1]);
 194              		.loc 1 133 0 discriminator 2
 195 0018 FB68     		ldr	r3, [r7, #12]
 196 001a 5B00     		lsl	r3, r3, #1
 197 001c 3A68     		ldr	r2, [r7]
 198 001e D318     		add	r3, r2, r3
 199 0020 1A78     		ldrb	r2, [r3]
 200 0022 FB68     		ldr	r3, [r7, #12]
 201 0024 5B00     		lsl	r3, r3, #1
 202 0026 3968     		ldr	r1, [r7]
 203 0028 CB18     		add	r3, r1, r3
ARM GAS  C:\Users\Felix\AppData\Local\Temp\cc50rYoC.s 			page 7


 204 002a 5B78     		ldrb	r3, [r3, #1]
 205 002c F91D     		add	r1, r7, #7
 206 002e 0978     		ldrb	r1, [r1]
 207 0030 081C     		mov	r0, r1
 208 0032 111C     		mov	r1, r2
 209 0034 1A1C     		mov	r2, r3
 210 0036 FFF7FEFF 		bl	writeI2CReg
 132:.\main.c      ****     for(i = 0; i < arrayLen; i++){
 211              		.loc 1 132 0 discriminator 2
 212 003a FB68     		ldr	r3, [r7, #12]
 213 003c 0133     		add	r3, r3, #1
 214 003e FB60     		str	r3, [r7, #12]
 215              	.L7:
 132:.\main.c      ****     for(i = 0; i < arrayLen; i++){
 216              		.loc 1 132 0 is_stmt 0 discriminator 1
 217 0040 BB1D     		add	r3, r7, #6
 218 0042 1A78     		ldrb	r2, [r3]
 219 0044 FB68     		ldr	r3, [r7, #12]
 220 0046 9A42     		cmp	r2, r3
 221 0048 E6DC     		bgt	.L8
 134:.\main.c      ****     }
 135:.\main.c      **** }
 222              		.loc 1 135 0 is_stmt 1
 223 004a BD46     		mov	sp, r7
 224 004c 04B0     		add	sp, sp, #16
 225              		@ sp needed
 226 004e 80BD     		pop	{r7, pc}
 227              		.cfi_endproc
 228              	.LFE34:
 229              		.size	setupI2CDevice, .-setupI2CDevice
 230              		.section	.text.readI2CReg,"ax",%progbits
 231              		.align	2
 232              		.global	readI2CReg
 233              		.code	16
 234              		.thumb_func
 235              		.type	readI2CReg, %function
 236              	readI2CReg:
 237              	.LFB35:
 136:.\main.c      ****     
 137:.\main.c      **** uint8_t readI2CReg(uint8_t addr, uint8_t reg)
 138:.\main.c      **** {
 238              		.loc 1 138 0
 239              		.cfi_startproc
 240 0000 80B5     		push	{r7, lr}
 241              		.cfi_def_cfa_offset 8
 242              		.cfi_offset 7, -8
 243              		.cfi_offset 14, -4
 244 0002 84B0     		sub	sp, sp, #16
 245              		.cfi_def_cfa_offset 24
 246 0004 00AF     		add	r7, sp, #0
 247              		.cfi_def_cfa_register 7
 248 0006 0A1C     		mov	r2, r1
 249 0008 FB1D     		add	r3, r7, #7
 250 000a 011C     		add	r1, r0, #0
 251 000c 1970     		strb	r1, [r3]
 252 000e BB1D     		add	r3, r7, #6
 253 0010 1A70     		strb	r2, [r3]
ARM GAS  C:\Users\Felix\AppData\Local\Temp\cc50rYoC.s 			page 8


 139:.\main.c      ****     I2C_I2CMasterSendStart(addr, 0);
 254              		.loc 1 139 0
 255 0012 FB1D     		add	r3, r7, #7
 256 0014 1B78     		ldrb	r3, [r3]
 257 0016 181C     		mov	r0, r3
 258 0018 0021     		mov	r1, #0
 259 001a FFF7FEFF 		bl	I2C_I2CMasterSendStart
 140:.\main.c      ****     I2C_I2CMasterWriteByte(reg);
 260              		.loc 1 140 0
 261 001e BB1D     		add	r3, r7, #6
 262 0020 1B78     		ldrb	r3, [r3]
 263 0022 181C     		mov	r0, r3
 264 0024 FFF7FEFF 		bl	I2C_I2CMasterWriteByte
 141:.\main.c      ****     I2C_I2CMasterSendRestart(addr, 1);
 265              		.loc 1 141 0
 266 0028 FB1D     		add	r3, r7, #7
 267 002a 1B78     		ldrb	r3, [r3]
 268 002c 181C     		mov	r0, r3
 269 002e 0121     		mov	r1, #1
 270 0030 FFF7FEFF 		bl	I2C_I2CMasterSendRestart
 142:.\main.c      ****     uint8_t result = I2C_I2CMasterReadByte(I2C_I2C_NAK_DATA);
 271              		.loc 1 142 0
 272 0034 0120     		mov	r0, #1
 273 0036 FFF7FEFF 		bl	I2C_I2CMasterReadByte
 274 003a 021C     		mov	r2, r0
 275 003c 3B1C     		mov	r3, r7
 276 003e 0F33     		add	r3, r3, #15
 277 0040 1A70     		strb	r2, [r3]
 143:.\main.c      ****     I2C_I2CMasterSendStop();
 278              		.loc 1 143 0
 279 0042 FFF7FEFF 		bl	I2C_I2CMasterSendStop
 144:.\main.c      ****     return result;
 280              		.loc 1 144 0
 281 0046 3B1C     		mov	r3, r7
 282 0048 0F33     		add	r3, r3, #15
 283 004a 1B78     		ldrb	r3, [r3]
 145:.\main.c      **** }
 284              		.loc 1 145 0
 285 004c 181C     		mov	r0, r3
 286 004e BD46     		mov	sp, r7
 287 0050 04B0     		add	sp, sp, #16
 288              		@ sp needed
 289 0052 80BD     		pop	{r7, pc}
 290              		.cfi_endproc
 291              	.LFE35:
 292              		.size	readI2CReg, .-readI2CReg
 293              		.section	.text.writeI2CReg,"ax",%progbits
 294              		.align	2
 295              		.global	writeI2CReg
 296              		.code	16
 297              		.thumb_func
 298              		.type	writeI2CReg, %function
 299              	writeI2CReg:
 300              	.LFB36:
 146:.\main.c      **** 
 147:.\main.c      **** void writeI2CReg(uint8_t addr, uint8_t reg, uint8_t val){
 301              		.loc 1 147 0
ARM GAS  C:\Users\Felix\AppData\Local\Temp\cc50rYoC.s 			page 9


 302              		.cfi_startproc
 303 0000 80B5     		push	{r7, lr}
 304              		.cfi_def_cfa_offset 8
 305              		.cfi_offset 7, -8
 306              		.cfi_offset 14, -4
 307 0002 82B0     		sub	sp, sp, #8
 308              		.cfi_def_cfa_offset 16
 309 0004 00AF     		add	r7, sp, #0
 310              		.cfi_def_cfa_register 7
 311 0006 FB1D     		add	r3, r7, #7
 312 0008 1870     		strb	r0, [r3]
 313 000a BB1D     		add	r3, r7, #6
 314 000c 1970     		strb	r1, [r3]
 315 000e 7B1D     		add	r3, r7, #5
 316 0010 1A70     		strb	r2, [r3]
 148:.\main.c      ****     I2C_I2CMasterSendStart(addr, 0);
 317              		.loc 1 148 0
 318 0012 FB1D     		add	r3, r7, #7
 319 0014 1B78     		ldrb	r3, [r3]
 320 0016 181C     		mov	r0, r3
 321 0018 0021     		mov	r1, #0
 322 001a FFF7FEFF 		bl	I2C_I2CMasterSendStart
 149:.\main.c      ****     I2C_I2CMasterWriteByte(reg);
 323              		.loc 1 149 0
 324 001e BB1D     		add	r3, r7, #6
 325 0020 1B78     		ldrb	r3, [r3]
 326 0022 181C     		mov	r0, r3
 327 0024 FFF7FEFF 		bl	I2C_I2CMasterWriteByte
 150:.\main.c      ****     I2C_I2CMasterWriteByte(val);
 328              		.loc 1 150 0
 329 0028 7B1D     		add	r3, r7, #5
 330 002a 1B78     		ldrb	r3, [r3]
 331 002c 181C     		mov	r0, r3
 332 002e FFF7FEFF 		bl	I2C_I2CMasterWriteByte
 151:.\main.c      ****     I2C_I2CMasterSendStop();
 333              		.loc 1 151 0
 334 0032 FFF7FEFF 		bl	I2C_I2CMasterSendStop
 152:.\main.c      **** }
 335              		.loc 1 152 0
 336 0036 BD46     		mov	sp, r7
 337 0038 02B0     		add	sp, sp, #8
 338              		@ sp needed
 339 003a 80BD     		pop	{r7, pc}
 340              		.cfi_endproc
 341              	.LFE36:
 342              		.size	writeI2CReg, .-writeI2CReg
 343              		.section	.rodata
 344 0031 000000   		.align	2
 345              	.LC12:
 346 0034 25642C20 		.ascii	"%d, \000"
 346      00
 347 0039 000000   		.section	.text.gyroDataReadyInterrupt,"ax",%progbits
 348              		.align	2
 349              		.global	gyroDataReadyInterrupt
 350              		.code	16
 351              		.thumb_func
 352              		.type	gyroDataReadyInterrupt, %function
ARM GAS  C:\Users\Felix\AppData\Local\Temp\cc50rYoC.s 			page 10


 353              	gyroDataReadyInterrupt:
 354              	.LFB37:
 153:.\main.c      **** 
 154:.\main.c      **** CY_ISR(gyroDataReadyInterrupt)
 155:.\main.c      **** {
 355              		.loc 1 155 0
 356              		.cfi_startproc
 357 0000 90B5     		push	{r4, r7, lr}
 358              		.cfi_def_cfa_offset 12
 359              		.cfi_offset 4, -12
 360              		.cfi_offset 7, -8
 361              		.cfi_offset 14, -4
 362 0002 89B0     		sub	sp, sp, #36
 363              		.cfi_def_cfa_offset 48
 364 0004 00AF     		add	r7, sp, #0
 365              		.cfi_def_cfa_register 7
 156:.\main.c      ****     if(!rdy) return;
 366              		.loc 1 156 0
 367 0006 644B     		ldr	r3, .L18
 368 0008 1B78     		ldrb	r3, [r3]
 369 000a DBB2     		uxtb	r3, r3
 370 000c 002B     		cmp	r3, #0
 371 000e 00D1     		bne	.LCB234
 372 0010 BEE0     		b	.L12	@long jump
 373              	.LCB234:
 157:.\main.c      ****     CyPins_SetPin(Pin_1_0);
 374              		.loc 1 157 0
 375 0012 624B     		ldr	r3, .L18+4
 376 0014 614A     		ldr	r2, .L18+4
 377 0016 1268     		ldr	r2, [r2]
 378 0018 0821     		mov	r1, #8
 379 001a 0A43     		orr	r2, r1
 380 001c 1A60     		str	r2, [r3]
 158:.\main.c      ****     //read raw data from gyro
 159:.\main.c      ****     int16_t rawGyroX = readI2CReg(GYRO_ADDRESS, 0x1E) + ((int16_t) readI2CReg(GYRO_ADDRESS, 0x1D) <
 381              		.loc 1 159 0
 382 001e 6820     		mov	r0, #104
 383 0020 1E21     		mov	r1, #30
 384 0022 FFF7FEFF 		bl	readI2CReg
 385 0026 031C     		mov	r3, r0
 386 0028 1C1C     		mov	r4, r3
 387 002a 6820     		mov	r0, #104
 388 002c 1D21     		mov	r1, #29
 389 002e FFF7FEFF 		bl	readI2CReg
 390 0032 031C     		mov	r3, r0
 391 0034 1B02     		lsl	r3, r3, #8
 392 0036 9BB2     		uxth	r3, r3
 393 0038 E318     		add	r3, r4, r3
 394 003a 9AB2     		uxth	r2, r3
 395 003c 3B1C     		mov	r3, r7
 396 003e 1E33     		add	r3, r3, #30
 397 0040 1A80     		strh	r2, [r3]
 160:.\main.c      ****     
 161:.\main.c      ****     // gyro data is scaled to 16.16 fixed point by using the GYRO_SCALE_FACTOR.
 162:.\main.c      ****     gyroData = rawGyroX * GYRO_SCALE_FACTOR;
 398              		.loc 1 162 0
 399 0042 3B1C     		mov	r3, r7
ARM GAS  C:\Users\Felix\AppData\Local\Temp\cc50rYoC.s 			page 11


 400 0044 1E33     		add	r3, r3, #30
 401 0046 0021     		mov	r1, #0
 402 0048 5B5E     		ldrsh	r3, [r3, r1]
 403 004a 554A     		ldr	r2, .L18+8
 404 004c 5A43     		mul	r2, r3
 405 004e 554B     		ldr	r3, .L18+12
 406 0050 1A60     		str	r2, [r3]
 163:.\main.c      ****     
 164:.\main.c      ****     //read the raw data from the accellerometer
 165:.\main.c      ****     int16 rawAccY = readI2CReg(ACC_ADDRESS, ACC_FIRST_DATA) + ((int16_t) readI2CReg(ACC_ADDRESS, AC
 407              		.loc 1 165 0
 408 0052 5320     		mov	r0, #83
 409 0054 3421     		mov	r1, #52
 410 0056 FFF7FEFF 		bl	readI2CReg
 411 005a 031C     		mov	r3, r0
 412 005c 1C1C     		mov	r4, r3
 413 005e 5320     		mov	r0, #83
 414 0060 3521     		mov	r1, #53
 415 0062 FFF7FEFF 		bl	readI2CReg
 416 0066 031C     		mov	r3, r0
 417 0068 1B02     		lsl	r3, r3, #8
 418 006a 9BB2     		uxth	r3, r3
 419 006c E318     		add	r3, r4, r3
 420 006e 9AB2     		uxth	r2, r3
 421 0070 3B1C     		mov	r3, r7
 422 0072 1C33     		add	r3, r3, #28
 423 0074 1A80     		strh	r2, [r3]
 166:.\main.c      ****     int16 rawAccZ = readI2CReg(ACC_ADDRESS, ACC_FIRST_DATA+2) + ((int16_t) readI2CReg(ACC_ADDRESS, 
 424              		.loc 1 166 0
 425 0076 5320     		mov	r0, #83
 426 0078 3621     		mov	r1, #54
 427 007a FFF7FEFF 		bl	readI2CReg
 428 007e 031C     		mov	r3, r0
 429 0080 1C1C     		mov	r4, r3
 430 0082 5320     		mov	r0, #83
 431 0084 3721     		mov	r1, #55
 432 0086 FFF7FEFF 		bl	readI2CReg
 433 008a 031C     		mov	r3, r0
 434 008c 1B02     		lsl	r3, r3, #8
 435 008e 9BB2     		uxth	r3, r3
 436 0090 E318     		add	r3, r4, r3
 437 0092 9AB2     		uxth	r2, r3
 438 0094 3B1C     		mov	r3, r7
 439 0096 1A33     		add	r3, r3, #26
 440 0098 1A80     		strh	r2, [r3]
 167:.\main.c      ****     
 168:.\main.c      ****     // acc data is scaled to 16.16 fixed point by using the ACC_SCALE_FACTOR.                      
 169:.\main.c      ****     accData[0] = ((fix16_t) rawAccY) * ACC_SCALE_FACTOR; 
 441              		.loc 1 169 0
 442 009a 3B1C     		mov	r3, r7
 443 009c 1C33     		add	r3, r3, #28
 444 009e 0022     		mov	r2, #0
 445 00a0 9B5E     		ldrsh	r3, [r3, r2]
 446 00a2 5A02     		lsl	r2, r3, #9
 447 00a4 404B     		ldr	r3, .L18+16
 448 00a6 1A60     		str	r2, [r3]
 170:.\main.c      ****     accData[1] = ((fix16_t) rawAccZ) * ACC_SCALE_FACTOR;
ARM GAS  C:\Users\Felix\AppData\Local\Temp\cc50rYoC.s 			page 12


 449              		.loc 1 170 0
 450 00a8 3B1C     		mov	r3, r7
 451 00aa 1A33     		add	r3, r3, #26
 452 00ac 0021     		mov	r1, #0
 453 00ae 5B5E     		ldrsh	r3, [r3, r1]
 454 00b0 5A02     		lsl	r2, r3, #9
 455 00b2 3D4B     		ldr	r3, .L18+16
 456 00b4 5A60     		str	r2, [r3, #4]
 171:.\main.c      ****     
 172:.\main.c      ****     // Integrate gyro data over last sample period, and check for angle wraparound                 
 173:.\main.c      ****     estAng += fix16mul(gyroData, DT);
 457              		.loc 1 173 0
 458 00b6 3B4B     		ldr	r3, .L18+12
 459 00b8 1B68     		ldr	r3, [r3]
 460 00ba 181C     		mov	r0, r3
 461 00bc 0021     		mov	r1, #0
 462 00be FFF7FEFF 		bl	fix16mul
 463 00c2 021C     		mov	r2, r0
 464 00c4 394B     		ldr	r3, .L18+20
 465 00c6 1B68     		ldr	r3, [r3]
 466 00c8 D218     		add	r2, r2, r3
 467 00ca 384B     		ldr	r3, .L18+20
 468 00cc 1A60     		str	r2, [r3]
 174:.\main.c      ****     if(estAng < -DEG_180) estAng += DEG_360; 
 469              		.loc 1 174 0
 470 00ce 374B     		ldr	r3, .L18+20
 471 00d0 1A68     		ldr	r2, [r3]
 472 00d2 374B     		ldr	r3, .L18+24
 473 00d4 9A42     		cmp	r2, r3
 474 00d6 06DA     		bge	.L15
 475              		.loc 1 174 0 is_stmt 0 discriminator 1
 476 00d8 344B     		ldr	r3, .L18+20
 477 00da 1B68     		ldr	r3, [r3]
 478 00dc B421     		mov	r1, #180
 479 00de 4904     		lsl	r1, r1, #17
 480 00e0 5A18     		add	r2, r3, r1
 481 00e2 324B     		ldr	r3, .L18+20
 482 00e4 1A60     		str	r2, [r3]
 483              	.L15:
 175:.\main.c      ****     if(estAng > DEG_180) estAng -= DEG_360; 
 484              		.loc 1 175 0 is_stmt 1
 485 00e6 314B     		ldr	r3, .L18+20
 486 00e8 1A68     		ldr	r2, [r3]
 487 00ea B423     		mov	r3, #180
 488 00ec 1B04     		lsl	r3, r3, #16
 489 00ee 9A42     		cmp	r2, r3
 490 00f0 05DD     		ble	.L16
 491              		.loc 1 175 0 is_stmt 0 discriminator 1
 492 00f2 2E4B     		ldr	r3, .L18+20
 493 00f4 1B68     		ldr	r3, [r3]
 494 00f6 2F49     		ldr	r1, .L18+28
 495 00f8 5A18     		add	r2, r3, r1
 496 00fa 2C4B     		ldr	r3, .L18+20
 497 00fc 1A60     		str	r2, [r3]
 498              	.L16:
 176:.\main.c      ****         
 177:.\main.c      ****     /* Correct angle estimate using accelerometer data if it is estimated valid. *
ARM GAS  C:\Users\Felix\AppData\Local\Temp\cc50rYoC.s 			page 13


 178:.\main.c      ****      * The acc input can be used if the accelleration vector has a length close  *
 179:.\main.c      ****      * to 1g (no force other than gravity), which is estimated by the sum of the *
 180:.\main.c      ****      * components for computational efficiency.                                  */
 181:.\main.c      ****     fix16_t forceMagEst = fix16abs(accData[0]) + fix16abs(accData[1]);
 499              		.loc 1 181 0 is_stmt 1
 500 00fe 2A4B     		ldr	r3, .L18+16
 501 0100 1B68     		ldr	r3, [r3]
 502 0102 181C     		mov	r0, r3
 503 0104 FFF7FEFF 		bl	fix16abs
 504 0108 041C     		mov	r4, r0
 505 010a 274B     		ldr	r3, .L18+16
 506 010c 5B68     		ldr	r3, [r3, #4]
 507 010e 181C     		mov	r0, r3
 508 0110 FFF7FEFF 		bl	fix16abs
 509 0114 031C     		mov	r3, r0
 510 0116 E318     		add	r3, r4, r3
 511 0118 7B61     		str	r3, [r7, #20]
 182:.\main.c      ****     // Use if forcemag is between 0.5*(2^16) and 2*(2^16)
 183:.\main.c      ****     if(1<<15 < forceMagEst && forceMagEst < 1<<17) 
 512              		.loc 1 183 0
 513 011a 7A69     		ldr	r2, [r7, #20]
 514 011c 8023     		mov	r3, #128
 515 011e 1B02     		lsl	r3, r3, #8
 516 0120 9A42     		cmp	r2, r3
 517 0122 21DD     		ble	.L17
 518              		.loc 1 183 0 is_stmt 0 discriminator 1
 519 0124 7A69     		ldr	r2, [r7, #20]
 520 0126 244B     		ldr	r3, .L18+32
 521 0128 9A42     		cmp	r2, r3
 522 012a 1DDC     		bgt	.L17
 184:.\main.c      ****     {
 185:.\main.c      ****         //take part of gyro estimate and add complementary part of acc estimate
 186:.\main.c      ****         estAng = fix16mul(GYRO_WEIGHT, estAng) 
 523              		.loc 1 186 0 is_stmt 1
 524 012c 1F4B     		ldr	r3, .L18+20
 525 012e 1B68     		ldr	r3, [r3]
 526 0130 224A     		ldr	r2, .L18+36
 527 0132 101C     		mov	r0, r2
 528 0134 191C     		mov	r1, r3
 529 0136 FFF7FEFF 		bl	fix16mul
 530 013a 041C     		mov	r4, r0
 187:.\main.c      ****                  + fix16mul(ACC_WEIGHT, fix16rad2deg(fix16atan2(accData[0], accData[1])));
 531              		.loc 1 187 0
 532 013c 1A4B     		ldr	r3, .L18+16
 533 013e 1A68     		ldr	r2, [r3]
 534 0140 194B     		ldr	r3, .L18+16
 535 0142 5B68     		ldr	r3, [r3, #4]
 536 0144 101C     		mov	r0, r2
 537 0146 191C     		mov	r1, r3
 538 0148 FFF7FEFF 		bl	fix16atan2
 539 014c 031C     		mov	r3, r0
 540 014e 181C     		mov	r0, r3
 541 0150 FFF7FEFF 		bl	fix16rad2deg
 542 0154 031C     		mov	r3, r0
 543 0156 1A4A     		ldr	r2, .L18+40
 544 0158 101C     		mov	r0, r2
 545 015a 191C     		mov	r1, r3
ARM GAS  C:\Users\Felix\AppData\Local\Temp\cc50rYoC.s 			page 14


 546 015c FFF7FEFF 		bl	fix16mul
 547 0160 031C     		mov	r3, r0
 548 0162 E218     		add	r2, r4, r3
 186:.\main.c      ****         estAng = fix16mul(GYRO_WEIGHT, estAng) 
 549              		.loc 1 186 0
 550 0164 114B     		ldr	r3, .L18+20
 551 0166 1A60     		str	r2, [r3]
 552              	.L17:
 188:.\main.c      ****     }    
 189:.\main.c      ****         
 190:.\main.c      ****         
 191:.\main.c      ****     //print result
 192:.\main.c      ****     
 193:.\main.c      ****     char result[15];
 194:.\main.c      ****     sprintf(result, "%d, ", estAng >> 16);
 553              		.loc 1 194 0
 554 0168 104B     		ldr	r3, .L18+20
 555 016a 1B68     		ldr	r3, [r3]
 556 016c 1B14     		asr	r3, r3, #16
 557 016e 391D     		add	r1, r7, #4
 558 0170 144A     		ldr	r2, .L18+44
 559 0172 081C     		mov	r0, r1
 560 0174 111C     		mov	r1, r2
 561 0176 1A1C     		mov	r2, r3
 562 0178 FFF7FEFF 		bl	sprintf
 195:.\main.c      ****     UART_UartPutString(result);
 563              		.loc 1 195 0
 564 017c 3B1D     		add	r3, r7, #4
 565 017e 181C     		mov	r0, r3
 566 0180 FFF7FEFF 		bl	UART_UartPutString
 196:.\main.c      **** //    if(count < SAMPLE_SIZE){
 197:.\main.c      **** //        data[0][count] = accData[0];
 198:.\main.c      **** //        data[1][count] = accData[1];
 199:.\main.c      **** //        data[2][count] = gyroData;
 200:.\main.c      **** //        count++;
 201:.\main.c      **** //    }
 202:.\main.c      ****     CyPins_ClearPin(Pin_1_0);
 567              		.loc 1 202 0
 568 0184 054B     		ldr	r3, .L18+4
 569 0186 054A     		ldr	r2, .L18+4
 570 0188 1268     		ldr	r2, [r2]
 571 018a 0821     		mov	r1, #8
 572 018c 8A43     		bic	r2, r1
 573 018e 1A60     		str	r2, [r3]
 574              	.L12:
 203:.\main.c      **** }
 575              		.loc 1 203 0
 576 0190 BD46     		mov	sp, r7
 577 0192 09B0     		add	sp, sp, #36
 578              		@ sp needed
 579 0194 90BD     		pop	{r4, r7, pc}
 580              	.L19:
 581 0196 C046     		.align	2
 582              	.L18:
 583 0198 00000000 		.word	rdy
 584 019c 00010440 		.word	1074004224
 585 01a0 CF110000 		.word	4559
ARM GAS  C:\Users\Felix\AppData\Local\Temp\cc50rYoC.s 			page 15


 586 01a4 00000000 		.word	gyroData
 587 01a8 00000000 		.word	accData
 588 01ac 00000000 		.word	estAng
 589 01b0 00004CFF 		.word	-11796480
 590 01b4 000098FE 		.word	-23592960
 591 01b8 FFFF0100 		.word	131071
 592 01bc 33F30000 		.word	62259
 593 01c0 CD0DFFFF 		.word	-62003
 594 01c4 34000000 		.word	.LC12
 595              		.cfi_endproc
 596              	.LFE37:
 597              		.size	gyroDataReadyInterrupt, .-gyroDataReadyInterrupt
 598              		.text
 599              	.Letext0:
 600              		.file 2 "c:\\program files (x86)\\cypress\\psoc creator\\3.1\\psoc creator\\import\\gnu_cs\\arm\\4
 601              		.file 3 "c:\\program files (x86)\\cypress\\psoc creator\\3.1\\psoc creator\\import\\gnu_cs\\arm\\4
 602              		.file 4 ".\\Generated_Source\\PSoC4/cytypes.h"
 603              		.file 5 "./fixedMath.h"
 604              		.section	.debug_info,"",%progbits
 605              	.Ldebug_info0:
 606 0000 47030000 		.4byte	0x347
 607 0004 0400     		.2byte	0x4
 608 0006 00000000 		.4byte	.Ldebug_abbrev0
 609 000a 04       		.byte	0x4
 610 000b 01       		.uleb128 0x1
 611 000c 7B000000 		.4byte	.LASF42
 612 0010 01       		.byte	0x1
 613 0011 9E010000 		.4byte	.LASF43
 614 0015 4B010000 		.4byte	.LASF44
 615 0019 00000000 		.4byte	.Ldebug_ranges0+0
 616 001d 00000000 		.4byte	0
 617 0021 00000000 		.4byte	.Ldebug_line0
 618 0025 02       		.uleb128 0x2
 619 0026 01       		.byte	0x1
 620 0027 06       		.byte	0x6
 621 0028 7C020000 		.4byte	.LASF0
 622 002c 03       		.uleb128 0x3
 623 002d 06000000 		.4byte	.LASF2
 624 0031 02       		.byte	0x2
 625 0032 1C       		.byte	0x1c
 626 0033 37000000 		.4byte	0x37
 627 0037 02       		.uleb128 0x2
 628 0038 01       		.byte	0x1
 629 0039 08       		.byte	0x8
 630 003a 02010000 		.4byte	.LASF1
 631 003e 03       		.uleb128 0x3
 632 003f 10000000 		.4byte	.LASF3
 633 0043 02       		.byte	0x2
 634 0044 25       		.byte	0x25
 635 0045 49000000 		.4byte	0x49
 636 0049 02       		.uleb128 0x2
 637 004a 02       		.byte	0x2
 638 004b 05       		.byte	0x5
 639 004c 48020000 		.4byte	.LASF4
 640 0050 02       		.uleb128 0x2
 641 0051 02       		.byte	0x2
 642 0052 07       		.byte	0x7
ARM GAS  C:\Users\Felix\AppData\Local\Temp\cc50rYoC.s 			page 16


 643 0053 34000000 		.4byte	.LASF5
 644 0057 03       		.uleb128 0x3
 645 0058 2A000000 		.4byte	.LASF6
 646 005c 02       		.byte	0x2
 647 005d 37       		.byte	0x37
 648 005e 62000000 		.4byte	0x62
 649 0062 02       		.uleb128 0x2
 650 0063 04       		.byte	0x4
 651 0064 05       		.byte	0x5
 652 0065 63020000 		.4byte	.LASF7
 653 0069 02       		.uleb128 0x2
 654 006a 04       		.byte	0x4
 655 006b 07       		.byte	0x7
 656 006c A7010000 		.4byte	.LASF8
 657 0070 02       		.uleb128 0x2
 658 0071 08       		.byte	0x8
 659 0072 05       		.byte	0x5
 660 0073 2B020000 		.4byte	.LASF9
 661 0077 02       		.uleb128 0x2
 662 0078 08       		.byte	0x8
 663 0079 07       		.byte	0x7
 664 007a DE010000 		.4byte	.LASF10
 665 007e 04       		.uleb128 0x4
 666 007f 04       		.byte	0x4
 667 0080 05       		.byte	0x5
 668 0081 696E7400 		.ascii	"int\000"
 669 0085 02       		.uleb128 0x2
 670 0086 04       		.byte	0x4
 671 0087 07       		.byte	0x7
 672 0088 D1010000 		.4byte	.LASF11
 673 008c 03       		.uleb128 0x3
 674 008d F5010000 		.4byte	.LASF12
 675 0091 03       		.byte	0x3
 676 0092 2A       		.byte	0x2a
 677 0093 2C000000 		.4byte	0x2c
 678 0097 03       		.uleb128 0x3
 679 0098 12020000 		.4byte	.LASF13
 680 009c 03       		.byte	0x3
 681 009d 35       		.byte	0x35
 682 009e 3E000000 		.4byte	0x3e
 683 00a2 03       		.uleb128 0x3
 684 00a3 1A020000 		.4byte	.LASF14
 685 00a7 03       		.byte	0x3
 686 00a8 41       		.byte	0x41
 687 00a9 57000000 		.4byte	0x57
 688 00ad 03       		.uleb128 0x3
 689 00ae 4E000000 		.4byte	.LASF15
 690 00b2 04       		.byte	0x4
 691 00b3 A1       		.byte	0xa1
 692 00b4 37000000 		.4byte	0x37
 693 00b8 03       		.uleb128 0x3
 694 00b9 CA010000 		.4byte	.LASF16
 695 00bd 04       		.byte	0x4
 696 00be A3       		.byte	0xa3
 697 00bf 69000000 		.4byte	0x69
 698 00c3 03       		.uleb128 0x3
 699 00c4 1A010000 		.4byte	.LASF17
ARM GAS  C:\Users\Felix\AppData\Local\Temp\cc50rYoC.s 			page 17


 700 00c8 04       		.byte	0x4
 701 00c9 A5       		.byte	0xa5
 702 00ca 49000000 		.4byte	0x49
 703 00ce 02       		.uleb128 0x2
 704 00cf 04       		.byte	0x4
 705 00d0 04       		.byte	0x4
 706 00d1 75000000 		.4byte	.LASF18
 707 00d5 02       		.uleb128 0x2
 708 00d6 08       		.byte	0x8
 709 00d7 04       		.byte	0x4
 710 00d8 47000000 		.4byte	.LASF19
 711 00dc 02       		.uleb128 0x2
 712 00dd 01       		.byte	0x1
 713 00de 08       		.byte	0x8
 714 00df 39020000 		.4byte	.LASF20
 715 00e3 05       		.uleb128 0x5
 716 00e4 AD000000 		.4byte	0xad
 717 00e8 06       		.uleb128 0x6
 718 00e9 00000000 		.4byte	.LASF21
 719 00ed 04       		.byte	0x4
 720 00ee 4D01     		.2byte	0x14d
 721 00f0 F4000000 		.4byte	0xf4
 722 00f4 05       		.uleb128 0x5
 723 00f5 B8000000 		.4byte	0xb8
 724 00f9 02       		.uleb128 0x2
 725 00fa 04       		.byte	0x4
 726 00fb 07       		.byte	0x7
 727 00fc 22020000 		.4byte	.LASF22
 728 0100 03       		.uleb128 0x3
 729 0101 52020000 		.4byte	.LASF23
 730 0105 05       		.byte	0x5
 731 0106 12       		.byte	0x12
 732 0107 A2000000 		.4byte	0xa2
 733 010b 07       		.uleb128 0x7
 734 010c B9010000 		.4byte	.LASF24
 735 0110 01       		.byte	0x1
 736 0111 56       		.byte	0x56
 737 0112 7E000000 		.4byte	0x7e
 738 0116 00000000 		.4byte	.LFB33
 739 011a 74000000 		.4byte	.LFE33-.LFB33
 740 011e 01       		.uleb128 0x1
 741 011f 9C       		.byte	0x9c
 742 0120 31010000 		.4byte	0x131
 743 0124 08       		.uleb128 0x8
 744 0125 6300     		.ascii	"c\000"
 745 0127 01       		.byte	0x1
 746 0128 68       		.byte	0x68
 747 0129 37000000 		.4byte	0x37
 748 012d 02       		.uleb128 0x2
 749 012e 91       		.byte	0x91
 750 012f 77       		.sleb128 -9
 751 0130 00       		.byte	0
 752 0131 09       		.uleb128 0x9
 753 0132 3C010000 		.4byte	.LASF25
 754 0136 01       		.byte	0x1
 755 0137 82       		.byte	0x82
 756 0138 00000000 		.4byte	.LFB34
ARM GAS  C:\Users\Felix\AppData\Local\Temp\cc50rYoC.s 			page 18


 757 013c 50000000 		.4byte	.LFE34-.LFB34
 758 0140 01       		.uleb128 0x1
 759 0141 9C       		.byte	0x9c
 760 0142 7D010000 		.4byte	0x17d
 761 0146 0A       		.uleb128 0xa
 762 0147 37010000 		.4byte	.LASF26
 763 014b 01       		.byte	0x1
 764 014c 82       		.byte	0x82
 765 014d 8C000000 		.4byte	0x8c
 766 0151 02       		.uleb128 0x2
 767 0152 91       		.byte	0x91
 768 0153 6F       		.sleb128 -17
 769 0154 0A       		.uleb128 0xa
 770 0155 10010000 		.4byte	.LASF27
 771 0159 01       		.byte	0x1
 772 015a 82       		.byte	0x82
 773 015b 8D010000 		.4byte	0x18d
 774 015f 02       		.uleb128 0x2
 775 0160 91       		.byte	0x91
 776 0161 68       		.sleb128 -24
 777 0162 0A       		.uleb128 0xa
 778 0163 21000000 		.4byte	.LASF28
 779 0167 01       		.byte	0x1
 780 0168 82       		.byte	0x82
 781 0169 8C000000 		.4byte	0x8c
 782 016d 02       		.uleb128 0x2
 783 016e 91       		.byte	0x91
 784 016f 6E       		.sleb128 -18
 785 0170 08       		.uleb128 0x8
 786 0171 6900     		.ascii	"i\000"
 787 0173 01       		.byte	0x1
 788 0174 83       		.byte	0x83
 789 0175 7E000000 		.4byte	0x7e
 790 0179 02       		.uleb128 0x2
 791 017a 91       		.byte	0x91
 792 017b 74       		.sleb128 -12
 793 017c 00       		.byte	0
 794 017d 0B       		.uleb128 0xb
 795 017e 8C000000 		.4byte	0x8c
 796 0182 8D010000 		.4byte	0x18d
 797 0186 0C       		.uleb128 0xc
 798 0187 F9000000 		.4byte	0xf9
 799 018b 01       		.byte	0x1
 800 018c 00       		.byte	0
 801 018d 0D       		.uleb128 0xd
 802 018e 04       		.byte	0x4
 803 018f 7D010000 		.4byte	0x17d
 804 0193 0E       		.uleb128 0xe
 805 0194 F7000000 		.4byte	.LASF45
 806 0198 01       		.byte	0x1
 807 0199 89       		.byte	0x89
 808 019a 8C000000 		.4byte	0x8c
 809 019e 00000000 		.4byte	.LFB35
 810 01a2 54000000 		.4byte	.LFE35-.LFB35
 811 01a6 01       		.uleb128 0x1
 812 01a7 9C       		.byte	0x9c
 813 01a8 D7010000 		.4byte	0x1d7
ARM GAS  C:\Users\Felix\AppData\Local\Temp\cc50rYoC.s 			page 19


 814 01ac 0A       		.uleb128 0xa
 815 01ad 37010000 		.4byte	.LASF26
 816 01b1 01       		.byte	0x1
 817 01b2 89       		.byte	0x89
 818 01b3 8C000000 		.4byte	0x8c
 819 01b7 02       		.uleb128 0x2
 820 01b8 91       		.byte	0x91
 821 01b9 6F       		.sleb128 -17
 822 01ba 0F       		.uleb128 0xf
 823 01bb 72656700 		.ascii	"reg\000"
 824 01bf 01       		.byte	0x1
 825 01c0 89       		.byte	0x89
 826 01c1 8C000000 		.4byte	0x8c
 827 01c5 02       		.uleb128 0x2
 828 01c6 91       		.byte	0x91
 829 01c7 6E       		.sleb128 -18
 830 01c8 10       		.uleb128 0x10
 831 01c9 0B020000 		.4byte	.LASF29
 832 01cd 01       		.byte	0x1
 833 01ce 8E       		.byte	0x8e
 834 01cf 8C000000 		.4byte	0x8c
 835 01d3 02       		.uleb128 0x2
 836 01d4 91       		.byte	0x91
 837 01d5 77       		.sleb128 -9
 838 01d6 00       		.byte	0
 839 01d7 09       		.uleb128 0x9
 840 01d8 BE010000 		.4byte	.LASF30
 841 01dc 01       		.byte	0x1
 842 01dd 93       		.byte	0x93
 843 01de 00000000 		.4byte	.LFB36
 844 01e2 3C000000 		.4byte	.LFE36-.LFB36
 845 01e6 01       		.uleb128 0x1
 846 01e7 9C       		.byte	0x9c
 847 01e8 17020000 		.4byte	0x217
 848 01ec 0A       		.uleb128 0xa
 849 01ed 37010000 		.4byte	.LASF26
 850 01f1 01       		.byte	0x1
 851 01f2 93       		.byte	0x93
 852 01f3 8C000000 		.4byte	0x8c
 853 01f7 02       		.uleb128 0x2
 854 01f8 91       		.byte	0x91
 855 01f9 77       		.sleb128 -9
 856 01fa 0F       		.uleb128 0xf
 857 01fb 72656700 		.ascii	"reg\000"
 858 01ff 01       		.byte	0x1
 859 0200 93       		.byte	0x93
 860 0201 8C000000 		.4byte	0x8c
 861 0205 02       		.uleb128 0x2
 862 0206 91       		.byte	0x91
 863 0207 76       		.sleb128 -10
 864 0208 0F       		.uleb128 0xf
 865 0209 76616C00 		.ascii	"val\000"
 866 020d 01       		.byte	0x1
 867 020e 93       		.byte	0x93
 868 020f 8C000000 		.4byte	0x8c
 869 0213 02       		.uleb128 0x2
 870 0214 91       		.byte	0x91
ARM GAS  C:\Users\Felix\AppData\Local\Temp\cc50rYoC.s 			page 20


 871 0215 75       		.sleb128 -11
 872 0216 00       		.byte	0
 873 0217 09       		.uleb128 0x9
 874 0218 20010000 		.4byte	.LASF31
 875 021c 01       		.byte	0x1
 876 021d 9A       		.byte	0x9a
 877 021e 00000000 		.4byte	.LFB37
 878 0222 C8010000 		.4byte	.LFE37-.LFB37
 879 0226 01       		.uleb128 0x1
 880 0227 9C       		.byte	0x9c
 881 0228 73020000 		.4byte	0x273
 882 022c 10       		.uleb128 0x10
 883 022d 88020000 		.4byte	.LASF32
 884 0231 01       		.byte	0x1
 885 0232 9F       		.byte	0x9f
 886 0233 97000000 		.4byte	0x97
 887 0237 02       		.uleb128 0x2
 888 0238 91       		.byte	0x91
 889 0239 6E       		.sleb128 -18
 890 023a 10       		.uleb128 0x10
 891 023b 6C020000 		.4byte	.LASF33
 892 023f 01       		.byte	0x1
 893 0240 A5       		.byte	0xa5
 894 0241 C3000000 		.4byte	0xc3
 895 0245 02       		.uleb128 0x2
 896 0246 91       		.byte	0x91
 897 0247 6C       		.sleb128 -20
 898 0248 10       		.uleb128 0x10
 899 0249 74020000 		.4byte	.LASF34
 900 024d 01       		.byte	0x1
 901 024e A6       		.byte	0xa6
 902 024f C3000000 		.4byte	0xc3
 903 0253 02       		.uleb128 0x2
 904 0254 91       		.byte	0x91
 905 0255 6A       		.sleb128 -22
 906 0256 10       		.uleb128 0x10
 907 0257 69000000 		.4byte	.LASF35
 908 025b 01       		.byte	0x1
 909 025c B5       		.byte	0xb5
 910 025d 00010000 		.4byte	0x100
 911 0261 02       		.uleb128 0x2
 912 0262 91       		.byte	0x91
 913 0263 64       		.sleb128 -28
 914 0264 10       		.uleb128 0x10
 915 0265 0B020000 		.4byte	.LASF29
 916 0269 01       		.byte	0x1
 917 026a C1       		.byte	0xc1
 918 026b 73020000 		.4byte	0x273
 919 026f 02       		.uleb128 0x2
 920 0270 91       		.byte	0x91
 921 0271 54       		.sleb128 -44
 922 0272 00       		.byte	0
 923 0273 0B       		.uleb128 0xb
 924 0274 DC000000 		.4byte	0xdc
 925 0278 83020000 		.4byte	0x283
 926 027c 0C       		.uleb128 0xc
 927 027d F9000000 		.4byte	0xf9
ARM GAS  C:\Users\Felix\AppData\Local\Temp\cc50rYoC.s 			page 21


 928 0281 0E       		.byte	0xe
 929 0282 00       		.byte	0
 930 0283 0B       		.uleb128 0xb
 931 0284 8C000000 		.4byte	0x8c
 932 0288 99020000 		.4byte	0x299
 933 028c 0C       		.uleb128 0xc
 934 028d F9000000 		.4byte	0xf9
 935 0291 04       		.byte	0x4
 936 0292 0C       		.uleb128 0xc
 937 0293 F9000000 		.4byte	0xf9
 938 0297 01       		.byte	0x1
 939 0298 00       		.byte	0
 940 0299 11       		.uleb128 0x11
 941 029a 5C000000 		.4byte	.LASF36
 942 029e 01       		.byte	0x1
 943 029f 36       		.byte	0x36
 944 02a0 AA020000 		.4byte	0x2aa
 945 02a4 05       		.uleb128 0x5
 946 02a5 03       		.byte	0x3
 947 02a6 00000000 		.4byte	accInitArray
 948 02aa 12       		.uleb128 0x12
 949 02ab 83020000 		.4byte	0x283
 950 02af 0B       		.uleb128 0xb
 951 02b0 8C000000 		.4byte	0x8c
 952 02b4 C5020000 		.4byte	0x2c5
 953 02b8 0C       		.uleb128 0xc
 954 02b9 F9000000 		.4byte	0xf9
 955 02bd 03       		.byte	0x3
 956 02be 0C       		.uleb128 0xc
 957 02bf F9000000 		.4byte	0xf9
 958 02c3 01       		.byte	0x1
 959 02c4 00       		.byte	0
 960 02c5 11       		.uleb128 0x11
 961 02c6 FD010000 		.4byte	.LASF37
 962 02ca 01       		.byte	0x1
 963 02cb 3E       		.byte	0x3e
 964 02cc D6020000 		.4byte	0x2d6
 965 02d0 05       		.uleb128 0x5
 966 02d1 03       		.byte	0x3
 967 02d2 00000000 		.4byte	gyroInitArray
 968 02d6 12       		.uleb128 0x12
 969 02d7 AF020000 		.4byte	0x2af
 970 02db 11       		.uleb128 0x11
 971 02dc 3E020000 		.4byte	.LASF38
 972 02e0 01       		.byte	0x1
 973 02e1 48       		.byte	0x48
 974 02e2 E3000000 		.4byte	0xe3
 975 02e6 05       		.uleb128 0x5
 976 02e7 03       		.byte	0x3
 977 02e8 00000000 		.4byte	dataReady
 978 02ec 13       		.uleb128 0x13
 979 02ed 72647900 		.ascii	"rdy\000"
 980 02f1 01       		.byte	0x1
 981 02f2 48       		.byte	0x48
 982 02f3 E3000000 		.4byte	0xe3
 983 02f7 05       		.uleb128 0x5
 984 02f8 03       		.byte	0x3
ARM GAS  C:\Users\Felix\AppData\Local\Temp\cc50rYoC.s 			page 22


 985 02f9 00000000 		.4byte	rdy
 986 02fd 0B       		.uleb128 0xb
 987 02fe 00010000 		.4byte	0x100
 988 0302 0D030000 		.4byte	0x30d
 989 0306 0C       		.uleb128 0xc
 990 0307 F9000000 		.4byte	0xf9
 991 030b 01       		.byte	0x1
 992 030c 00       		.byte	0
 993 030d 11       		.uleb128 0x11
 994 030e 54000000 		.4byte	.LASF39
 995 0312 01       		.byte	0x1
 996 0313 49       		.byte	0x49
 997 0314 1E030000 		.4byte	0x31e
 998 0318 05       		.uleb128 0x5
 999 0319 03       		.byte	0x3
 1000 031a 00000000 		.4byte	accData
 1001 031e 05       		.uleb128 0x5
 1002 031f FD020000 		.4byte	0x2fd
 1003 0323 11       		.uleb128 0x11
 1004 0324 5A020000 		.4byte	.LASF40
 1005 0328 01       		.byte	0x1
 1006 0329 49       		.byte	0x49
 1007 032a 34030000 		.4byte	0x334
 1008 032e 05       		.uleb128 0x5
 1009 032f 03       		.byte	0x3
 1010 0330 00000000 		.4byte	gyroData
 1011 0334 05       		.uleb128 0x5
 1012 0335 00010000 		.4byte	0x100
 1013 0339 11       		.uleb128 0x11
 1014 033a 1A000000 		.4byte	.LASF41
 1015 033e 01       		.byte	0x1
 1016 033f 4A       		.byte	0x4a
 1017 0340 00010000 		.4byte	0x100
 1018 0344 05       		.uleb128 0x5
 1019 0345 03       		.byte	0x3
 1020 0346 00000000 		.4byte	estAng
 1021 034a 00       		.byte	0
 1022              		.section	.debug_abbrev,"",%progbits
 1023              	.Ldebug_abbrev0:
 1024 0000 01       		.uleb128 0x1
 1025 0001 11       		.uleb128 0x11
 1026 0002 01       		.byte	0x1
 1027 0003 25       		.uleb128 0x25
 1028 0004 0E       		.uleb128 0xe
 1029 0005 13       		.uleb128 0x13
 1030 0006 0B       		.uleb128 0xb
 1031 0007 03       		.uleb128 0x3
 1032 0008 0E       		.uleb128 0xe
 1033 0009 1B       		.uleb128 0x1b
 1034 000a 0E       		.uleb128 0xe
 1035 000b 55       		.uleb128 0x55
 1036 000c 17       		.uleb128 0x17
 1037 000d 11       		.uleb128 0x11
 1038 000e 01       		.uleb128 0x1
 1039 000f 10       		.uleb128 0x10
 1040 0010 17       		.uleb128 0x17
 1041 0011 00       		.byte	0
ARM GAS  C:\Users\Felix\AppData\Local\Temp\cc50rYoC.s 			page 23


 1042 0012 00       		.byte	0
 1043 0013 02       		.uleb128 0x2
 1044 0014 24       		.uleb128 0x24
 1045 0015 00       		.byte	0
 1046 0016 0B       		.uleb128 0xb
 1047 0017 0B       		.uleb128 0xb
 1048 0018 3E       		.uleb128 0x3e
 1049 0019 0B       		.uleb128 0xb
 1050 001a 03       		.uleb128 0x3
 1051 001b 0E       		.uleb128 0xe
 1052 001c 00       		.byte	0
 1053 001d 00       		.byte	0
 1054 001e 03       		.uleb128 0x3
 1055 001f 16       		.uleb128 0x16
 1056 0020 00       		.byte	0
 1057 0021 03       		.uleb128 0x3
 1058 0022 0E       		.uleb128 0xe
 1059 0023 3A       		.uleb128 0x3a
 1060 0024 0B       		.uleb128 0xb
 1061 0025 3B       		.uleb128 0x3b
 1062 0026 0B       		.uleb128 0xb
 1063 0027 49       		.uleb128 0x49
 1064 0028 13       		.uleb128 0x13
 1065 0029 00       		.byte	0
 1066 002a 00       		.byte	0
 1067 002b 04       		.uleb128 0x4
 1068 002c 24       		.uleb128 0x24
 1069 002d 00       		.byte	0
 1070 002e 0B       		.uleb128 0xb
 1071 002f 0B       		.uleb128 0xb
 1072 0030 3E       		.uleb128 0x3e
 1073 0031 0B       		.uleb128 0xb
 1074 0032 03       		.uleb128 0x3
 1075 0033 08       		.uleb128 0x8
 1076 0034 00       		.byte	0
 1077 0035 00       		.byte	0
 1078 0036 05       		.uleb128 0x5
 1079 0037 35       		.uleb128 0x35
 1080 0038 00       		.byte	0
 1081 0039 49       		.uleb128 0x49
 1082 003a 13       		.uleb128 0x13
 1083 003b 00       		.byte	0
 1084 003c 00       		.byte	0
 1085 003d 06       		.uleb128 0x6
 1086 003e 16       		.uleb128 0x16
 1087 003f 00       		.byte	0
 1088 0040 03       		.uleb128 0x3
 1089 0041 0E       		.uleb128 0xe
 1090 0042 3A       		.uleb128 0x3a
 1091 0043 0B       		.uleb128 0xb
 1092 0044 3B       		.uleb128 0x3b
 1093 0045 05       		.uleb128 0x5
 1094 0046 49       		.uleb128 0x49
 1095 0047 13       		.uleb128 0x13
 1096 0048 00       		.byte	0
 1097 0049 00       		.byte	0
 1098 004a 07       		.uleb128 0x7
ARM GAS  C:\Users\Felix\AppData\Local\Temp\cc50rYoC.s 			page 24


 1099 004b 2E       		.uleb128 0x2e
 1100 004c 01       		.byte	0x1
 1101 004d 3F       		.uleb128 0x3f
 1102 004e 19       		.uleb128 0x19
 1103 004f 03       		.uleb128 0x3
 1104 0050 0E       		.uleb128 0xe
 1105 0051 3A       		.uleb128 0x3a
 1106 0052 0B       		.uleb128 0xb
 1107 0053 3B       		.uleb128 0x3b
 1108 0054 0B       		.uleb128 0xb
 1109 0055 49       		.uleb128 0x49
 1110 0056 13       		.uleb128 0x13
 1111 0057 11       		.uleb128 0x11
 1112 0058 01       		.uleb128 0x1
 1113 0059 12       		.uleb128 0x12
 1114 005a 06       		.uleb128 0x6
 1115 005b 40       		.uleb128 0x40
 1116 005c 18       		.uleb128 0x18
 1117 005d 9642     		.uleb128 0x2116
 1118 005f 19       		.uleb128 0x19
 1119 0060 01       		.uleb128 0x1
 1120 0061 13       		.uleb128 0x13
 1121 0062 00       		.byte	0
 1122 0063 00       		.byte	0
 1123 0064 08       		.uleb128 0x8
 1124 0065 34       		.uleb128 0x34
 1125 0066 00       		.byte	0
 1126 0067 03       		.uleb128 0x3
 1127 0068 08       		.uleb128 0x8
 1128 0069 3A       		.uleb128 0x3a
 1129 006a 0B       		.uleb128 0xb
 1130 006b 3B       		.uleb128 0x3b
 1131 006c 0B       		.uleb128 0xb
 1132 006d 49       		.uleb128 0x49
 1133 006e 13       		.uleb128 0x13
 1134 006f 02       		.uleb128 0x2
 1135 0070 18       		.uleb128 0x18
 1136 0071 00       		.byte	0
 1137 0072 00       		.byte	0
 1138 0073 09       		.uleb128 0x9
 1139 0074 2E       		.uleb128 0x2e
 1140 0075 01       		.byte	0x1
 1141 0076 3F       		.uleb128 0x3f
 1142 0077 19       		.uleb128 0x19
 1143 0078 03       		.uleb128 0x3
 1144 0079 0E       		.uleb128 0xe
 1145 007a 3A       		.uleb128 0x3a
 1146 007b 0B       		.uleb128 0xb
 1147 007c 3B       		.uleb128 0x3b
 1148 007d 0B       		.uleb128 0xb
 1149 007e 27       		.uleb128 0x27
 1150 007f 19       		.uleb128 0x19
 1151 0080 11       		.uleb128 0x11
 1152 0081 01       		.uleb128 0x1
 1153 0082 12       		.uleb128 0x12
 1154 0083 06       		.uleb128 0x6
 1155 0084 40       		.uleb128 0x40
ARM GAS  C:\Users\Felix\AppData\Local\Temp\cc50rYoC.s 			page 25


 1156 0085 18       		.uleb128 0x18
 1157 0086 9642     		.uleb128 0x2116
 1158 0088 19       		.uleb128 0x19
 1159 0089 01       		.uleb128 0x1
 1160 008a 13       		.uleb128 0x13
 1161 008b 00       		.byte	0
 1162 008c 00       		.byte	0
 1163 008d 0A       		.uleb128 0xa
 1164 008e 05       		.uleb128 0x5
 1165 008f 00       		.byte	0
 1166 0090 03       		.uleb128 0x3
 1167 0091 0E       		.uleb128 0xe
 1168 0092 3A       		.uleb128 0x3a
 1169 0093 0B       		.uleb128 0xb
 1170 0094 3B       		.uleb128 0x3b
 1171 0095 0B       		.uleb128 0xb
 1172 0096 49       		.uleb128 0x49
 1173 0097 13       		.uleb128 0x13
 1174 0098 02       		.uleb128 0x2
 1175 0099 18       		.uleb128 0x18
 1176 009a 00       		.byte	0
 1177 009b 00       		.byte	0
 1178 009c 0B       		.uleb128 0xb
 1179 009d 01       		.uleb128 0x1
 1180 009e 01       		.byte	0x1
 1181 009f 49       		.uleb128 0x49
 1182 00a0 13       		.uleb128 0x13
 1183 00a1 01       		.uleb128 0x1
 1184 00a2 13       		.uleb128 0x13
 1185 00a3 00       		.byte	0
 1186 00a4 00       		.byte	0
 1187 00a5 0C       		.uleb128 0xc
 1188 00a6 21       		.uleb128 0x21
 1189 00a7 00       		.byte	0
 1190 00a8 49       		.uleb128 0x49
 1191 00a9 13       		.uleb128 0x13
 1192 00aa 2F       		.uleb128 0x2f
 1193 00ab 0B       		.uleb128 0xb
 1194 00ac 00       		.byte	0
 1195 00ad 00       		.byte	0
 1196 00ae 0D       		.uleb128 0xd
 1197 00af 0F       		.uleb128 0xf
 1198 00b0 00       		.byte	0
 1199 00b1 0B       		.uleb128 0xb
 1200 00b2 0B       		.uleb128 0xb
 1201 00b3 49       		.uleb128 0x49
 1202 00b4 13       		.uleb128 0x13
 1203 00b5 00       		.byte	0
 1204 00b6 00       		.byte	0
 1205 00b7 0E       		.uleb128 0xe
 1206 00b8 2E       		.uleb128 0x2e
 1207 00b9 01       		.byte	0x1
 1208 00ba 3F       		.uleb128 0x3f
 1209 00bb 19       		.uleb128 0x19
 1210 00bc 03       		.uleb128 0x3
 1211 00bd 0E       		.uleb128 0xe
 1212 00be 3A       		.uleb128 0x3a
ARM GAS  C:\Users\Felix\AppData\Local\Temp\cc50rYoC.s 			page 26


 1213 00bf 0B       		.uleb128 0xb
 1214 00c0 3B       		.uleb128 0x3b
 1215 00c1 0B       		.uleb128 0xb
 1216 00c2 27       		.uleb128 0x27
 1217 00c3 19       		.uleb128 0x19
 1218 00c4 49       		.uleb128 0x49
 1219 00c5 13       		.uleb128 0x13
 1220 00c6 11       		.uleb128 0x11
 1221 00c7 01       		.uleb128 0x1
 1222 00c8 12       		.uleb128 0x12
 1223 00c9 06       		.uleb128 0x6
 1224 00ca 40       		.uleb128 0x40
 1225 00cb 18       		.uleb128 0x18
 1226 00cc 9642     		.uleb128 0x2116
 1227 00ce 19       		.uleb128 0x19
 1228 00cf 01       		.uleb128 0x1
 1229 00d0 13       		.uleb128 0x13
 1230 00d1 00       		.byte	0
 1231 00d2 00       		.byte	0
 1232 00d3 0F       		.uleb128 0xf
 1233 00d4 05       		.uleb128 0x5
 1234 00d5 00       		.byte	0
 1235 00d6 03       		.uleb128 0x3
 1236 00d7 08       		.uleb128 0x8
 1237 00d8 3A       		.uleb128 0x3a
 1238 00d9 0B       		.uleb128 0xb
 1239 00da 3B       		.uleb128 0x3b
 1240 00db 0B       		.uleb128 0xb
 1241 00dc 49       		.uleb128 0x49
 1242 00dd 13       		.uleb128 0x13
 1243 00de 02       		.uleb128 0x2
 1244 00df 18       		.uleb128 0x18
 1245 00e0 00       		.byte	0
 1246 00e1 00       		.byte	0
 1247 00e2 10       		.uleb128 0x10
 1248 00e3 34       		.uleb128 0x34
 1249 00e4 00       		.byte	0
 1250 00e5 03       		.uleb128 0x3
 1251 00e6 0E       		.uleb128 0xe
 1252 00e7 3A       		.uleb128 0x3a
 1253 00e8 0B       		.uleb128 0xb
 1254 00e9 3B       		.uleb128 0x3b
 1255 00ea 0B       		.uleb128 0xb
 1256 00eb 49       		.uleb128 0x49
 1257 00ec 13       		.uleb128 0x13
 1258 00ed 02       		.uleb128 0x2
 1259 00ee 18       		.uleb128 0x18
 1260 00ef 00       		.byte	0
 1261 00f0 00       		.byte	0
 1262 00f1 11       		.uleb128 0x11
 1263 00f2 34       		.uleb128 0x34
 1264 00f3 00       		.byte	0
 1265 00f4 03       		.uleb128 0x3
 1266 00f5 0E       		.uleb128 0xe
 1267 00f6 3A       		.uleb128 0x3a
 1268 00f7 0B       		.uleb128 0xb
 1269 00f8 3B       		.uleb128 0x3b
ARM GAS  C:\Users\Felix\AppData\Local\Temp\cc50rYoC.s 			page 27


 1270 00f9 0B       		.uleb128 0xb
 1271 00fa 49       		.uleb128 0x49
 1272 00fb 13       		.uleb128 0x13
 1273 00fc 3F       		.uleb128 0x3f
 1274 00fd 19       		.uleb128 0x19
 1275 00fe 02       		.uleb128 0x2
 1276 00ff 18       		.uleb128 0x18
 1277 0100 00       		.byte	0
 1278 0101 00       		.byte	0
 1279 0102 12       		.uleb128 0x12
 1280 0103 26       		.uleb128 0x26
 1281 0104 00       		.byte	0
 1282 0105 49       		.uleb128 0x49
 1283 0106 13       		.uleb128 0x13
 1284 0107 00       		.byte	0
 1285 0108 00       		.byte	0
 1286 0109 13       		.uleb128 0x13
 1287 010a 34       		.uleb128 0x34
 1288 010b 00       		.byte	0
 1289 010c 03       		.uleb128 0x3
 1290 010d 08       		.uleb128 0x8
 1291 010e 3A       		.uleb128 0x3a
 1292 010f 0B       		.uleb128 0xb
 1293 0110 3B       		.uleb128 0x3b
 1294 0111 0B       		.uleb128 0xb
 1295 0112 49       		.uleb128 0x49
 1296 0113 13       		.uleb128 0x13
 1297 0114 3F       		.uleb128 0x3f
 1298 0115 19       		.uleb128 0x19
 1299 0116 02       		.uleb128 0x2
 1300 0117 18       		.uleb128 0x18
 1301 0118 00       		.byte	0
 1302 0119 00       		.byte	0
 1303 011a 00       		.byte	0
 1304              		.section	.debug_aranges,"",%progbits
 1305 0000 3C000000 		.4byte	0x3c
 1306 0004 0200     		.2byte	0x2
 1307 0006 00000000 		.4byte	.Ldebug_info0
 1308 000a 04       		.byte	0x4
 1309 000b 00       		.byte	0
 1310 000c 0000     		.2byte	0
 1311 000e 0000     		.2byte	0
 1312 0010 00000000 		.4byte	.LFB33
 1313 0014 74000000 		.4byte	.LFE33-.LFB33
 1314 0018 00000000 		.4byte	.LFB34
 1315 001c 50000000 		.4byte	.LFE34-.LFB34
 1316 0020 00000000 		.4byte	.LFB35
 1317 0024 54000000 		.4byte	.LFE35-.LFB35
 1318 0028 00000000 		.4byte	.LFB36
 1319 002c 3C000000 		.4byte	.LFE36-.LFB36
 1320 0030 00000000 		.4byte	.LFB37
 1321 0034 C8010000 		.4byte	.LFE37-.LFB37
 1322 0038 00000000 		.4byte	0
 1323 003c 00000000 		.4byte	0
 1324              		.section	.debug_ranges,"",%progbits
 1325              	.Ldebug_ranges0:
 1326 0000 00000000 		.4byte	.LFB33
ARM GAS  C:\Users\Felix\AppData\Local\Temp\cc50rYoC.s 			page 28


 1327 0004 74000000 		.4byte	.LFE33
 1328 0008 00000000 		.4byte	.LFB34
 1329 000c 50000000 		.4byte	.LFE34
 1330 0010 00000000 		.4byte	.LFB35
 1331 0014 54000000 		.4byte	.LFE35
 1332 0018 00000000 		.4byte	.LFB36
 1333 001c 3C000000 		.4byte	.LFE36
 1334 0020 00000000 		.4byte	.LFB37
 1335 0024 C8010000 		.4byte	.LFE37
 1336 0028 00000000 		.4byte	0
 1337 002c 00000000 		.4byte	0
 1338              		.section	.debug_line,"",%progbits
 1339              	.Ldebug_line0:
 1340 0000 0E020000 		.section	.debug_str,"MS",%progbits,1
 1340      02005401 
 1340      00000201 
 1340      FB0E0D00 
 1340      01010101 
 1341              	.LASF21:
 1342 0000 72656733 		.ascii	"reg32\000"
 1342      3200
 1343              	.LASF2:
 1344 0006 5F5F7569 		.ascii	"__uint8_t\000"
 1344      6E74385F 
 1344      7400
 1345              	.LASF3:
 1346 0010 5F5F696E 		.ascii	"__int16_t\000"
 1346      7431365F 
 1346      7400
 1347              	.LASF41:
 1348 001a 65737441 		.ascii	"estAng\000"
 1348      6E6700
 1349              	.LASF28:
 1350 0021 61727261 		.ascii	"arrayLen\000"
 1350      794C656E 
 1350      00
 1351              	.LASF6:
 1352 002a 5F5F696E 		.ascii	"__int32_t\000"
 1352      7433325F 
 1352      7400
 1353              	.LASF5:
 1354 0034 73686F72 		.ascii	"short unsigned int\000"
 1354      7420756E 
 1354      7369676E 
 1354      65642069 
 1354      6E7400
 1355              	.LASF19:
 1356 0047 646F7562 		.ascii	"double\000"
 1356      6C6500
 1357              	.LASF15:
 1358 004e 75696E74 		.ascii	"uint8\000"
 1358      3800
 1359              	.LASF39:
 1360 0054 61636344 		.ascii	"accData\000"
 1360      61746100 
 1361              	.LASF36:
 1362 005c 61636349 		.ascii	"accInitArray\000"
ARM GAS  C:\Users\Felix\AppData\Local\Temp\cc50rYoC.s 			page 29


 1362      6E697441 
 1362      72726179 
 1362      00
 1363              	.LASF35:
 1364 0069 666F7263 		.ascii	"forceMagEst\000"
 1364      654D6167 
 1364      45737400 
 1365              	.LASF18:
 1366 0075 666C6F61 		.ascii	"float\000"
 1366      7400
 1367              	.LASF42:
 1368 007b 474E5520 		.ascii	"GNU C 4.8.4 20140526 (release) [ARM/embedded-4_8-br"
 1368      4320342E 
 1368      382E3420 
 1368      32303134 
 1368      30353236 
 1369 00ae 616E6368 		.ascii	"anch revision 211358] -mcpu=cortex-m0 -mthumb -g -O"
 1369      20726576 
 1369      6973696F 
 1369      6E203231 
 1369      31333538 
 1370 00e1 30202D66 		.ascii	"0 -ffunction-sections\000"
 1370      66756E63 
 1370      74696F6E 
 1370      2D736563 
 1370      74696F6E 
 1371              	.LASF45:
 1372 00f7 72656164 		.ascii	"readI2CReg\000"
 1372      49324352 
 1372      656700
 1373              	.LASF1:
 1374 0102 756E7369 		.ascii	"unsigned char\000"
 1374      676E6564 
 1374      20636861 
 1374      7200
 1375              	.LASF27:
 1376 0110 696E6974 		.ascii	"initArray\000"
 1376      41727261 
 1376      7900
 1377              	.LASF17:
 1378 011a 696E7431 		.ascii	"int16\000"
 1378      3600
 1379              	.LASF31:
 1380 0120 6779726F 		.ascii	"gyroDataReadyInterrupt\000"
 1380      44617461 
 1380      52656164 
 1380      79496E74 
 1380      65727275 
 1381              	.LASF26:
 1382 0137 61646472 		.ascii	"addr\000"
 1382      00
 1383              	.LASF25:
 1384 013c 73657475 		.ascii	"setupI2CDevice\000"
 1384      70493243 
 1384      44657669 
 1384      636500
 1385              	.LASF44:
ARM GAS  C:\Users\Felix\AppData\Local\Temp\cc50rYoC.s 			page 30


 1386 014b 433A5C55 		.ascii	"C:\\Users\\Felix\\Git Repository\\E4PRJ4\\Implement"
 1386      73657273 
 1386      5C46656C 
 1386      69785C47 
 1386      69742052 
 1387 0179 6572696E 		.ascii	"ering\\Vuggesystem\\Vinkelsensor.cydsn\000"
 1387      675C5675 
 1387      67676573 
 1387      79737465 
 1387      6D5C5669 
 1388              	.LASF43:
 1389 019e 2E5C6D61 		.ascii	".\\main.c\000"
 1389      696E2E63 
 1389      00
 1390              	.LASF8:
 1391 01a7 6C6F6E67 		.ascii	"long unsigned int\000"
 1391      20756E73 
 1391      69676E65 
 1391      6420696E 
 1391      7400
 1392              	.LASF24:
 1393 01b9 6D61696E 		.ascii	"main\000"
 1393      00
 1394              	.LASF30:
 1395 01be 77726974 		.ascii	"writeI2CReg\000"
 1395      65493243 
 1395      52656700 
 1396              	.LASF16:
 1397 01ca 75696E74 		.ascii	"uint32\000"
 1397      333200
 1398              	.LASF11:
 1399 01d1 756E7369 		.ascii	"unsigned int\000"
 1399      676E6564 
 1399      20696E74 
 1399      00
 1400              	.LASF10:
 1401 01de 6C6F6E67 		.ascii	"long long unsigned int\000"
 1401      206C6F6E 
 1401      6720756E 
 1401      7369676E 
 1401      65642069 
 1402              	.LASF12:
 1403 01f5 75696E74 		.ascii	"uint8_t\000"
 1403      385F7400 
 1404              	.LASF37:
 1405 01fd 6779726F 		.ascii	"gyroInitArray\000"
 1405      496E6974 
 1405      41727261 
 1405      7900
 1406              	.LASF29:
 1407 020b 72657375 		.ascii	"result\000"
 1407      6C7400
 1408              	.LASF13:
 1409 0212 696E7431 		.ascii	"int16_t\000"
 1409      365F7400 
 1410              	.LASF14:
 1411 021a 696E7433 		.ascii	"int32_t\000"
ARM GAS  C:\Users\Felix\AppData\Local\Temp\cc50rYoC.s 			page 31


 1411      325F7400 
 1412              	.LASF22:
 1413 0222 73697A65 		.ascii	"sizetype\000"
 1413      74797065 
 1413      00
 1414              	.LASF9:
 1415 022b 6C6F6E67 		.ascii	"long long int\000"
 1415      206C6F6E 
 1415      6720696E 
 1415      7400
 1416              	.LASF20:
 1417 0239 63686172 		.ascii	"char\000"
 1417      00
 1418              	.LASF38:
 1419 023e 64617461 		.ascii	"dataReady\000"
 1419      52656164 
 1419      7900
 1420              	.LASF4:
 1421 0248 73686F72 		.ascii	"short int\000"
 1421      7420696E 
 1421      7400
 1422              	.LASF23:
 1423 0252 66697831 		.ascii	"fix16_t\000"
 1423      365F7400 
 1424              	.LASF40:
 1425 025a 6779726F 		.ascii	"gyroData\000"
 1425      44617461 
 1425      00
 1426              	.LASF7:
 1427 0263 6C6F6E67 		.ascii	"long int\000"
 1427      20696E74 
 1427      00
 1428              	.LASF33:
 1429 026c 72617741 		.ascii	"rawAccY\000"
 1429      63635900 
 1430              	.LASF34:
 1431 0274 72617741 		.ascii	"rawAccZ\000"
 1431      63635A00 
 1432              	.LASF0:
 1433 027c 7369676E 		.ascii	"signed char\000"
 1433      65642063 
 1433      68617200 
 1434              	.LASF32:
 1435 0288 72617747 		.ascii	"rawGyroX\000"
 1435      79726F58 
 1435      00
 1436              		.ident	"GCC: (GNU Tools for ARM Embedded Processors) 4.8.4 20140526 (release) [ARM/embedded-4_8-br
