ARM GAS  C:\Users\Jeppe\AppData\Local\Temp\cc6SmcUi.s 			page 1


   1              		.cpu cortex-m0
   2              		.fpu softvfp
   3              		.eabi_attribute 20, 1
   4              		.eabi_attribute 21, 1
   5              		.eabi_attribute 23, 3
   6              		.eabi_attribute 24, 1
   7              		.eabi_attribute 25, 1
   8              		.eabi_attribute 26, 1
   9              		.eabi_attribute 30, 6
  10              		.eabi_attribute 34, 0
  11              		.eabi_attribute 18, 4
  12              		.code	16
  13              		.file	"main.c"
  14              		.text
  15              	.Ltext0:
  16              		.cfi_sections	.debug_frame
  17              		.global	ready
  18              		.bss
  19              		.align	2
  20              		.type	ready, %object
  21              		.size	ready, 4
  22              	ready:
  23 0000 00000000 		.space	4
  24              		.section	.text.PWM_ISR,"ax",%progbits
  25              		.align	2
  26              		.global	PWM_ISR
  27              		.code	16
  28              		.thumb_func
  29              		.type	PWM_ISR, %function
  30              	PWM_ISR:
  31              	.LFB33:
  32              		.file 1 ".\\main.c"
   1:.\main.c      **** /* ========================================
   2:.\main.c      ****  *
   3:.\main.c      ****  * Copyright YOUR COMPANY, THE YEAR
   4:.\main.c      ****  * All Rights Reserved
   5:.\main.c      ****  * UNPUBLISHED, LICENSED SOFTWARE.
   6:.\main.c      ****  *
   7:.\main.c      ****  * CONFIDENTIAL AND PROPRIETARY INFORMATION
   8:.\main.c      ****  * WHICH IS THE PROPERTY OF your company.
   9:.\main.c      ****  *
  10:.\main.c      ****  * ========================================
  11:.\main.c      **** */
  12:.\main.c      **** #include <project.h>
  13:.\main.c      **** #include <fixedMath.h>
  14:.\main.c      **** #include <stdio.h>
  15:.\main.c      **** 
  16:.\main.c      **** #define ANGLE_INC 4120  // 2^17*Pi/200 = 2060 dvs f*2060 = AngINC
  17:.\main.c      **** #define DELAY_US 9961 //the delay added to the 38.5 us delay generated by the computations. sine fr
  18:.\main.c      **** #define SINE_PP 1966080 // 80 * 2^16 - the peak to peak value of the duty cycle sine in 16.16 fixed
  19:.\main.c      **** 
  20:.\main.c      **** int ready = 0;
  21:.\main.c      **** 
  22:.\main.c      **** CY_ISR(PWM_ISR)
  23:.\main.c      **** {   
  33              		.loc 1 23 0
  34              		.cfi_startproc
ARM GAS  C:\Users\Jeppe\AppData\Local\Temp\cc6SmcUi.s 			page 2


  35 0000 80B5     		push	{r7, lr}
  36              		.cfi_def_cfa_offset 8
  37              		.cfi_offset 7, -8
  38              		.cfi_offset 14, -4
  39 0002 00AF     		add	r7, sp, #0
  40              		.cfi_def_cfa_register 7
  24:.\main.c      ****     ready = 1;
  41              		.loc 1 24 0
  42 0004 024B     		ldr	r3, .L2
  43 0006 0122     		mov	r2, #1
  44 0008 1A60     		str	r2, [r3]
  25:.\main.c      **** }
  45              		.loc 1 25 0
  46 000a BD46     		mov	sp, r7
  47              		@ sp needed
  48 000c 80BD     		pop	{r7, pc}
  49              	.L3:
  50 000e C046     		.align	2
  51              	.L2:
  52 0010 00000000 		.word	ready
  53              		.cfi_endproc
  54              	.LFE33:
  55              		.size	PWM_ISR, .-PWM_ISR
  56              		.section	.rodata
  57              		.align	2
  58              	.LC1:
  59 0000 57656C63 		.ascii	"Welcome to Baby Watch: Vuggesystem - Vuggetest\015\012"
  59      6F6D6520 
  59      746F2042 
  59      61627920 
  59      57617463 
  60 0030 00       		.ascii	"\000"
  61 0031 000000   		.align	2
  62              	.LC4:
  63 0034 52756E6E 		.ascii	"Running test\015\012\012\000"
  63      696E6720 
  63      74657374 
  63      0D0A0A00 
  64              		.align	2
  65              	.LC7:
  66 0044 25642C20 		.ascii	"%d, \000"
  66      00
  67 0049 000000   		.section	.text.main,"ax",%progbits
  68              		.align	2
  69              		.global	main
  70              		.code	16
  71              		.thumb_func
  72              		.type	main, %function
  73              	main:
  74              	.LFB34:
  26:.\main.c      **** 
  27:.\main.c      **** 
  28:.\main.c      **** int main()
  29:.\main.c      **** {
  75              		.loc 1 29 0
  76              		.cfi_startproc
  77 0000 80B5     		push	{r7, lr}
ARM GAS  C:\Users\Jeppe\AppData\Local\Temp\cc6SmcUi.s 			page 3


  78              		.cfi_def_cfa_offset 8
  79              		.cfi_offset 7, -8
  80              		.cfi_offset 14, -4
  81 0002 84B0     		sub	sp, sp, #16
  82              		.cfi_def_cfa_offset 24
  83 0004 00AF     		add	r7, sp, #0
  84              		.cfi_def_cfa_register 7
  30:.\main.c      ****     /* Place your initialization/startup code here (e.g. MyInst_Start()) */
  31:.\main.c      ****     UART_Start();
  85              		.loc 1 31 0
  86 0006 FFF7FEFF 		bl	UART_Start
  32:.\main.c      ****     UART_UartPutString("Welcome to Baby Watch: Vuggesystem - Vuggetest\r\n");
  87              		.loc 1 32 0
  88 000a 3E4B     		ldr	r3, .L11
  89 000c 181C     		mov	r0, r3
  90 000e FFF7FEFF 		bl	UART_UartPutString
  33:.\main.c      ****     PWM_Start();
  91              		.loc 1 33 0
  92 0012 FFF7FEFF 		bl	PWM_Start
  34:.\main.c      ****     Timer_Start();
  93              		.loc 1 34 0
  94 0016 FFF7FEFF 		bl	Timer_Start
  35:.\main.c      ****     
  36:.\main.c      ****     CyGlobalIntEnable; /* Uncomment this line to enable global interrupts. */
  95              		.loc 1 36 0
  96              	@ 36 ".\main.c" 1
  97 001a 62B6     		CPSIE   i
  98              	@ 0 "" 2
  37:.\main.c      ****     isr_1_StartEx(PWM_ISR);
  99              		.loc 1 37 0
 100              		.code	16
 101 001c 3A4B     		ldr	r3, .L11+4
 102 001e 181C     		mov	r0, r3
 103 0020 FFF7FEFF 		bl	isr_1_StartEx
  38:.\main.c      ****     
  39:.\main.c      ****     
  40:.\main.c      ****     /* Place your application code here. */
  41:.\main.c      ****         
  42:.\main.c      ****     UART_UartPutString("Running test\r\n\n");
 104              		.loc 1 42 0
 105 0024 394B     		ldr	r3, .L11+8
 106 0026 181C     		mov	r0, r3
 107 0028 FFF7FEFF 		bl	UART_UartPutString
  43:.\main.c      ****     fix16_t i = 0;
 108              		.loc 1 43 0
 109 002c 0023     		mov	r3, #0
 110 002e FB60     		str	r3, [r7, #12]
  44:.\main.c      ****     uint8_t going_up = 1;
 111              		.loc 1 44 0
 112 0030 3B1C     		mov	r3, r7
 113 0032 0B33     		add	r3, r3, #11
 114 0034 0122     		mov	r2, #1
 115 0036 1A70     		strb	r2, [r3]
 116              	.L10:
 117              	.LBB2:
  45:.\main.c      **** 
  46:.\main.c      ****     while(1)
ARM GAS  C:\Users\Jeppe\AppData\Local\Temp\cc6SmcUi.s 			page 4


  47:.\main.c      ****     {
  48:.\main.c      ****         CyPins_ClearPin(ISR_Pin_0);
 118              		.loc 1 48 0
 119 0038 354B     		ldr	r3, .L11+12
 120 003a 354A     		ldr	r2, .L11+12
 121 003c 1268     		ldr	r2, [r2]
 122 003e 0121     		mov	r1, #1
 123 0040 8A43     		bic	r2, r1
 124 0042 1A60     		str	r2, [r3]
  49:.\main.c      ****        
  50:.\main.c      ****         while(!ready);
 125              		.loc 1 50 0
 126 0044 C046     		mov	r8, r8
 127              	.L5:
 128              		.loc 1 50 0 is_stmt 0 discriminator 1
 129 0046 334B     		ldr	r3, .L11+16
 130 0048 1B68     		ldr	r3, [r3]
 131 004a 002B     		cmp	r3, #0
 132 004c FBD0     		beq	.L5
  51:.\main.c      ****         CyPins_SetPin(ISR_Pin_0);   
 133              		.loc 1 51 0 is_stmt 1
 134 004e 304B     		ldr	r3, .L11+12
 135 0050 2F4A     		ldr	r2, .L11+12
 136 0052 1268     		ldr	r2, [r2]
 137 0054 0121     		mov	r1, #1
 138 0056 0A43     		orr	r2, r1
 139 0058 1A60     		str	r2, [r3]
  52:.\main.c      ****     
  53:.\main.c      ****         uint8_t comp = (fix16mul(SINE_PP, fix16sin(i))>>16) + 100; //80*sin(i) + 100 done in fixed 
 140              		.loc 1 53 0
 141 005a FB68     		ldr	r3, [r7, #12]
 142 005c 181C     		mov	r0, r3
 143 005e FFF7FEFF 		bl	fix16sin
 144 0062 031C     		mov	r3, r0
 145 0064 F022     		mov	r2, #240
 146 0066 5203     		lsl	r2, r2, #13
 147 0068 101C     		mov	r0, r2
 148 006a 191C     		mov	r1, r3
 149 006c FFF7FEFF 		bl	fix16mul
 150 0070 031C     		mov	r3, r0
 151 0072 1B14     		asr	r3, r3, #16
 152 0074 DAB2     		uxtb	r2, r3
 153 0076 3B1C     		mov	r3, r7
 154 0078 0A33     		add	r3, r3, #10
 155 007a 6432     		add	r2, r2, #100
 156 007c 1A70     		strb	r2, [r3]
  54:.\main.c      ****         char str[10];
  55:.\main.c      ****         sprintf(str, "%d, ", comp);
 157              		.loc 1 55 0
 158 007e 3B1C     		mov	r3, r7
 159 0080 0A33     		add	r3, r3, #10
 160 0082 1B78     		ldrb	r3, [r3]
 161 0084 391C     		mov	r1, r7
 162 0086 244A     		ldr	r2, .L11+20
 163 0088 081C     		mov	r0, r1
 164 008a 111C     		mov	r1, r2
 165 008c 1A1C     		mov	r2, r3
ARM GAS  C:\Users\Jeppe\AppData\Local\Temp\cc6SmcUi.s 			page 5


 166 008e FFF7FEFF 		bl	sprintf
  56:.\main.c      ****         UART_UartPutString(str);
 167              		.loc 1 56 0
 168 0092 3B1C     		mov	r3, r7
 169 0094 181C     		mov	r0, r3
 170 0096 FFF7FEFF 		bl	UART_UartPutString
  57:.\main.c      ****         PWM_WriteCompare(comp);
 171              		.loc 1 57 0
 172 009a 3B1C     		mov	r3, r7
 173 009c 0A33     		add	r3, r3, #10
 174 009e 1B78     		ldrb	r3, [r3]
 175 00a0 181C     		mov	r0, r3
 176 00a2 FFF7FEFF 		bl	PWM_WriteCompare
  58:.\main.c      ****         //CyDelayUs(DELAY_US);
  59:.\main.c      **** 
  60:.\main.c      ****         if(i >= half_pi)
 177              		.loc 1 60 0
 178 00a6 FA68     		ldr	r2, [r7, #12]
 179 00a8 1C4B     		ldr	r3, .L11+24
 180 00aa 9A42     		cmp	r2, r3
 181 00ac 0ADD     		ble	.L6
  61:.\main.c      ****         {
  62:.\main.c      ****             going_up = 0;
 182              		.loc 1 62 0
 183 00ae 3B1C     		mov	r3, r7
 184 00b0 0B33     		add	r3, r3, #11
 185 00b2 0022     		mov	r2, #0
 186 00b4 1A70     		strb	r2, [r3]
  63:.\main.c      ****             CyPins_SetPin(Pin_1_0);
 187              		.loc 1 63 0
 188 00b6 164B     		ldr	r3, .L11+12
 189 00b8 154A     		ldr	r2, .L11+12
 190 00ba 1268     		ldr	r2, [r2]
 191 00bc 0421     		mov	r1, #4
 192 00be 0A43     		orr	r2, r1
 193 00c0 1A60     		str	r2, [r3]
 194 00c2 0DE0     		b	.L7
 195              	.L6:
  64:.\main.c      ****         } 
  65:.\main.c      ****         else if (i <= -half_pi)
 196              		.loc 1 65 0
 197 00c4 FA68     		ldr	r2, [r7, #12]
 198 00c6 164B     		ldr	r3, .L11+28
 199 00c8 9A42     		cmp	r2, r3
 200 00ca 09DA     		bge	.L7
  66:.\main.c      ****         {
  67:.\main.c      ****             going_up = 1;
 201              		.loc 1 67 0
 202 00cc 3B1C     		mov	r3, r7
 203 00ce 0B33     		add	r3, r3, #11
 204 00d0 0122     		mov	r2, #1
 205 00d2 1A70     		strb	r2, [r3]
  68:.\main.c      ****             CyPins_ClearPin(Pin_1_0);
 206              		.loc 1 68 0
 207 00d4 0E4B     		ldr	r3, .L11+12
 208 00d6 0E4A     		ldr	r2, .L11+12
 209 00d8 1268     		ldr	r2, [r2]
ARM GAS  C:\Users\Jeppe\AppData\Local\Temp\cc6SmcUi.s 			page 6


 210 00da 0421     		mov	r1, #4
 211 00dc 8A43     		bic	r2, r1
 212 00de 1A60     		str	r2, [r3]
 213              	.L7:
  69:.\main.c      ****         }
  70:.\main.c      ****         
  71:.\main.c      ****         if(going_up)  i += ANGLE_INC;
 214              		.loc 1 71 0
 215 00e0 3B1C     		mov	r3, r7
 216 00e2 0B33     		add	r3, r3, #11
 217 00e4 1B78     		ldrb	r3, [r3]
 218 00e6 002B     		cmp	r3, #0
 219 00e8 04D0     		beq	.L8
 220              		.loc 1 71 0 is_stmt 0 discriminator 1
 221 00ea FB68     		ldr	r3, [r7, #12]
 222 00ec 0D4A     		ldr	r2, .L11+32
 223 00ee 9B18     		add	r3, r3, r2
 224 00f0 FB60     		str	r3, [r7, #12]
 225 00f2 03E0     		b	.L9
 226              	.L8:
  72:.\main.c      ****         else          i -= ANGLE_INC;
 227              		.loc 1 72 0 is_stmt 1
 228 00f4 FB68     		ldr	r3, [r7, #12]
 229 00f6 0C4A     		ldr	r2, .L11+36
 230 00f8 9B18     		add	r3, r3, r2
 231 00fa FB60     		str	r3, [r7, #12]
 232              	.L9:
  73:.\main.c      ****     
  74:.\main.c      ****         ready = 0;
 233              		.loc 1 74 0
 234 00fc 054B     		ldr	r3, .L11+16
 235 00fe 0022     		mov	r2, #0
 236 0100 1A60     		str	r2, [r3]
 237              	.LBE2:
  75:.\main.c      ****     }
 238              		.loc 1 75 0
 239 0102 99E7     		b	.L10
 240              	.L12:
 241              		.align	2
 242              	.L11:
 243 0104 00000000 		.word	.LC1
 244 0108 00000000 		.word	PWM_ISR
 245 010c 34000000 		.word	.LC4
 246 0110 00000440 		.word	1074003968
 247 0114 00000000 		.word	ready
 248 0118 44000000 		.word	.LC7
 249 011c 1E920100 		.word	102942
 250 0120 E26DFEFF 		.word	-102942
 251 0124 18100000 		.word	4120
 252 0128 E8EFFFFF 		.word	-4120
 253              		.cfi_endproc
 254              	.LFE34:
 255              		.size	main, .-main
 256              		.text
 257              	.Letext0:
 258              		.file 2 "c:\\program files (x86)\\cypress\\psoc creator\\3.1\\psoc creator\\import\\gnu_cs\\arm\\4
 259              		.file 3 "c:\\program files (x86)\\cypress\\psoc creator\\3.1\\psoc creator\\import\\gnu_cs\\arm\\4
ARM GAS  C:\Users\Jeppe\AppData\Local\Temp\cc6SmcUi.s 			page 7


 260              		.file 4 ".\\Generated_Source\\PSoC4/cytypes.h"
 261              		.file 5 "./fixedMath.h"