ARM GAS  C:\Users\Felix\AppData\Local\Temp\ccbIGpaW.s 			page 1


   1              		.cpu cortex-m0
   2              		.fpu softvfp
   3              		.eabi_attribute 20, 1
   4              		.eabi_attribute 21, 1
   5              		.eabi_attribute 23, 3
   6              		.eabi_attribute 24, 1
   7              		.eabi_attribute 25, 1
   8              		.eabi_attribute 26, 1
   9              		.eabi_attribute 30, 6
  10              		.eabi_attribute 34, 0
  11              		.eabi_attribute 18, 4
  12              		.code	16
  13              		.file	"DATA_TIMER.c"
  14              		.text
  15              	.Ltext0:
  16              		.cfi_sections	.debug_frame
  17              		.global	DATA_TIMER_initVar
  18              		.bss
  19              		.type	DATA_TIMER_initVar, %object
  20              		.size	DATA_TIMER_initVar, 1
  21              	DATA_TIMER_initVar:
  22 0000 00       		.space	1
  23              		.section	.text.DATA_TIMER_Init,"ax",%progbits
  24              		.align	2
  25              		.global	DATA_TIMER_Init
  26              		.code	16
  27              		.thumb_func
  28              		.type	DATA_TIMER_Init, %function
  29              	DATA_TIMER_Init:
  30              	.LFB0:
  31              		.file 1 ".\\Generated_Source\\PSoC4\\DATA_TIMER.c"
   1:.\Generated_Source\PSoC4/DATA_TIMER.c **** /*******************************************************************************
   2:.\Generated_Source\PSoC4/DATA_TIMER.c **** * File Name: DATA_TIMER.c
   3:.\Generated_Source\PSoC4/DATA_TIMER.c **** * Version 2.70
   4:.\Generated_Source\PSoC4/DATA_TIMER.c **** *
   5:.\Generated_Source\PSoC4/DATA_TIMER.c **** * Description:
   6:.\Generated_Source\PSoC4/DATA_TIMER.c **** *  The Timer component consists of a 8, 16, 24 or 32-bit timer with
   7:.\Generated_Source\PSoC4/DATA_TIMER.c **** *  a selectable period between 2 and 2^Width - 1.  The timer may free run
   8:.\Generated_Source\PSoC4/DATA_TIMER.c **** *  or be used as a capture timer as well.  The capture can be initiated
   9:.\Generated_Source\PSoC4/DATA_TIMER.c **** *  by a positive or negative edge signal as well as via software.
  10:.\Generated_Source\PSoC4/DATA_TIMER.c **** *  A trigger input can be programmed to enable the timer on rising edge
  11:.\Generated_Source\PSoC4/DATA_TIMER.c **** *  falling edge, either edge or continous run.
  12:.\Generated_Source\PSoC4/DATA_TIMER.c **** *  Interrupts may be generated due to a terminal count condition
  13:.\Generated_Source\PSoC4/DATA_TIMER.c **** *  or a capture event.
  14:.\Generated_Source\PSoC4/DATA_TIMER.c **** *
  15:.\Generated_Source\PSoC4/DATA_TIMER.c **** * Note:
  16:.\Generated_Source\PSoC4/DATA_TIMER.c **** *
  17:.\Generated_Source\PSoC4/DATA_TIMER.c **** ********************************************************************************
  18:.\Generated_Source\PSoC4/DATA_TIMER.c **** * Copyright 2008-2014, Cypress Semiconductor Corporation.  All rights reserved.
  19:.\Generated_Source\PSoC4/DATA_TIMER.c **** * You may use this file only in accordance with the license, terms, conditions,
  20:.\Generated_Source\PSoC4/DATA_TIMER.c **** * disclaimers, and limitations in the end user license agreement accompanying
  21:.\Generated_Source\PSoC4/DATA_TIMER.c **** * the software package with which this file was provided.
  22:.\Generated_Source\PSoC4/DATA_TIMER.c **** ********************************************************************************/
  23:.\Generated_Source\PSoC4/DATA_TIMER.c **** 
  24:.\Generated_Source\PSoC4/DATA_TIMER.c **** #include "DATA_TIMER.h"
  25:.\Generated_Source\PSoC4/DATA_TIMER.c **** 
  26:.\Generated_Source\PSoC4/DATA_TIMER.c **** uint8 DATA_TIMER_initVar = 0u;
ARM GAS  C:\Users\Felix\AppData\Local\Temp\ccbIGpaW.s 			page 2


  27:.\Generated_Source\PSoC4/DATA_TIMER.c **** 
  28:.\Generated_Source\PSoC4/DATA_TIMER.c **** 
  29:.\Generated_Source\PSoC4/DATA_TIMER.c **** /*******************************************************************************
  30:.\Generated_Source\PSoC4/DATA_TIMER.c **** * Function Name: DATA_TIMER_Init
  31:.\Generated_Source\PSoC4/DATA_TIMER.c **** ********************************************************************************
  32:.\Generated_Source\PSoC4/DATA_TIMER.c **** *
  33:.\Generated_Source\PSoC4/DATA_TIMER.c **** * Summary:
  34:.\Generated_Source\PSoC4/DATA_TIMER.c **** *  Initialize to the schematic state
  35:.\Generated_Source\PSoC4/DATA_TIMER.c **** *
  36:.\Generated_Source\PSoC4/DATA_TIMER.c **** * Parameters:
  37:.\Generated_Source\PSoC4/DATA_TIMER.c **** *  void
  38:.\Generated_Source\PSoC4/DATA_TIMER.c **** *
  39:.\Generated_Source\PSoC4/DATA_TIMER.c **** * Return:
  40:.\Generated_Source\PSoC4/DATA_TIMER.c **** *  void
  41:.\Generated_Source\PSoC4/DATA_TIMER.c **** *
  42:.\Generated_Source\PSoC4/DATA_TIMER.c **** *******************************************************************************/
  43:.\Generated_Source\PSoC4/DATA_TIMER.c **** void DATA_TIMER_Init(void) 
  44:.\Generated_Source\PSoC4/DATA_TIMER.c **** {
  32              		.loc 1 44 0
  33              		.cfi_startproc
  34 0000 90B5     		push	{r4, r7, lr}
  35              		.cfi_def_cfa_offset 12
  36              		.cfi_offset 4, -12
  37              		.cfi_offset 7, -8
  38              		.cfi_offset 14, -4
  39 0002 83B0     		sub	sp, sp, #12
  40              		.cfi_def_cfa_offset 24
  41 0004 00AF     		add	r7, sp, #0
  42              		.cfi_def_cfa_register 7
  45:.\Generated_Source\PSoC4/DATA_TIMER.c ****     #if(!DATA_TIMER_UsingFixedFunction)
  46:.\Generated_Source\PSoC4/DATA_TIMER.c ****             /* Interrupt State Backup for Critical Region*/
  47:.\Generated_Source\PSoC4/DATA_TIMER.c ****             uint8 DATA_TIMER_interruptState;
  48:.\Generated_Source\PSoC4/DATA_TIMER.c ****     #endif /* Interrupt state back up for Fixed Function only */
  49:.\Generated_Source\PSoC4/DATA_TIMER.c **** 
  50:.\Generated_Source\PSoC4/DATA_TIMER.c ****     #if (DATA_TIMER_UsingFixedFunction)
  51:.\Generated_Source\PSoC4/DATA_TIMER.c ****         /* Clear all bits but the enable bit (if it's already set) for Timer operation */
  52:.\Generated_Source\PSoC4/DATA_TIMER.c ****         DATA_TIMER_CONTROL &= DATA_TIMER_CTRL_ENABLE;
  53:.\Generated_Source\PSoC4/DATA_TIMER.c **** 
  54:.\Generated_Source\PSoC4/DATA_TIMER.c ****         /* Clear the mode bits for continuous run mode */
  55:.\Generated_Source\PSoC4/DATA_TIMER.c ****         #if (CY_PSOC5A)
  56:.\Generated_Source\PSoC4/DATA_TIMER.c ****             DATA_TIMER_CONTROL2 &= ((uint8)(~DATA_TIMER_CTRL_MODE_MASK));
  57:.\Generated_Source\PSoC4/DATA_TIMER.c ****         #endif /* Clear bits in CONTROL2 only in PSOC5A */
  58:.\Generated_Source\PSoC4/DATA_TIMER.c **** 
  59:.\Generated_Source\PSoC4/DATA_TIMER.c ****         #if (CY_PSOC3 || CY_PSOC5LP)
  60:.\Generated_Source\PSoC4/DATA_TIMER.c ****             DATA_TIMER_CONTROL3 &= ((uint8)(~DATA_TIMER_CTRL_MODE_MASK));
  61:.\Generated_Source\PSoC4/DATA_TIMER.c ****         #endif /* CONTROL3 register exists only in PSoC3 OR PSoC5LP */
  62:.\Generated_Source\PSoC4/DATA_TIMER.c **** 
  63:.\Generated_Source\PSoC4/DATA_TIMER.c ****         /* Check if One Shot mode is enabled i.e. RunMode !=0*/
  64:.\Generated_Source\PSoC4/DATA_TIMER.c ****         #if (DATA_TIMER_RunModeUsed != 0x0u)
  65:.\Generated_Source\PSoC4/DATA_TIMER.c ****             /* Set 3rd bit of Control register to enable one shot mode */
  66:.\Generated_Source\PSoC4/DATA_TIMER.c ****             DATA_TIMER_CONTROL |= 0x04u;
  67:.\Generated_Source\PSoC4/DATA_TIMER.c ****         #endif /* One Shot enabled only when RunModeUsed is not Continuous*/
  68:.\Generated_Source\PSoC4/DATA_TIMER.c **** 
  69:.\Generated_Source\PSoC4/DATA_TIMER.c ****         #if (DATA_TIMER_RunModeUsed == 2)
  70:.\Generated_Source\PSoC4/DATA_TIMER.c ****             #if (CY_PSOC5A)
  71:.\Generated_Source\PSoC4/DATA_TIMER.c ****                 /* Set last 2 bits of control2 register if one shot(halt on
  72:.\Generated_Source\PSoC4/DATA_TIMER.c ****                 interrupt) is enabled*/
ARM GAS  C:\Users\Felix\AppData\Local\Temp\ccbIGpaW.s 			page 3


  73:.\Generated_Source\PSoC4/DATA_TIMER.c ****                 DATA_TIMER_CONTROL2 |= 0x03u;
  74:.\Generated_Source\PSoC4/DATA_TIMER.c ****             #endif /* Set One-Shot Halt on Interrupt bit in CONTROL2 for PSoC5A */
  75:.\Generated_Source\PSoC4/DATA_TIMER.c **** 
  76:.\Generated_Source\PSoC4/DATA_TIMER.c ****             #if (CY_PSOC3 || CY_PSOC5LP)
  77:.\Generated_Source\PSoC4/DATA_TIMER.c ****                 /* Set last 2 bits of control3 register if one shot(halt on
  78:.\Generated_Source\PSoC4/DATA_TIMER.c ****                 interrupt) is enabled*/
  79:.\Generated_Source\PSoC4/DATA_TIMER.c ****                 DATA_TIMER_CONTROL3 |= 0x03u;
  80:.\Generated_Source\PSoC4/DATA_TIMER.c ****             #endif /* Set One-Shot Halt on Interrupt bit in CONTROL3 for PSoC3 or PSoC5LP */
  81:.\Generated_Source\PSoC4/DATA_TIMER.c **** 
  82:.\Generated_Source\PSoC4/DATA_TIMER.c ****         #endif /* Remove section if One Shot Halt on Interrupt is not enabled */
  83:.\Generated_Source\PSoC4/DATA_TIMER.c **** 
  84:.\Generated_Source\PSoC4/DATA_TIMER.c ****         #if (DATA_TIMER_UsingHWEnable != 0)
  85:.\Generated_Source\PSoC4/DATA_TIMER.c ****             #if (CY_PSOC5A)
  86:.\Generated_Source\PSoC4/DATA_TIMER.c ****                 /* Set the default Run Mode of the Timer to Continuous */
  87:.\Generated_Source\PSoC4/DATA_TIMER.c ****                 DATA_TIMER_CONTROL2 |= DATA_TIMER_CTRL_MODE_PULSEWIDTH;
  88:.\Generated_Source\PSoC4/DATA_TIMER.c ****             #endif /* Set Continuous Run Mode in CONTROL2 for PSoC5A */
  89:.\Generated_Source\PSoC4/DATA_TIMER.c **** 
  90:.\Generated_Source\PSoC4/DATA_TIMER.c ****             #if (CY_PSOC3 || CY_PSOC5LP)
  91:.\Generated_Source\PSoC4/DATA_TIMER.c ****                 /* Clear and Set ROD and COD bits of CFG2 register */
  92:.\Generated_Source\PSoC4/DATA_TIMER.c ****                 DATA_TIMER_CONTROL3 &= ((uint8)(~DATA_TIMER_CTRL_RCOD_MASK));
  93:.\Generated_Source\PSoC4/DATA_TIMER.c ****                 DATA_TIMER_CONTROL3 |= DATA_TIMER_CTRL_RCOD;
  94:.\Generated_Source\PSoC4/DATA_TIMER.c **** 
  95:.\Generated_Source\PSoC4/DATA_TIMER.c ****                 /* Clear and Enable the HW enable bit in CFG2 register */
  96:.\Generated_Source\PSoC4/DATA_TIMER.c ****                 DATA_TIMER_CONTROL3 &= ((uint8)(~DATA_TIMER_CTRL_ENBL_MASK));
  97:.\Generated_Source\PSoC4/DATA_TIMER.c ****                 DATA_TIMER_CONTROL3 |= DATA_TIMER_CTRL_ENBL;
  98:.\Generated_Source\PSoC4/DATA_TIMER.c **** 
  99:.\Generated_Source\PSoC4/DATA_TIMER.c ****                 /* Set the default Run Mode of the Timer to Continuous */
 100:.\Generated_Source\PSoC4/DATA_TIMER.c ****                 DATA_TIMER_CONTROL3 |= DATA_TIMER_CTRL_MODE_CONTINUOUS;
 101:.\Generated_Source\PSoC4/DATA_TIMER.c ****             #endif /* Set Continuous Run Mode in CONTROL3 for PSoC3ES3 or PSoC5A */
 102:.\Generated_Source\PSoC4/DATA_TIMER.c **** 
 103:.\Generated_Source\PSoC4/DATA_TIMER.c ****         #endif /* Configure Run Mode with hardware enable */
 104:.\Generated_Source\PSoC4/DATA_TIMER.c **** 
 105:.\Generated_Source\PSoC4/DATA_TIMER.c ****         /* Clear and Set SYNCTC and SYNCCMP bits of RT1 register */
 106:.\Generated_Source\PSoC4/DATA_TIMER.c ****         DATA_TIMER_RT1 &= ((uint8)(~DATA_TIMER_RT1_MASK));
 107:.\Generated_Source\PSoC4/DATA_TIMER.c ****         DATA_TIMER_RT1 |= DATA_TIMER_SYNC;
 108:.\Generated_Source\PSoC4/DATA_TIMER.c **** 
 109:.\Generated_Source\PSoC4/DATA_TIMER.c ****         /*Enable DSI Sync all all inputs of the Timer*/
 110:.\Generated_Source\PSoC4/DATA_TIMER.c ****         DATA_TIMER_RT1 &= ((uint8)(~DATA_TIMER_SYNCDSI_MASK));
 111:.\Generated_Source\PSoC4/DATA_TIMER.c ****         DATA_TIMER_RT1 |= DATA_TIMER_SYNCDSI_EN;
 112:.\Generated_Source\PSoC4/DATA_TIMER.c **** 
 113:.\Generated_Source\PSoC4/DATA_TIMER.c ****         /* Set the IRQ to use the status register interrupts */
 114:.\Generated_Source\PSoC4/DATA_TIMER.c ****         DATA_TIMER_CONTROL2 |= DATA_TIMER_CTRL2_IRQ_SEL;
 115:.\Generated_Source\PSoC4/DATA_TIMER.c ****     #endif /* Configuring registers of fixed function implementation */
 116:.\Generated_Source\PSoC4/DATA_TIMER.c **** 
 117:.\Generated_Source\PSoC4/DATA_TIMER.c ****     /* Set Initial values from Configuration */
 118:.\Generated_Source\PSoC4/DATA_TIMER.c ****     DATA_TIMER_WritePeriod(DATA_TIMER_INIT_PERIOD);
  43              		.loc 1 118 0
  44 0006 114B     		ldr	r3, .L2
  45 0008 181C     		mov	r0, r3
  46 000a FFF7FEFF 		bl	DATA_TIMER_WritePeriod
 119:.\Generated_Source\PSoC4/DATA_TIMER.c ****     DATA_TIMER_WriteCounter(DATA_TIMER_INIT_PERIOD);
  47              		.loc 1 119 0
  48 000e 0F4B     		ldr	r3, .L2
  49 0010 181C     		mov	r0, r3
  50 0012 FFF7FEFF 		bl	DATA_TIMER_WriteCounter
 120:.\Generated_Source\PSoC4/DATA_TIMER.c **** 
 121:.\Generated_Source\PSoC4/DATA_TIMER.c ****     #if (DATA_TIMER_UsingHWCaptureCounter)/* Capture counter is enabled */
ARM GAS  C:\Users\Felix\AppData\Local\Temp\ccbIGpaW.s 			page 4


 122:.\Generated_Source\PSoC4/DATA_TIMER.c ****         DATA_TIMER_CAPTURE_COUNT_CTRL |= DATA_TIMER_CNTR_ENABLE;
 123:.\Generated_Source\PSoC4/DATA_TIMER.c ****         DATA_TIMER_SetCaptureCount(DATA_TIMER_INIT_CAPTURE_COUNT);
 124:.\Generated_Source\PSoC4/DATA_TIMER.c ****     #endif /* Configure capture counter value */
 125:.\Generated_Source\PSoC4/DATA_TIMER.c **** 
 126:.\Generated_Source\PSoC4/DATA_TIMER.c ****     #if (!DATA_TIMER_UsingFixedFunction)
 127:.\Generated_Source\PSoC4/DATA_TIMER.c ****         #if (DATA_TIMER_SoftwareCaptureMode)
 128:.\Generated_Source\PSoC4/DATA_TIMER.c ****             DATA_TIMER_SetCaptureMode(DATA_TIMER_INIT_CAPTURE_MODE);
 129:.\Generated_Source\PSoC4/DATA_TIMER.c ****         #endif /* Set Capture Mode for UDB implementation if capture mode is software controlled */
 130:.\Generated_Source\PSoC4/DATA_TIMER.c **** 
 131:.\Generated_Source\PSoC4/DATA_TIMER.c ****         #if (DATA_TIMER_SoftwareTriggerMode)
 132:.\Generated_Source\PSoC4/DATA_TIMER.c ****             #if (!DATA_TIMER_UDB_CONTROL_REG_REMOVED)
 133:.\Generated_Source\PSoC4/DATA_TIMER.c ****                 if (0u == (DATA_TIMER_CONTROL & DATA_TIMER__B_TIMER__TM_SOFTWARE))
 134:.\Generated_Source\PSoC4/DATA_TIMER.c ****                 {
 135:.\Generated_Source\PSoC4/DATA_TIMER.c ****                     DATA_TIMER_SetTriggerMode(DATA_TIMER_INIT_TRIGGER_MODE);
 136:.\Generated_Source\PSoC4/DATA_TIMER.c ****                 }
 137:.\Generated_Source\PSoC4/DATA_TIMER.c ****             #endif /* (!DATA_TIMER_UDB_CONTROL_REG_REMOVED) */
 138:.\Generated_Source\PSoC4/DATA_TIMER.c ****         #endif /* Set trigger mode for UDB Implementation if trigger mode is software controlled */
 139:.\Generated_Source\PSoC4/DATA_TIMER.c **** 
 140:.\Generated_Source\PSoC4/DATA_TIMER.c ****         /* CyEnterCriticalRegion and CyExitCriticalRegion are used to mark following region critica
 141:.\Generated_Source\PSoC4/DATA_TIMER.c ****         /* Enter Critical Region*/
 142:.\Generated_Source\PSoC4/DATA_TIMER.c ****         DATA_TIMER_interruptState = CyEnterCriticalSection();
  51              		.loc 1 142 0
  52 0016 FC1D     		add	r4, r7, #7
  53 0018 FFF7FEFF 		bl	CyEnterCriticalSection
  54 001c 031C     		mov	r3, r0
  55 001e 2370     		strb	r3, [r4]
 143:.\Generated_Source\PSoC4/DATA_TIMER.c **** 
 144:.\Generated_Source\PSoC4/DATA_TIMER.c ****         /* Use the interrupt output of the status register for IRQ output */
 145:.\Generated_Source\PSoC4/DATA_TIMER.c ****         DATA_TIMER_STATUS_AUX_CTRL |= DATA_TIMER_STATUS_ACTL_INT_EN_MASK;
  56              		.loc 1 145 0
  57 0020 0B4B     		ldr	r3, .L2+4
  58 0022 0B4A     		ldr	r2, .L2+4
  59 0024 1278     		ldrb	r2, [r2]
  60 0026 D2B2     		uxtb	r2, r2
  61 0028 1021     		mov	r1, #16
  62 002a 0A43     		orr	r2, r1
  63 002c D2B2     		uxtb	r2, r2
  64 002e 1A70     		strb	r2, [r3]
 146:.\Generated_Source\PSoC4/DATA_TIMER.c **** 
 147:.\Generated_Source\PSoC4/DATA_TIMER.c ****         /* Exit Critical Region*/
 148:.\Generated_Source\PSoC4/DATA_TIMER.c ****         CyExitCriticalSection(DATA_TIMER_interruptState);
  65              		.loc 1 148 0
  66 0030 FB1D     		add	r3, r7, #7
  67 0032 1B78     		ldrb	r3, [r3]
  68 0034 181C     		mov	r0, r3
  69 0036 FFF7FEFF 		bl	CyExitCriticalSection
 149:.\Generated_Source\PSoC4/DATA_TIMER.c **** 
 150:.\Generated_Source\PSoC4/DATA_TIMER.c ****         #if (DATA_TIMER_EnableTriggerMode)
 151:.\Generated_Source\PSoC4/DATA_TIMER.c ****             DATA_TIMER_EnableTrigger();
 152:.\Generated_Source\PSoC4/DATA_TIMER.c ****         #endif /* Set Trigger enable bit for UDB implementation in the control register*/
 153:.\Generated_Source\PSoC4/DATA_TIMER.c **** 		
 154:.\Generated_Source\PSoC4/DATA_TIMER.c **** 		
 155:.\Generated_Source\PSoC4/DATA_TIMER.c ****         #if (DATA_TIMER_InterruptOnCaptureCount && !DATA_TIMER_UDB_CONTROL_REG_REMOVED)
 156:.\Generated_Source\PSoC4/DATA_TIMER.c ****             DATA_TIMER_SetInterruptCount(DATA_TIMER_INIT_INT_CAPTURE_COUNT);
 157:.\Generated_Source\PSoC4/DATA_TIMER.c ****         #endif /* Set interrupt count in UDB implementation if interrupt count feature is checked.*
 158:.\Generated_Source\PSoC4/DATA_TIMER.c **** 
 159:.\Generated_Source\PSoC4/DATA_TIMER.c ****         DATA_TIMER_ClearFIFO();
ARM GAS  C:\Users\Felix\AppData\Local\Temp\ccbIGpaW.s 			page 5


  70              		.loc 1 159 0
  71 003a FFF7FEFF 		bl	DATA_TIMER_ClearFIFO
 160:.\Generated_Source\PSoC4/DATA_TIMER.c ****     #endif /* Configure additional features of UDB implementation */
 161:.\Generated_Source\PSoC4/DATA_TIMER.c **** 
 162:.\Generated_Source\PSoC4/DATA_TIMER.c ****     DATA_TIMER_SetInterruptMode(DATA_TIMER_INIT_INTERRUPT_MODE);
  72              		.loc 1 162 0
  73 003e 0020     		mov	r0, #0
  74 0040 FFF7FEFF 		bl	DATA_TIMER_SetInterruptMode
 163:.\Generated_Source\PSoC4/DATA_TIMER.c **** }
  75              		.loc 1 163 0
  76 0044 BD46     		mov	sp, r7
  77 0046 03B0     		add	sp, sp, #12
  78              		@ sp needed
  79 0048 90BD     		pop	{r4, r7, pc}
  80              	.L3:
  81 004a C046     		.align	2
  82              	.L2:
  83 004c FFED0200 		.word	191999
  84 0050 92000F40 		.word	1074725010
  85              		.cfi_endproc
  86              	.LFE0:
  87              		.size	DATA_TIMER_Init, .-DATA_TIMER_Init
  88              		.section	.text.DATA_TIMER_Enable,"ax",%progbits
  89              		.align	2
  90              		.global	DATA_TIMER_Enable
  91              		.code	16
  92              		.thumb_func
  93              		.type	DATA_TIMER_Enable, %function
  94              	DATA_TIMER_Enable:
  95              	.LFB1:
 164:.\Generated_Source\PSoC4/DATA_TIMER.c **** 
 165:.\Generated_Source\PSoC4/DATA_TIMER.c **** 
 166:.\Generated_Source\PSoC4/DATA_TIMER.c **** /*******************************************************************************
 167:.\Generated_Source\PSoC4/DATA_TIMER.c **** * Function Name: DATA_TIMER_Enable
 168:.\Generated_Source\PSoC4/DATA_TIMER.c **** ********************************************************************************
 169:.\Generated_Source\PSoC4/DATA_TIMER.c **** *
 170:.\Generated_Source\PSoC4/DATA_TIMER.c **** * Summary:
 171:.\Generated_Source\PSoC4/DATA_TIMER.c **** *  Enable the Timer
 172:.\Generated_Source\PSoC4/DATA_TIMER.c **** *
 173:.\Generated_Source\PSoC4/DATA_TIMER.c **** * Parameters:
 174:.\Generated_Source\PSoC4/DATA_TIMER.c **** *  void
 175:.\Generated_Source\PSoC4/DATA_TIMER.c **** *
 176:.\Generated_Source\PSoC4/DATA_TIMER.c **** * Return:
 177:.\Generated_Source\PSoC4/DATA_TIMER.c **** *  void
 178:.\Generated_Source\PSoC4/DATA_TIMER.c **** *
 179:.\Generated_Source\PSoC4/DATA_TIMER.c **** *******************************************************************************/
 180:.\Generated_Source\PSoC4/DATA_TIMER.c **** void DATA_TIMER_Enable(void) 
 181:.\Generated_Source\PSoC4/DATA_TIMER.c **** {
  96              		.loc 1 181 0
  97              		.cfi_startproc
  98 0000 80B5     		push	{r7, lr}
  99              		.cfi_def_cfa_offset 8
 100              		.cfi_offset 7, -8
 101              		.cfi_offset 14, -4
 102 0002 00AF     		add	r7, sp, #0
 103              		.cfi_def_cfa_register 7
 182:.\Generated_Source\PSoC4/DATA_TIMER.c ****     /* Globally Enable the Fixed Function Block chosen */
ARM GAS  C:\Users\Felix\AppData\Local\Temp\ccbIGpaW.s 			page 6


 183:.\Generated_Source\PSoC4/DATA_TIMER.c ****     #if (DATA_TIMER_UsingFixedFunction)
 184:.\Generated_Source\PSoC4/DATA_TIMER.c ****         DATA_TIMER_GLOBAL_ENABLE |= DATA_TIMER_BLOCK_EN_MASK;
 185:.\Generated_Source\PSoC4/DATA_TIMER.c ****         DATA_TIMER_GLOBAL_STBY_ENABLE |= DATA_TIMER_BLOCK_STBY_EN_MASK;
 186:.\Generated_Source\PSoC4/DATA_TIMER.c ****     #endif /* Set Enable bit for enabling Fixed function timer*/
 187:.\Generated_Source\PSoC4/DATA_TIMER.c **** 
 188:.\Generated_Source\PSoC4/DATA_TIMER.c ****     /* Remove assignment if control register is removed */
 189:.\Generated_Source\PSoC4/DATA_TIMER.c ****     #if (!DATA_TIMER_UDB_CONTROL_REG_REMOVED || DATA_TIMER_UsingFixedFunction)
 190:.\Generated_Source\PSoC4/DATA_TIMER.c ****         DATA_TIMER_CONTROL |= DATA_TIMER_CTRL_ENABLE;
 104              		.loc 1 190 0
 105 0004 054B     		ldr	r3, .L5
 106 0006 054A     		ldr	r2, .L5
 107 0008 1278     		ldrb	r2, [r2]
 108 000a D2B2     		uxtb	r2, r2
 109 000c 8021     		mov	r1, #128
 110 000e 4942     		neg	r1, r1
 111 0010 0A43     		orr	r2, r1
 112 0012 D2B2     		uxtb	r2, r2
 113 0014 1A70     		strb	r2, [r3]
 191:.\Generated_Source\PSoC4/DATA_TIMER.c ****     #endif /* Remove assignment if control register is removed */
 192:.\Generated_Source\PSoC4/DATA_TIMER.c **** }
 114              		.loc 1 192 0
 115 0016 BD46     		mov	sp, r7
 116              		@ sp needed
 117 0018 80BD     		pop	{r7, pc}
 118              	.L6:
 119 001a C046     		.align	2
 120              	.L5:
 121 001c 71000F40 		.word	1074724977
 122              		.cfi_endproc
 123              	.LFE1:
 124              		.size	DATA_TIMER_Enable, .-DATA_TIMER_Enable
 125              		.section	.text.DATA_TIMER_Start,"ax",%progbits
 126              		.align	2
 127              		.global	DATA_TIMER_Start
 128              		.code	16
 129              		.thumb_func
 130              		.type	DATA_TIMER_Start, %function
 131              	DATA_TIMER_Start:
 132              	.LFB2:
 193:.\Generated_Source\PSoC4/DATA_TIMER.c **** 
 194:.\Generated_Source\PSoC4/DATA_TIMER.c **** 
 195:.\Generated_Source\PSoC4/DATA_TIMER.c **** /*******************************************************************************
 196:.\Generated_Source\PSoC4/DATA_TIMER.c **** * Function Name: DATA_TIMER_Start
 197:.\Generated_Source\PSoC4/DATA_TIMER.c **** ********************************************************************************
 198:.\Generated_Source\PSoC4/DATA_TIMER.c **** *
 199:.\Generated_Source\PSoC4/DATA_TIMER.c **** * Summary:
 200:.\Generated_Source\PSoC4/DATA_TIMER.c **** *  The start function initializes the timer with the default values, the
 201:.\Generated_Source\PSoC4/DATA_TIMER.c **** *  enables the timerto begin counting.  It does not enable interrupts,
 202:.\Generated_Source\PSoC4/DATA_TIMER.c **** *  the EnableInt command should be called if interrupt generation is required.
 203:.\Generated_Source\PSoC4/DATA_TIMER.c **** *
 204:.\Generated_Source\PSoC4/DATA_TIMER.c **** * Parameters:
 205:.\Generated_Source\PSoC4/DATA_TIMER.c **** *  void
 206:.\Generated_Source\PSoC4/DATA_TIMER.c **** *
 207:.\Generated_Source\PSoC4/DATA_TIMER.c **** * Return:
 208:.\Generated_Source\PSoC4/DATA_TIMER.c **** *  void
 209:.\Generated_Source\PSoC4/DATA_TIMER.c **** *
 210:.\Generated_Source\PSoC4/DATA_TIMER.c **** * Global variables:
ARM GAS  C:\Users\Felix\AppData\Local\Temp\ccbIGpaW.s 			page 7


 211:.\Generated_Source\PSoC4/DATA_TIMER.c **** *  DATA_TIMER_initVar: Is modified when this function is called for the
 212:.\Generated_Source\PSoC4/DATA_TIMER.c **** *   first time. Is used to ensure that initialization happens only once.
 213:.\Generated_Source\PSoC4/DATA_TIMER.c **** *
 214:.\Generated_Source\PSoC4/DATA_TIMER.c **** *******************************************************************************/
 215:.\Generated_Source\PSoC4/DATA_TIMER.c **** void DATA_TIMER_Start(void) 
 216:.\Generated_Source\PSoC4/DATA_TIMER.c **** {
 133              		.loc 1 216 0
 134              		.cfi_startproc
 135 0000 80B5     		push	{r7, lr}
 136              		.cfi_def_cfa_offset 8
 137              		.cfi_offset 7, -8
 138              		.cfi_offset 14, -4
 139 0002 00AF     		add	r7, sp, #0
 140              		.cfi_def_cfa_register 7
 217:.\Generated_Source\PSoC4/DATA_TIMER.c ****     if(DATA_TIMER_initVar == 0u)
 141              		.loc 1 217 0
 142 0004 064B     		ldr	r3, .L9
 143 0006 1B78     		ldrb	r3, [r3]
 144 0008 002B     		cmp	r3, #0
 145 000a 04D1     		bne	.L8
 218:.\Generated_Source\PSoC4/DATA_TIMER.c ****     {
 219:.\Generated_Source\PSoC4/DATA_TIMER.c ****         DATA_TIMER_Init();
 146              		.loc 1 219 0
 147 000c FFF7FEFF 		bl	DATA_TIMER_Init
 220:.\Generated_Source\PSoC4/DATA_TIMER.c **** 
 221:.\Generated_Source\PSoC4/DATA_TIMER.c ****         DATA_TIMER_initVar = 1u;   /* Clear this bit for Initialization */
 148              		.loc 1 221 0
 149 0010 034B     		ldr	r3, .L9
 150 0012 0122     		mov	r2, #1
 151 0014 1A70     		strb	r2, [r3]
 152              	.L8:
 222:.\Generated_Source\PSoC4/DATA_TIMER.c ****     }
 223:.\Generated_Source\PSoC4/DATA_TIMER.c **** 
 224:.\Generated_Source\PSoC4/DATA_TIMER.c ****     /* Enable the Timer */
 225:.\Generated_Source\PSoC4/DATA_TIMER.c ****     DATA_TIMER_Enable();
 153              		.loc 1 225 0
 154 0016 FFF7FEFF 		bl	DATA_TIMER_Enable
 226:.\Generated_Source\PSoC4/DATA_TIMER.c **** }
 155              		.loc 1 226 0
 156 001a BD46     		mov	sp, r7
 157              		@ sp needed
 158 001c 80BD     		pop	{r7, pc}
 159              	.L10:
 160 001e C046     		.align	2
 161              	.L9:
 162 0020 00000000 		.word	DATA_TIMER_initVar
 163              		.cfi_endproc
 164              	.LFE2:
 165              		.size	DATA_TIMER_Start, .-DATA_TIMER_Start
 166              		.section	.text.DATA_TIMER_Stop,"ax",%progbits
 167              		.align	2
 168              		.global	DATA_TIMER_Stop
 169              		.code	16
 170              		.thumb_func
 171              		.type	DATA_TIMER_Stop, %function
 172              	DATA_TIMER_Stop:
 173              	.LFB3:
ARM GAS  C:\Users\Felix\AppData\Local\Temp\ccbIGpaW.s 			page 8


 227:.\Generated_Source\PSoC4/DATA_TIMER.c **** 
 228:.\Generated_Source\PSoC4/DATA_TIMER.c **** 
 229:.\Generated_Source\PSoC4/DATA_TIMER.c **** /*******************************************************************************
 230:.\Generated_Source\PSoC4/DATA_TIMER.c **** * Function Name: DATA_TIMER_Stop
 231:.\Generated_Source\PSoC4/DATA_TIMER.c **** ********************************************************************************
 232:.\Generated_Source\PSoC4/DATA_TIMER.c **** *
 233:.\Generated_Source\PSoC4/DATA_TIMER.c **** * Summary:
 234:.\Generated_Source\PSoC4/DATA_TIMER.c **** *  The stop function halts the timer, but does not change any modes or disable
 235:.\Generated_Source\PSoC4/DATA_TIMER.c **** *  interrupts.
 236:.\Generated_Source\PSoC4/DATA_TIMER.c **** *
 237:.\Generated_Source\PSoC4/DATA_TIMER.c **** * Parameters:
 238:.\Generated_Source\PSoC4/DATA_TIMER.c **** *  void
 239:.\Generated_Source\PSoC4/DATA_TIMER.c **** *
 240:.\Generated_Source\PSoC4/DATA_TIMER.c **** * Return:
 241:.\Generated_Source\PSoC4/DATA_TIMER.c **** *  void
 242:.\Generated_Source\PSoC4/DATA_TIMER.c **** *
 243:.\Generated_Source\PSoC4/DATA_TIMER.c **** * Side Effects: If the Enable mode is set to Hardware only then this function
 244:.\Generated_Source\PSoC4/DATA_TIMER.c **** *               has no effect on the operation of the timer.
 245:.\Generated_Source\PSoC4/DATA_TIMER.c **** *
 246:.\Generated_Source\PSoC4/DATA_TIMER.c **** *******************************************************************************/
 247:.\Generated_Source\PSoC4/DATA_TIMER.c **** void DATA_TIMER_Stop(void) 
 248:.\Generated_Source\PSoC4/DATA_TIMER.c **** {
 174              		.loc 1 248 0
 175              		.cfi_startproc
 176 0000 80B5     		push	{r7, lr}
 177              		.cfi_def_cfa_offset 8
 178              		.cfi_offset 7, -8
 179              		.cfi_offset 14, -4
 180 0002 00AF     		add	r7, sp, #0
 181              		.cfi_def_cfa_register 7
 249:.\Generated_Source\PSoC4/DATA_TIMER.c ****     /* Disable Timer */
 250:.\Generated_Source\PSoC4/DATA_TIMER.c ****     #if(!DATA_TIMER_UDB_CONTROL_REG_REMOVED || DATA_TIMER_UsingFixedFunction)
 251:.\Generated_Source\PSoC4/DATA_TIMER.c ****         DATA_TIMER_CONTROL &= ((uint8)(~DATA_TIMER_CTRL_ENABLE));
 182              		.loc 1 251 0
 183 0004 044B     		ldr	r3, .L12
 184 0006 044A     		ldr	r2, .L12
 185 0008 1278     		ldrb	r2, [r2]
 186 000a D1B2     		uxtb	r1, r2
 187 000c 7F22     		mov	r2, #127
 188 000e 0A40     		and	r2, r1
 189 0010 D2B2     		uxtb	r2, r2
 190 0012 1A70     		strb	r2, [r3]
 252:.\Generated_Source\PSoC4/DATA_TIMER.c ****     #endif /* Remove assignment if control register is removed */
 253:.\Generated_Source\PSoC4/DATA_TIMER.c **** 
 254:.\Generated_Source\PSoC4/DATA_TIMER.c ****     /* Globally disable the Fixed Function Block chosen */
 255:.\Generated_Source\PSoC4/DATA_TIMER.c ****     #if (DATA_TIMER_UsingFixedFunction)
 256:.\Generated_Source\PSoC4/DATA_TIMER.c ****         DATA_TIMER_GLOBAL_ENABLE &= ((uint8)(~DATA_TIMER_BLOCK_EN_MASK));
 257:.\Generated_Source\PSoC4/DATA_TIMER.c ****         DATA_TIMER_GLOBAL_STBY_ENABLE &= ((uint8)(~DATA_TIMER_BLOCK_STBY_EN_MASK));
 258:.\Generated_Source\PSoC4/DATA_TIMER.c ****     #endif /* Disable global enable for the Timer Fixed function block to stop the Timer*/
 259:.\Generated_Source\PSoC4/DATA_TIMER.c **** }
 191              		.loc 1 259 0
 192 0014 BD46     		mov	sp, r7
 193              		@ sp needed
 194 0016 80BD     		pop	{r7, pc}
 195              	.L13:
 196              		.align	2
 197              	.L12:
ARM GAS  C:\Users\Felix\AppData\Local\Temp\ccbIGpaW.s 			page 9


 198 0018 71000F40 		.word	1074724977
 199              		.cfi_endproc
 200              	.LFE3:
 201              		.size	DATA_TIMER_Stop, .-DATA_TIMER_Stop
 202              		.section	.text.DATA_TIMER_SetInterruptMode,"ax",%progbits
 203              		.align	2
 204              		.global	DATA_TIMER_SetInterruptMode
 205              		.code	16
 206              		.thumb_func
 207              		.type	DATA_TIMER_SetInterruptMode, %function
 208              	DATA_TIMER_SetInterruptMode:
 209              	.LFB4:
 260:.\Generated_Source\PSoC4/DATA_TIMER.c **** 
 261:.\Generated_Source\PSoC4/DATA_TIMER.c **** 
 262:.\Generated_Source\PSoC4/DATA_TIMER.c **** /*******************************************************************************
 263:.\Generated_Source\PSoC4/DATA_TIMER.c **** * Function Name: DATA_TIMER_SetInterruptMode
 264:.\Generated_Source\PSoC4/DATA_TIMER.c **** ********************************************************************************
 265:.\Generated_Source\PSoC4/DATA_TIMER.c **** *
 266:.\Generated_Source\PSoC4/DATA_TIMER.c **** * Summary:
 267:.\Generated_Source\PSoC4/DATA_TIMER.c **** *  This function selects which of the interrupt inputs may cause an interrupt.
 268:.\Generated_Source\PSoC4/DATA_TIMER.c **** *  The twosources are caputure and terminal.  One, both or neither may
 269:.\Generated_Source\PSoC4/DATA_TIMER.c **** *  be selected.
 270:.\Generated_Source\PSoC4/DATA_TIMER.c **** *
 271:.\Generated_Source\PSoC4/DATA_TIMER.c **** * Parameters:
 272:.\Generated_Source\PSoC4/DATA_TIMER.c **** *  interruptMode:   This parameter is used to enable interrups on either/or
 273:.\Generated_Source\PSoC4/DATA_TIMER.c **** *                   terminal count or capture.
 274:.\Generated_Source\PSoC4/DATA_TIMER.c **** *
 275:.\Generated_Source\PSoC4/DATA_TIMER.c **** * Return:
 276:.\Generated_Source\PSoC4/DATA_TIMER.c **** *  void
 277:.\Generated_Source\PSoC4/DATA_TIMER.c **** *
 278:.\Generated_Source\PSoC4/DATA_TIMER.c **** *******************************************************************************/
 279:.\Generated_Source\PSoC4/DATA_TIMER.c **** void DATA_TIMER_SetInterruptMode(uint8 interruptMode) 
 280:.\Generated_Source\PSoC4/DATA_TIMER.c **** {
 210              		.loc 1 280 0
 211              		.cfi_startproc
 212 0000 80B5     		push	{r7, lr}
 213              		.cfi_def_cfa_offset 8
 214              		.cfi_offset 7, -8
 215              		.cfi_offset 14, -4
 216 0002 82B0     		sub	sp, sp, #8
 217              		.cfi_def_cfa_offset 16
 218 0004 00AF     		add	r7, sp, #0
 219              		.cfi_def_cfa_register 7
 220 0006 021C     		mov	r2, r0
 221 0008 FB1D     		add	r3, r7, #7
 222 000a 1A70     		strb	r2, [r3]
 281:.\Generated_Source\PSoC4/DATA_TIMER.c ****     DATA_TIMER_STATUS_MASK = interruptMode;
 223              		.loc 1 281 0
 224 000c 034B     		ldr	r3, .L15
 225 000e FA1D     		add	r2, r7, #7
 226 0010 1278     		ldrb	r2, [r2]
 227 0012 1A70     		strb	r2, [r3]
 282:.\Generated_Source\PSoC4/DATA_TIMER.c **** }
 228              		.loc 1 282 0
 229 0014 BD46     		mov	sp, r7
 230 0016 02B0     		add	sp, sp, #8
 231              		@ sp needed
ARM GAS  C:\Users\Felix\AppData\Local\Temp\ccbIGpaW.s 			page 10


 232 0018 80BD     		pop	{r7, pc}
 233              	.L16:
 234 001a C046     		.align	2
 235              	.L15:
 236 001c 82000F40 		.word	1074724994
 237              		.cfi_endproc
 238              	.LFE4:
 239              		.size	DATA_TIMER_SetInterruptMode, .-DATA_TIMER_SetInterruptMode
 240              		.section	.text.DATA_TIMER_SoftwareCapture,"ax",%progbits
 241              		.align	2
 242              		.global	DATA_TIMER_SoftwareCapture
 243              		.code	16
 244              		.thumb_func
 245              		.type	DATA_TIMER_SoftwareCapture, %function
 246              	DATA_TIMER_SoftwareCapture:
 247              	.LFB5:
 283:.\Generated_Source\PSoC4/DATA_TIMER.c **** 
 284:.\Generated_Source\PSoC4/DATA_TIMER.c **** 
 285:.\Generated_Source\PSoC4/DATA_TIMER.c **** /*******************************************************************************
 286:.\Generated_Source\PSoC4/DATA_TIMER.c **** * Function Name: DATA_TIMER_SoftwareCapture
 287:.\Generated_Source\PSoC4/DATA_TIMER.c **** ********************************************************************************
 288:.\Generated_Source\PSoC4/DATA_TIMER.c **** *
 289:.\Generated_Source\PSoC4/DATA_TIMER.c **** * Summary:
 290:.\Generated_Source\PSoC4/DATA_TIMER.c **** *  This function forces a capture independent of the capture signal.
 291:.\Generated_Source\PSoC4/DATA_TIMER.c **** *
 292:.\Generated_Source\PSoC4/DATA_TIMER.c **** * Parameters:
 293:.\Generated_Source\PSoC4/DATA_TIMER.c **** *  void
 294:.\Generated_Source\PSoC4/DATA_TIMER.c **** *
 295:.\Generated_Source\PSoC4/DATA_TIMER.c **** * Return:
 296:.\Generated_Source\PSoC4/DATA_TIMER.c **** *  void
 297:.\Generated_Source\PSoC4/DATA_TIMER.c **** *
 298:.\Generated_Source\PSoC4/DATA_TIMER.c **** * Side Effects:
 299:.\Generated_Source\PSoC4/DATA_TIMER.c **** *  An existing hardware capture could be overwritten.
 300:.\Generated_Source\PSoC4/DATA_TIMER.c **** *
 301:.\Generated_Source\PSoC4/DATA_TIMER.c **** *******************************************************************************/
 302:.\Generated_Source\PSoC4/DATA_TIMER.c **** void DATA_TIMER_SoftwareCapture(void) 
 303:.\Generated_Source\PSoC4/DATA_TIMER.c **** {
 248              		.loc 1 303 0
 249              		.cfi_startproc
 250 0000 80B5     		push	{r7, lr}
 251              		.cfi_def_cfa_offset 8
 252              		.cfi_offset 7, -8
 253              		.cfi_offset 14, -4
 254 0002 00AF     		add	r7, sp, #0
 255              		.cfi_def_cfa_register 7
 304:.\Generated_Source\PSoC4/DATA_TIMER.c ****     /* Generate a software capture by reading the counter register */
 305:.\Generated_Source\PSoC4/DATA_TIMER.c ****     #if(DATA_TIMER_UsingFixedFunction)
 306:.\Generated_Source\PSoC4/DATA_TIMER.c ****         (void)CY_GET_REG16(DATA_TIMER_COUNTER_LSB_PTR);
 307:.\Generated_Source\PSoC4/DATA_TIMER.c ****     #else
 308:.\Generated_Source\PSoC4/DATA_TIMER.c ****         (void)CY_GET_REG8(DATA_TIMER_COUNTER_LSB_PTR_8BIT);
 256              		.loc 1 308 0
 257 0004 014B     		ldr	r3, .L18
 258 0006 1B78     		ldrb	r3, [r3]
 309:.\Generated_Source\PSoC4/DATA_TIMER.c ****     #endif/* (DATA_TIMER_UsingFixedFunction) */
 310:.\Generated_Source\PSoC4/DATA_TIMER.c ****     /* Capture Data is now in the FIFO */
 311:.\Generated_Source\PSoC4/DATA_TIMER.c **** }
 259              		.loc 1 311 0
ARM GAS  C:\Users\Felix\AppData\Local\Temp\ccbIGpaW.s 			page 11


 260 0008 BD46     		mov	sp, r7
 261              		@ sp needed
 262 000a 80BD     		pop	{r7, pc}
 263              	.L19:
 264              		.align	2
 265              	.L18:
 266 000c 00000F40 		.word	1074724864
 267              		.cfi_endproc
 268              	.LFE5:
 269              		.size	DATA_TIMER_SoftwareCapture, .-DATA_TIMER_SoftwareCapture
 270              		.section	.text.DATA_TIMER_ReadStatusRegister,"ax",%progbits
 271              		.align	2
 272              		.global	DATA_TIMER_ReadStatusRegister
 273              		.code	16
 274              		.thumb_func
 275              		.type	DATA_TIMER_ReadStatusRegister, %function
 276              	DATA_TIMER_ReadStatusRegister:
 277              	.LFB6:
 312:.\Generated_Source\PSoC4/DATA_TIMER.c **** 
 313:.\Generated_Source\PSoC4/DATA_TIMER.c **** 
 314:.\Generated_Source\PSoC4/DATA_TIMER.c **** /*******************************************************************************
 315:.\Generated_Source\PSoC4/DATA_TIMER.c **** * Function Name: DATA_TIMER_ReadStatusRegister
 316:.\Generated_Source\PSoC4/DATA_TIMER.c **** ********************************************************************************
 317:.\Generated_Source\PSoC4/DATA_TIMER.c **** *
 318:.\Generated_Source\PSoC4/DATA_TIMER.c **** * Summary:
 319:.\Generated_Source\PSoC4/DATA_TIMER.c **** *  Reads the status register and returns it's state. This function should use
 320:.\Generated_Source\PSoC4/DATA_TIMER.c **** *  defined types for the bit-field information as the bits in this register may
 321:.\Generated_Source\PSoC4/DATA_TIMER.c **** *  be permuteable.
 322:.\Generated_Source\PSoC4/DATA_TIMER.c **** *
 323:.\Generated_Source\PSoC4/DATA_TIMER.c **** * Parameters:
 324:.\Generated_Source\PSoC4/DATA_TIMER.c **** *  void
 325:.\Generated_Source\PSoC4/DATA_TIMER.c **** *
 326:.\Generated_Source\PSoC4/DATA_TIMER.c **** * Return:
 327:.\Generated_Source\PSoC4/DATA_TIMER.c **** *  The contents of the status register
 328:.\Generated_Source\PSoC4/DATA_TIMER.c **** *
 329:.\Generated_Source\PSoC4/DATA_TIMER.c **** * Side Effects:
 330:.\Generated_Source\PSoC4/DATA_TIMER.c **** *  Status register bits may be clear on read.
 331:.\Generated_Source\PSoC4/DATA_TIMER.c **** *
 332:.\Generated_Source\PSoC4/DATA_TIMER.c **** *******************************************************************************/
 333:.\Generated_Source\PSoC4/DATA_TIMER.c **** uint8   DATA_TIMER_ReadStatusRegister(void) 
 334:.\Generated_Source\PSoC4/DATA_TIMER.c **** {
 278              		.loc 1 334 0
 279              		.cfi_startproc
 280 0000 80B5     		push	{r7, lr}
 281              		.cfi_def_cfa_offset 8
 282              		.cfi_offset 7, -8
 283              		.cfi_offset 14, -4
 284 0002 00AF     		add	r7, sp, #0
 285              		.cfi_def_cfa_register 7
 335:.\Generated_Source\PSoC4/DATA_TIMER.c ****     return (DATA_TIMER_STATUS);
 286              		.loc 1 335 0
 287 0004 024B     		ldr	r3, .L22
 288 0006 1B78     		ldrb	r3, [r3]
 289 0008 DBB2     		uxtb	r3, r3
 336:.\Generated_Source\PSoC4/DATA_TIMER.c **** }
 290              		.loc 1 336 0
 291 000a 181C     		mov	r0, r3
ARM GAS  C:\Users\Felix\AppData\Local\Temp\ccbIGpaW.s 			page 12


 292 000c BD46     		mov	sp, r7
 293              		@ sp needed
 294 000e 80BD     		pop	{r7, pc}
 295              	.L23:
 296              		.align	2
 297              	.L22:
 298 0010 62000F40 		.word	1074724962
 299              		.cfi_endproc
 300              	.LFE6:
 301              		.size	DATA_TIMER_ReadStatusRegister, .-DATA_TIMER_ReadStatusRegister
 302              		.section	.text.DATA_TIMER_ReadControlRegister,"ax",%progbits
 303              		.align	2
 304              		.global	DATA_TIMER_ReadControlRegister
 305              		.code	16
 306              		.thumb_func
 307              		.type	DATA_TIMER_ReadControlRegister, %function
 308              	DATA_TIMER_ReadControlRegister:
 309              	.LFB7:
 337:.\Generated_Source\PSoC4/DATA_TIMER.c **** 
 338:.\Generated_Source\PSoC4/DATA_TIMER.c **** 
 339:.\Generated_Source\PSoC4/DATA_TIMER.c **** #if (!DATA_TIMER_UDB_CONTROL_REG_REMOVED) /* Remove API if control register is unused */
 340:.\Generated_Source\PSoC4/DATA_TIMER.c **** 
 341:.\Generated_Source\PSoC4/DATA_TIMER.c **** 
 342:.\Generated_Source\PSoC4/DATA_TIMER.c **** /*******************************************************************************
 343:.\Generated_Source\PSoC4/DATA_TIMER.c **** * Function Name: DATA_TIMER_ReadControlRegister
 344:.\Generated_Source\PSoC4/DATA_TIMER.c **** ********************************************************************************
 345:.\Generated_Source\PSoC4/DATA_TIMER.c **** *
 346:.\Generated_Source\PSoC4/DATA_TIMER.c **** * Summary:
 347:.\Generated_Source\PSoC4/DATA_TIMER.c **** *  Reads the control register and returns it's value.
 348:.\Generated_Source\PSoC4/DATA_TIMER.c **** *
 349:.\Generated_Source\PSoC4/DATA_TIMER.c **** * Parameters:
 350:.\Generated_Source\PSoC4/DATA_TIMER.c **** *  void
 351:.\Generated_Source\PSoC4/DATA_TIMER.c **** *
 352:.\Generated_Source\PSoC4/DATA_TIMER.c **** * Return:
 353:.\Generated_Source\PSoC4/DATA_TIMER.c **** *  The contents of the control register
 354:.\Generated_Source\PSoC4/DATA_TIMER.c **** *
 355:.\Generated_Source\PSoC4/DATA_TIMER.c **** *******************************************************************************/
 356:.\Generated_Source\PSoC4/DATA_TIMER.c **** uint8 DATA_TIMER_ReadControlRegister(void) 
 357:.\Generated_Source\PSoC4/DATA_TIMER.c **** {
 310              		.loc 1 357 0
 311              		.cfi_startproc
 312 0000 80B5     		push	{r7, lr}
 313              		.cfi_def_cfa_offset 8
 314              		.cfi_offset 7, -8
 315              		.cfi_offset 14, -4
 316 0002 00AF     		add	r7, sp, #0
 317              		.cfi_def_cfa_register 7
 358:.\Generated_Source\PSoC4/DATA_TIMER.c ****     #if (!DATA_TIMER_UDB_CONTROL_REG_REMOVED) 
 359:.\Generated_Source\PSoC4/DATA_TIMER.c ****         return ((uint8)DATA_TIMER_CONTROL);
 318              		.loc 1 359 0
 319 0004 024B     		ldr	r3, .L26
 320 0006 1B78     		ldrb	r3, [r3]
 321 0008 DBB2     		uxtb	r3, r3
 360:.\Generated_Source\PSoC4/DATA_TIMER.c ****     #else
 361:.\Generated_Source\PSoC4/DATA_TIMER.c ****         return (0);
 362:.\Generated_Source\PSoC4/DATA_TIMER.c ****     #endif /* (!DATA_TIMER_UDB_CONTROL_REG_REMOVED) */
 363:.\Generated_Source\PSoC4/DATA_TIMER.c **** }
ARM GAS  C:\Users\Felix\AppData\Local\Temp\ccbIGpaW.s 			page 13


 322              		.loc 1 363 0
 323 000a 181C     		mov	r0, r3
 324 000c BD46     		mov	sp, r7
 325              		@ sp needed
 326 000e 80BD     		pop	{r7, pc}
 327              	.L27:
 328              		.align	2
 329              	.L26:
 330 0010 71000F40 		.word	1074724977
 331              		.cfi_endproc
 332              	.LFE7:
 333              		.size	DATA_TIMER_ReadControlRegister, .-DATA_TIMER_ReadControlRegister
 334              		.section	.text.DATA_TIMER_WriteControlRegister,"ax",%progbits
 335              		.align	2
 336              		.global	DATA_TIMER_WriteControlRegister
 337              		.code	16
 338              		.thumb_func
 339              		.type	DATA_TIMER_WriteControlRegister, %function
 340              	DATA_TIMER_WriteControlRegister:
 341              	.LFB8:
 364:.\Generated_Source\PSoC4/DATA_TIMER.c **** 
 365:.\Generated_Source\PSoC4/DATA_TIMER.c **** 
 366:.\Generated_Source\PSoC4/DATA_TIMER.c **** /*******************************************************************************
 367:.\Generated_Source\PSoC4/DATA_TIMER.c **** * Function Name: DATA_TIMER_WriteControlRegister
 368:.\Generated_Source\PSoC4/DATA_TIMER.c **** ********************************************************************************
 369:.\Generated_Source\PSoC4/DATA_TIMER.c **** *
 370:.\Generated_Source\PSoC4/DATA_TIMER.c **** * Summary:
 371:.\Generated_Source\PSoC4/DATA_TIMER.c **** *  Sets the bit-field of the control register.
 372:.\Generated_Source\PSoC4/DATA_TIMER.c **** *
 373:.\Generated_Source\PSoC4/DATA_TIMER.c **** * Parameters:
 374:.\Generated_Source\PSoC4/DATA_TIMER.c **** *  control: The contents of the control register
 375:.\Generated_Source\PSoC4/DATA_TIMER.c **** *
 376:.\Generated_Source\PSoC4/DATA_TIMER.c **** * Return:
 377:.\Generated_Source\PSoC4/DATA_TIMER.c **** *
 378:.\Generated_Source\PSoC4/DATA_TIMER.c **** *******************************************************************************/
 379:.\Generated_Source\PSoC4/DATA_TIMER.c **** void DATA_TIMER_WriteControlRegister(uint8 control) 
 380:.\Generated_Source\PSoC4/DATA_TIMER.c **** {
 342              		.loc 1 380 0
 343              		.cfi_startproc
 344 0000 80B5     		push	{r7, lr}
 345              		.cfi_def_cfa_offset 8
 346              		.cfi_offset 7, -8
 347              		.cfi_offset 14, -4
 348 0002 82B0     		sub	sp, sp, #8
 349              		.cfi_def_cfa_offset 16
 350 0004 00AF     		add	r7, sp, #0
 351              		.cfi_def_cfa_register 7
 352 0006 021C     		mov	r2, r0
 353 0008 FB1D     		add	r3, r7, #7
 354 000a 1A70     		strb	r2, [r3]
 381:.\Generated_Source\PSoC4/DATA_TIMER.c ****     #if (!DATA_TIMER_UDB_CONTROL_REG_REMOVED) 
 382:.\Generated_Source\PSoC4/DATA_TIMER.c ****         DATA_TIMER_CONTROL = control;
 355              		.loc 1 382 0
 356 000c 034B     		ldr	r3, .L29
 357 000e FA1D     		add	r2, r7, #7
 358 0010 1278     		ldrb	r2, [r2]
 359 0012 1A70     		strb	r2, [r3]
ARM GAS  C:\Users\Felix\AppData\Local\Temp\ccbIGpaW.s 			page 14


 383:.\Generated_Source\PSoC4/DATA_TIMER.c ****     #else
 384:.\Generated_Source\PSoC4/DATA_TIMER.c ****         control = 0u;
 385:.\Generated_Source\PSoC4/DATA_TIMER.c ****     #endif /* (!DATA_TIMER_UDB_CONTROL_REG_REMOVED) */
 386:.\Generated_Source\PSoC4/DATA_TIMER.c **** }
 360              		.loc 1 386 0
 361 0014 BD46     		mov	sp, r7
 362 0016 02B0     		add	sp, sp, #8
 363              		@ sp needed
 364 0018 80BD     		pop	{r7, pc}
 365              	.L30:
 366 001a C046     		.align	2
 367              	.L29:
 368 001c 71000F40 		.word	1074724977
 369              		.cfi_endproc
 370              	.LFE8:
 371              		.size	DATA_TIMER_WriteControlRegister, .-DATA_TIMER_WriteControlRegister
 372              		.section	.text.DATA_TIMER_ReadPeriod,"ax",%progbits
 373              		.align	2
 374              		.global	DATA_TIMER_ReadPeriod
 375              		.code	16
 376              		.thumb_func
 377              		.type	DATA_TIMER_ReadPeriod, %function
 378              	DATA_TIMER_ReadPeriod:
 379              	.LFB9:
 387:.\Generated_Source\PSoC4/DATA_TIMER.c **** 
 388:.\Generated_Source\PSoC4/DATA_TIMER.c **** #endif /* Remove API if control register is unused */
 389:.\Generated_Source\PSoC4/DATA_TIMER.c **** 
 390:.\Generated_Source\PSoC4/DATA_TIMER.c **** 
 391:.\Generated_Source\PSoC4/DATA_TIMER.c **** /*******************************************************************************
 392:.\Generated_Source\PSoC4/DATA_TIMER.c **** * Function Name: DATA_TIMER_ReadPeriod
 393:.\Generated_Source\PSoC4/DATA_TIMER.c **** ********************************************************************************
 394:.\Generated_Source\PSoC4/DATA_TIMER.c **** *
 395:.\Generated_Source\PSoC4/DATA_TIMER.c **** * Summary:
 396:.\Generated_Source\PSoC4/DATA_TIMER.c **** *  This function returns the current value of the Period.
 397:.\Generated_Source\PSoC4/DATA_TIMER.c **** *
 398:.\Generated_Source\PSoC4/DATA_TIMER.c **** * Parameters:
 399:.\Generated_Source\PSoC4/DATA_TIMER.c **** *  void
 400:.\Generated_Source\PSoC4/DATA_TIMER.c **** *
 401:.\Generated_Source\PSoC4/DATA_TIMER.c **** * Return:
 402:.\Generated_Source\PSoC4/DATA_TIMER.c **** *  The present value of the counter.
 403:.\Generated_Source\PSoC4/DATA_TIMER.c **** *
 404:.\Generated_Source\PSoC4/DATA_TIMER.c **** *******************************************************************************/
 405:.\Generated_Source\PSoC4/DATA_TIMER.c **** uint32 DATA_TIMER_ReadPeriod(void) 
 406:.\Generated_Source\PSoC4/DATA_TIMER.c **** {
 380              		.loc 1 406 0
 381              		.cfi_startproc
 382 0000 80B5     		push	{r7, lr}
 383              		.cfi_def_cfa_offset 8
 384              		.cfi_offset 7, -8
 385              		.cfi_offset 14, -4
 386 0002 00AF     		add	r7, sp, #0
 387              		.cfi_def_cfa_register 7
 407:.\Generated_Source\PSoC4/DATA_TIMER.c ****    #if(DATA_TIMER_UsingFixedFunction)
 408:.\Generated_Source\PSoC4/DATA_TIMER.c ****        return ((uint32)CY_GET_REG16(DATA_TIMER_PERIOD_LSB_PTR));
 409:.\Generated_Source\PSoC4/DATA_TIMER.c ****    #else
 410:.\Generated_Source\PSoC4/DATA_TIMER.c ****        return (CY_GET_REG24(DATA_TIMER_PERIOD_LSB_PTR));
 388              		.loc 1 410 0
ARM GAS  C:\Users\Felix\AppData\Local\Temp\ccbIGpaW.s 			page 15


 389 0004 034B     		ldr	r3, .L33
 390 0006 181C     		mov	r0, r3
 391 0008 FFF7FEFF 		bl	CyGetReg24
 392 000c 031C     		mov	r3, r0
 411:.\Generated_Source\PSoC4/DATA_TIMER.c ****    #endif /* (DATA_TIMER_UsingFixedFunction) */
 412:.\Generated_Source\PSoC4/DATA_TIMER.c **** }
 393              		.loc 1 412 0
 394 000e 181C     		mov	r0, r3
 395 0010 BD46     		mov	sp, r7
 396              		@ sp needed
 397 0012 80BD     		pop	{r7, pc}
 398              	.L34:
 399              		.align	2
 400              	.L33:
 401 0014 20000F40 		.word	1074724896
 402              		.cfi_endproc
 403              	.LFE9:
 404              		.size	DATA_TIMER_ReadPeriod, .-DATA_TIMER_ReadPeriod
 405              		.section	.text.DATA_TIMER_WritePeriod,"ax",%progbits
 406              		.align	2
 407              		.global	DATA_TIMER_WritePeriod
 408              		.code	16
 409              		.thumb_func
 410              		.type	DATA_TIMER_WritePeriod, %function
 411              	DATA_TIMER_WritePeriod:
 412              	.LFB10:
 413:.\Generated_Source\PSoC4/DATA_TIMER.c **** 
 414:.\Generated_Source\PSoC4/DATA_TIMER.c **** 
 415:.\Generated_Source\PSoC4/DATA_TIMER.c **** /*******************************************************************************
 416:.\Generated_Source\PSoC4/DATA_TIMER.c **** * Function Name: DATA_TIMER_WritePeriod
 417:.\Generated_Source\PSoC4/DATA_TIMER.c **** ********************************************************************************
 418:.\Generated_Source\PSoC4/DATA_TIMER.c **** *
 419:.\Generated_Source\PSoC4/DATA_TIMER.c **** * Summary:
 420:.\Generated_Source\PSoC4/DATA_TIMER.c **** *  This function is used to change the period of the counter.  The new period
 421:.\Generated_Source\PSoC4/DATA_TIMER.c **** *  will be loaded the next time terminal count is detected.
 422:.\Generated_Source\PSoC4/DATA_TIMER.c **** *
 423:.\Generated_Source\PSoC4/DATA_TIMER.c **** * Parameters:
 424:.\Generated_Source\PSoC4/DATA_TIMER.c **** *  period: This value may be between 1 and (2^Resolution)-1.  A value of 0 will
 425:.\Generated_Source\PSoC4/DATA_TIMER.c **** *          result in the counter remaining at zero.
 426:.\Generated_Source\PSoC4/DATA_TIMER.c **** *
 427:.\Generated_Source\PSoC4/DATA_TIMER.c **** * Return:
 428:.\Generated_Source\PSoC4/DATA_TIMER.c **** *  void
 429:.\Generated_Source\PSoC4/DATA_TIMER.c **** *
 430:.\Generated_Source\PSoC4/DATA_TIMER.c **** *******************************************************************************/
 431:.\Generated_Source\PSoC4/DATA_TIMER.c **** void DATA_TIMER_WritePeriod(uint32 period) 
 432:.\Generated_Source\PSoC4/DATA_TIMER.c **** {
 413              		.loc 1 432 0
 414              		.cfi_startproc
 415 0000 80B5     		push	{r7, lr}
 416              		.cfi_def_cfa_offset 8
 417              		.cfi_offset 7, -8
 418              		.cfi_offset 14, -4
 419 0002 82B0     		sub	sp, sp, #8
 420              		.cfi_def_cfa_offset 16
 421 0004 00AF     		add	r7, sp, #0
 422              		.cfi_def_cfa_register 7
 423 0006 7860     		str	r0, [r7, #4]
ARM GAS  C:\Users\Felix\AppData\Local\Temp\ccbIGpaW.s 			page 16


 433:.\Generated_Source\PSoC4/DATA_TIMER.c ****     #if(DATA_TIMER_UsingFixedFunction)
 434:.\Generated_Source\PSoC4/DATA_TIMER.c ****         uint16 period_temp = (uint16)period;
 435:.\Generated_Source\PSoC4/DATA_TIMER.c ****         CY_SET_REG16(DATA_TIMER_PERIOD_LSB_PTR, period_temp);
 436:.\Generated_Source\PSoC4/DATA_TIMER.c ****     #else
 437:.\Generated_Source\PSoC4/DATA_TIMER.c ****         CY_SET_REG24(DATA_TIMER_PERIOD_LSB_PTR, period);
 424              		.loc 1 437 0
 425 0008 044A     		ldr	r2, .L36
 426 000a 7B68     		ldr	r3, [r7, #4]
 427 000c 101C     		mov	r0, r2
 428 000e 191C     		mov	r1, r3
 429 0010 FFF7FEFF 		bl	CySetReg24
 438:.\Generated_Source\PSoC4/DATA_TIMER.c ****     #endif /*Write Period value with appropriate resolution suffix depending on UDB or fixed functi
 439:.\Generated_Source\PSoC4/DATA_TIMER.c **** }
 430              		.loc 1 439 0
 431 0014 BD46     		mov	sp, r7
 432 0016 02B0     		add	sp, sp, #8
 433              		@ sp needed
 434 0018 80BD     		pop	{r7, pc}
 435              	.L37:
 436 001a C046     		.align	2
 437              	.L36:
 438 001c 20000F40 		.word	1074724896
 439              		.cfi_endproc
 440              	.LFE10:
 441              		.size	DATA_TIMER_WritePeriod, .-DATA_TIMER_WritePeriod
 442              		.section	.text.DATA_TIMER_ReadCapture,"ax",%progbits
 443              		.align	2
 444              		.global	DATA_TIMER_ReadCapture
 445              		.code	16
 446              		.thumb_func
 447              		.type	DATA_TIMER_ReadCapture, %function
 448              	DATA_TIMER_ReadCapture:
 449              	.LFB11:
 440:.\Generated_Source\PSoC4/DATA_TIMER.c **** 
 441:.\Generated_Source\PSoC4/DATA_TIMER.c **** 
 442:.\Generated_Source\PSoC4/DATA_TIMER.c **** /*******************************************************************************
 443:.\Generated_Source\PSoC4/DATA_TIMER.c **** * Function Name: DATA_TIMER_ReadCapture
 444:.\Generated_Source\PSoC4/DATA_TIMER.c **** ********************************************************************************
 445:.\Generated_Source\PSoC4/DATA_TIMER.c **** *
 446:.\Generated_Source\PSoC4/DATA_TIMER.c **** * Summary:
 447:.\Generated_Source\PSoC4/DATA_TIMER.c **** *  This function returns the last value captured.
 448:.\Generated_Source\PSoC4/DATA_TIMER.c **** *
 449:.\Generated_Source\PSoC4/DATA_TIMER.c **** * Parameters:
 450:.\Generated_Source\PSoC4/DATA_TIMER.c **** *  void
 451:.\Generated_Source\PSoC4/DATA_TIMER.c **** *
 452:.\Generated_Source\PSoC4/DATA_TIMER.c **** * Return:
 453:.\Generated_Source\PSoC4/DATA_TIMER.c **** *  Present Capture value.
 454:.\Generated_Source\PSoC4/DATA_TIMER.c **** *
 455:.\Generated_Source\PSoC4/DATA_TIMER.c **** *******************************************************************************/
 456:.\Generated_Source\PSoC4/DATA_TIMER.c **** uint32 DATA_TIMER_ReadCapture(void) 
 457:.\Generated_Source\PSoC4/DATA_TIMER.c **** {
 450              		.loc 1 457 0
 451              		.cfi_startproc
 452 0000 80B5     		push	{r7, lr}
 453              		.cfi_def_cfa_offset 8
 454              		.cfi_offset 7, -8
 455              		.cfi_offset 14, -4
ARM GAS  C:\Users\Felix\AppData\Local\Temp\ccbIGpaW.s 			page 17


 456 0002 00AF     		add	r7, sp, #0
 457              		.cfi_def_cfa_register 7
 458:.\Generated_Source\PSoC4/DATA_TIMER.c ****    #if(DATA_TIMER_UsingFixedFunction)
 459:.\Generated_Source\PSoC4/DATA_TIMER.c ****        return ((uint32)CY_GET_REG16(DATA_TIMER_CAPTURE_LSB_PTR));
 460:.\Generated_Source\PSoC4/DATA_TIMER.c ****    #else
 461:.\Generated_Source\PSoC4/DATA_TIMER.c ****        return (CY_GET_REG24(DATA_TIMER_CAPTURE_LSB_PTR));
 458              		.loc 1 461 0
 459 0004 034B     		ldr	r3, .L40
 460 0006 181C     		mov	r0, r3
 461 0008 FFF7FEFF 		bl	CyGetReg24
 462 000c 031C     		mov	r3, r0
 462:.\Generated_Source\PSoC4/DATA_TIMER.c ****    #endif /* (DATA_TIMER_UsingFixedFunction) */
 463:.\Generated_Source\PSoC4/DATA_TIMER.c **** }
 463              		.loc 1 463 0
 464 000e 181C     		mov	r0, r3
 465 0010 BD46     		mov	sp, r7
 466              		@ sp needed
 467 0012 80BD     		pop	{r7, pc}
 468              	.L41:
 469              		.align	2
 470              	.L40:
 471 0014 40000F40 		.word	1074724928
 472              		.cfi_endproc
 473              	.LFE11:
 474              		.size	DATA_TIMER_ReadCapture, .-DATA_TIMER_ReadCapture
 475              		.section	.text.DATA_TIMER_WriteCounter,"ax",%progbits
 476              		.align	2
 477              		.global	DATA_TIMER_WriteCounter
 478              		.code	16
 479              		.thumb_func
 480              		.type	DATA_TIMER_WriteCounter, %function
 481              	DATA_TIMER_WriteCounter:
 482              	.LFB12:
 464:.\Generated_Source\PSoC4/DATA_TIMER.c **** 
 465:.\Generated_Source\PSoC4/DATA_TIMER.c **** 
 466:.\Generated_Source\PSoC4/DATA_TIMER.c **** /*******************************************************************************
 467:.\Generated_Source\PSoC4/DATA_TIMER.c **** * Function Name: DATA_TIMER_WriteCounter
 468:.\Generated_Source\PSoC4/DATA_TIMER.c **** ********************************************************************************
 469:.\Generated_Source\PSoC4/DATA_TIMER.c **** *
 470:.\Generated_Source\PSoC4/DATA_TIMER.c **** * Summary:
 471:.\Generated_Source\PSoC4/DATA_TIMER.c **** *  This funtion is used to set the counter to a specific value
 472:.\Generated_Source\PSoC4/DATA_TIMER.c **** *
 473:.\Generated_Source\PSoC4/DATA_TIMER.c **** * Parameters:
 474:.\Generated_Source\PSoC4/DATA_TIMER.c **** *  counter:  New counter value.
 475:.\Generated_Source\PSoC4/DATA_TIMER.c **** *
 476:.\Generated_Source\PSoC4/DATA_TIMER.c **** * Return:
 477:.\Generated_Source\PSoC4/DATA_TIMER.c **** *  void
 478:.\Generated_Source\PSoC4/DATA_TIMER.c **** *
 479:.\Generated_Source\PSoC4/DATA_TIMER.c **** *******************************************************************************/
 480:.\Generated_Source\PSoC4/DATA_TIMER.c **** void DATA_TIMER_WriteCounter(uint32 counter) 
 481:.\Generated_Source\PSoC4/DATA_TIMER.c **** {
 483              		.loc 1 481 0
 484              		.cfi_startproc
 485 0000 80B5     		push	{r7, lr}
 486              		.cfi_def_cfa_offset 8
 487              		.cfi_offset 7, -8
 488              		.cfi_offset 14, -4
ARM GAS  C:\Users\Felix\AppData\Local\Temp\ccbIGpaW.s 			page 18


 489 0002 82B0     		sub	sp, sp, #8
 490              		.cfi_def_cfa_offset 16
 491 0004 00AF     		add	r7, sp, #0
 492              		.cfi_def_cfa_register 7
 493 0006 7860     		str	r0, [r7, #4]
 482:.\Generated_Source\PSoC4/DATA_TIMER.c ****    #if(DATA_TIMER_UsingFixedFunction)
 483:.\Generated_Source\PSoC4/DATA_TIMER.c ****         /* This functionality is removed until a FixedFunction HW update to
 484:.\Generated_Source\PSoC4/DATA_TIMER.c ****          * allow this register to be written
 485:.\Generated_Source\PSoC4/DATA_TIMER.c ****          */
 486:.\Generated_Source\PSoC4/DATA_TIMER.c ****         CY_SET_REG16(DATA_TIMER_COUNTER_LSB_PTR, (uint16)counter);
 487:.\Generated_Source\PSoC4/DATA_TIMER.c ****         
 488:.\Generated_Source\PSoC4/DATA_TIMER.c ****     #else
 489:.\Generated_Source\PSoC4/DATA_TIMER.c ****         CY_SET_REG24(DATA_TIMER_COUNTER_LSB_PTR, counter);
 494              		.loc 1 489 0
 495 0008 044A     		ldr	r2, .L43
 496 000a 7B68     		ldr	r3, [r7, #4]
 497 000c 101C     		mov	r0, r2
 498 000e 191C     		mov	r1, r3
 499 0010 FFF7FEFF 		bl	CySetReg24
 490:.\Generated_Source\PSoC4/DATA_TIMER.c ****     #endif /* Set Write Counter only for the UDB implementation (Write Counter not available in fix
 491:.\Generated_Source\PSoC4/DATA_TIMER.c **** }
 500              		.loc 1 491 0
 501 0014 BD46     		mov	sp, r7
 502 0016 02B0     		add	sp, sp, #8
 503              		@ sp needed
 504 0018 80BD     		pop	{r7, pc}
 505              	.L44:
 506 001a C046     		.align	2
 507              	.L43:
 508 001c 00000F40 		.word	1074724864
 509              		.cfi_endproc
 510              	.LFE12:
 511              		.size	DATA_TIMER_WriteCounter, .-DATA_TIMER_WriteCounter
 512              		.section	.text.DATA_TIMER_ReadCounter,"ax",%progbits
 513              		.align	2
 514              		.global	DATA_TIMER_ReadCounter
 515              		.code	16
 516              		.thumb_func
 517              		.type	DATA_TIMER_ReadCounter, %function
 518              	DATA_TIMER_ReadCounter:
 519              	.LFB13:
 492:.\Generated_Source\PSoC4/DATA_TIMER.c **** 
 493:.\Generated_Source\PSoC4/DATA_TIMER.c **** 
 494:.\Generated_Source\PSoC4/DATA_TIMER.c **** /*******************************************************************************
 495:.\Generated_Source\PSoC4/DATA_TIMER.c **** * Function Name: DATA_TIMER_ReadCounter
 496:.\Generated_Source\PSoC4/DATA_TIMER.c **** ********************************************************************************
 497:.\Generated_Source\PSoC4/DATA_TIMER.c **** *
 498:.\Generated_Source\PSoC4/DATA_TIMER.c **** * Summary:
 499:.\Generated_Source\PSoC4/DATA_TIMER.c **** *  This function returns the current counter value.
 500:.\Generated_Source\PSoC4/DATA_TIMER.c **** *
 501:.\Generated_Source\PSoC4/DATA_TIMER.c **** * Parameters:
 502:.\Generated_Source\PSoC4/DATA_TIMER.c **** *  void
 503:.\Generated_Source\PSoC4/DATA_TIMER.c **** *
 504:.\Generated_Source\PSoC4/DATA_TIMER.c **** * Return:
 505:.\Generated_Source\PSoC4/DATA_TIMER.c **** *  Present compare value.
 506:.\Generated_Source\PSoC4/DATA_TIMER.c **** *
 507:.\Generated_Source\PSoC4/DATA_TIMER.c **** *******************************************************************************/
ARM GAS  C:\Users\Felix\AppData\Local\Temp\ccbIGpaW.s 			page 19


 508:.\Generated_Source\PSoC4/DATA_TIMER.c **** uint32 DATA_TIMER_ReadCounter(void) 
 509:.\Generated_Source\PSoC4/DATA_TIMER.c **** {
 520              		.loc 1 509 0
 521              		.cfi_startproc
 522 0000 80B5     		push	{r7, lr}
 523              		.cfi_def_cfa_offset 8
 524              		.cfi_offset 7, -8
 525              		.cfi_offset 14, -4
 526 0002 00AF     		add	r7, sp, #0
 527              		.cfi_def_cfa_register 7
 510:.\Generated_Source\PSoC4/DATA_TIMER.c ****     /* Force capture by reading Accumulator */
 511:.\Generated_Source\PSoC4/DATA_TIMER.c ****     /* Must first do a software capture to be able to read the counter */
 512:.\Generated_Source\PSoC4/DATA_TIMER.c ****     /* It is up to the user code to make sure there isn't already captured data in the FIFO */
 513:.\Generated_Source\PSoC4/DATA_TIMER.c ****     #if(DATA_TIMER_UsingFixedFunction)
 514:.\Generated_Source\PSoC4/DATA_TIMER.c ****         (void)CY_GET_REG16(DATA_TIMER_COUNTER_LSB_PTR);
 515:.\Generated_Source\PSoC4/DATA_TIMER.c ****     #else
 516:.\Generated_Source\PSoC4/DATA_TIMER.c ****         (void)CY_GET_REG8(DATA_TIMER_COUNTER_LSB_PTR_8BIT);
 528              		.loc 1 516 0
 529 0004 044B     		ldr	r3, .L47
 530 0006 1B78     		ldrb	r3, [r3]
 517:.\Generated_Source\PSoC4/DATA_TIMER.c ****     #endif/* (DATA_TIMER_UsingFixedFunction) */
 518:.\Generated_Source\PSoC4/DATA_TIMER.c **** 
 519:.\Generated_Source\PSoC4/DATA_TIMER.c ****     /* Read the data from the FIFO (or capture register for Fixed Function)*/
 520:.\Generated_Source\PSoC4/DATA_TIMER.c ****     #if(DATA_TIMER_UsingFixedFunction)
 521:.\Generated_Source\PSoC4/DATA_TIMER.c ****         return ((uint32)CY_GET_REG16(DATA_TIMER_CAPTURE_LSB_PTR));
 522:.\Generated_Source\PSoC4/DATA_TIMER.c ****     #else
 523:.\Generated_Source\PSoC4/DATA_TIMER.c ****         return (CY_GET_REG24(DATA_TIMER_CAPTURE_LSB_PTR));
 531              		.loc 1 523 0
 532 0008 044B     		ldr	r3, .L47+4
 533 000a 181C     		mov	r0, r3
 534 000c FFF7FEFF 		bl	CyGetReg24
 535 0010 031C     		mov	r3, r0
 524:.\Generated_Source\PSoC4/DATA_TIMER.c ****     #endif /* (DATA_TIMER_UsingFixedFunction) */
 525:.\Generated_Source\PSoC4/DATA_TIMER.c **** }
 536              		.loc 1 525 0
 537 0012 181C     		mov	r0, r3
 538 0014 BD46     		mov	sp, r7
 539              		@ sp needed
 540 0016 80BD     		pop	{r7, pc}
 541              	.L48:
 542              		.align	2
 543              	.L47:
 544 0018 00000F40 		.word	1074724864
 545 001c 40000F40 		.word	1074724928
 546              		.cfi_endproc
 547              	.LFE13:
 548              		.size	DATA_TIMER_ReadCounter, .-DATA_TIMER_ReadCounter
 549              		.section	.text.DATA_TIMER_ClearFIFO,"ax",%progbits
 550              		.align	2
 551              		.global	DATA_TIMER_ClearFIFO
 552              		.code	16
 553              		.thumb_func
 554              		.type	DATA_TIMER_ClearFIFO, %function
 555              	DATA_TIMER_ClearFIFO:
 556              	.LFB14:
 526:.\Generated_Source\PSoC4/DATA_TIMER.c **** 
 527:.\Generated_Source\PSoC4/DATA_TIMER.c **** 
ARM GAS  C:\Users\Felix\AppData\Local\Temp\ccbIGpaW.s 			page 20


 528:.\Generated_Source\PSoC4/DATA_TIMER.c **** #if(!DATA_TIMER_UsingFixedFunction) /* UDB Specific Functions */
 529:.\Generated_Source\PSoC4/DATA_TIMER.c **** 
 530:.\Generated_Source\PSoC4/DATA_TIMER.c ****     
 531:.\Generated_Source\PSoC4/DATA_TIMER.c **** /*******************************************************************************
 532:.\Generated_Source\PSoC4/DATA_TIMER.c ****  * The functions below this point are only available using the UDB
 533:.\Generated_Source\PSoC4/DATA_TIMER.c ****  * implementation.  If a feature is selected, then the API is enabled.
 534:.\Generated_Source\PSoC4/DATA_TIMER.c ****  ******************************************************************************/
 535:.\Generated_Source\PSoC4/DATA_TIMER.c **** 
 536:.\Generated_Source\PSoC4/DATA_TIMER.c **** 
 537:.\Generated_Source\PSoC4/DATA_TIMER.c **** #if (DATA_TIMER_SoftwareCaptureMode)
 538:.\Generated_Source\PSoC4/DATA_TIMER.c **** 
 539:.\Generated_Source\PSoC4/DATA_TIMER.c **** 
 540:.\Generated_Source\PSoC4/DATA_TIMER.c **** /*******************************************************************************
 541:.\Generated_Source\PSoC4/DATA_TIMER.c **** * Function Name: DATA_TIMER_SetCaptureMode
 542:.\Generated_Source\PSoC4/DATA_TIMER.c **** ********************************************************************************
 543:.\Generated_Source\PSoC4/DATA_TIMER.c **** *
 544:.\Generated_Source\PSoC4/DATA_TIMER.c **** * Summary:
 545:.\Generated_Source\PSoC4/DATA_TIMER.c **** *  This function sets the capture mode to either rising or falling edge.
 546:.\Generated_Source\PSoC4/DATA_TIMER.c **** *
 547:.\Generated_Source\PSoC4/DATA_TIMER.c **** * Parameters:
 548:.\Generated_Source\PSoC4/DATA_TIMER.c **** *  captureMode: This parameter sets the capture mode of the UDB capture feature
 549:.\Generated_Source\PSoC4/DATA_TIMER.c **** *  The parameter values are defined using the
 550:.\Generated_Source\PSoC4/DATA_TIMER.c **** *  #define DATA_TIMER__B_TIMER__CM_NONE 0
 551:.\Generated_Source\PSoC4/DATA_TIMER.c **** #define DATA_TIMER__B_TIMER__CM_RISINGEDGE 1
 552:.\Generated_Source\PSoC4/DATA_TIMER.c **** #define DATA_TIMER__B_TIMER__CM_FALLINGEDGE 2
 553:.\Generated_Source\PSoC4/DATA_TIMER.c **** #define DATA_TIMER__B_TIMER__CM_EITHEREDGE 3
 554:.\Generated_Source\PSoC4/DATA_TIMER.c **** #define DATA_TIMER__B_TIMER__CM_SOFTWARE 4
 555:.\Generated_Source\PSoC4/DATA_TIMER.c ****  identifiers
 556:.\Generated_Source\PSoC4/DATA_TIMER.c **** *  The following are the possible values of the parameter
 557:.\Generated_Source\PSoC4/DATA_TIMER.c **** *  DATA_TIMER__B_TIMER__CM_NONE        - Set Capture mode to None
 558:.\Generated_Source\PSoC4/DATA_TIMER.c **** *  DATA_TIMER__B_TIMER__CM_RISINGEDGE  - Rising edge of Capture input
 559:.\Generated_Source\PSoC4/DATA_TIMER.c **** *  DATA_TIMER__B_TIMER__CM_FALLINGEDGE - Falling edge of Capture input
 560:.\Generated_Source\PSoC4/DATA_TIMER.c **** *  DATA_TIMER__B_TIMER__CM_EITHEREDGE  - Either edge of Capture input
 561:.\Generated_Source\PSoC4/DATA_TIMER.c **** *
 562:.\Generated_Source\PSoC4/DATA_TIMER.c **** * Return:
 563:.\Generated_Source\PSoC4/DATA_TIMER.c **** *  void
 564:.\Generated_Source\PSoC4/DATA_TIMER.c **** *
 565:.\Generated_Source\PSoC4/DATA_TIMER.c **** *******************************************************************************/
 566:.\Generated_Source\PSoC4/DATA_TIMER.c **** void DATA_TIMER_SetCaptureMode(uint8 captureMode) 
 567:.\Generated_Source\PSoC4/DATA_TIMER.c **** {
 568:.\Generated_Source\PSoC4/DATA_TIMER.c ****     /* This must only set to two bits of the control register associated */
 569:.\Generated_Source\PSoC4/DATA_TIMER.c ****     captureMode = ((uint8)((uint8)captureMode << DATA_TIMER_CTRL_CAP_MODE_SHIFT));
 570:.\Generated_Source\PSoC4/DATA_TIMER.c ****     captureMode &= (DATA_TIMER_CTRL_CAP_MODE_MASK);
 571:.\Generated_Source\PSoC4/DATA_TIMER.c **** 
 572:.\Generated_Source\PSoC4/DATA_TIMER.c ****     #if (!DATA_TIMER_UDB_CONTROL_REG_REMOVED)
 573:.\Generated_Source\PSoC4/DATA_TIMER.c ****         /* Clear the Current Setting */
 574:.\Generated_Source\PSoC4/DATA_TIMER.c ****         DATA_TIMER_CONTROL &= ((uint8)(~DATA_TIMER_CTRL_CAP_MODE_MASK));
 575:.\Generated_Source\PSoC4/DATA_TIMER.c **** 
 576:.\Generated_Source\PSoC4/DATA_TIMER.c ****         /* Write The New Setting */
 577:.\Generated_Source\PSoC4/DATA_TIMER.c ****         DATA_TIMER_CONTROL |= captureMode;
 578:.\Generated_Source\PSoC4/DATA_TIMER.c ****     #endif /* (!DATA_TIMER_UDB_CONTROL_REG_REMOVED) */
 579:.\Generated_Source\PSoC4/DATA_TIMER.c **** }
 580:.\Generated_Source\PSoC4/DATA_TIMER.c **** #endif /* Remove API if Capture Mode is not Software Controlled */
 581:.\Generated_Source\PSoC4/DATA_TIMER.c **** 
 582:.\Generated_Source\PSoC4/DATA_TIMER.c **** 
 583:.\Generated_Source\PSoC4/DATA_TIMER.c **** #if (DATA_TIMER_SoftwareTriggerMode)
 584:.\Generated_Source\PSoC4/DATA_TIMER.c **** 
ARM GAS  C:\Users\Felix\AppData\Local\Temp\ccbIGpaW.s 			page 21


 585:.\Generated_Source\PSoC4/DATA_TIMER.c **** 
 586:.\Generated_Source\PSoC4/DATA_TIMER.c **** /*******************************************************************************
 587:.\Generated_Source\PSoC4/DATA_TIMER.c **** * Function Name: DATA_TIMER_SetTriggerMode
 588:.\Generated_Source\PSoC4/DATA_TIMER.c **** ********************************************************************************
 589:.\Generated_Source\PSoC4/DATA_TIMER.c **** *
 590:.\Generated_Source\PSoC4/DATA_TIMER.c **** * Summary:
 591:.\Generated_Source\PSoC4/DATA_TIMER.c **** *  This function sets the trigger input mode
 592:.\Generated_Source\PSoC4/DATA_TIMER.c **** *
 593:.\Generated_Source\PSoC4/DATA_TIMER.c **** * Parameters:
 594:.\Generated_Source\PSoC4/DATA_TIMER.c **** *  triggerMode: Pass one of the pre-defined Trigger Modes (except Software)
 595:.\Generated_Source\PSoC4/DATA_TIMER.c ****     #define DATA_TIMER__B_TIMER__TM_NONE 0x00u
 596:.\Generated_Source\PSoC4/DATA_TIMER.c ****     #define DATA_TIMER__B_TIMER__TM_RISINGEDGE 0x04u
 597:.\Generated_Source\PSoC4/DATA_TIMER.c ****     #define DATA_TIMER__B_TIMER__TM_FALLINGEDGE 0x08u
 598:.\Generated_Source\PSoC4/DATA_TIMER.c ****     #define DATA_TIMER__B_TIMER__TM_EITHEREDGE 0x0Cu
 599:.\Generated_Source\PSoC4/DATA_TIMER.c ****     #define DATA_TIMER__B_TIMER__TM_SOFTWARE 0x10u
 600:.\Generated_Source\PSoC4/DATA_TIMER.c **** *
 601:.\Generated_Source\PSoC4/DATA_TIMER.c **** * Return:
 602:.\Generated_Source\PSoC4/DATA_TIMER.c **** *  void
 603:.\Generated_Source\PSoC4/DATA_TIMER.c **** *
 604:.\Generated_Source\PSoC4/DATA_TIMER.c **** *******************************************************************************/
 605:.\Generated_Source\PSoC4/DATA_TIMER.c **** void DATA_TIMER_SetTriggerMode(uint8 triggerMode) 
 606:.\Generated_Source\PSoC4/DATA_TIMER.c **** {
 607:.\Generated_Source\PSoC4/DATA_TIMER.c ****     /* This must only set to two bits of the control register associated */
 608:.\Generated_Source\PSoC4/DATA_TIMER.c ****     triggerMode &= DATA_TIMER_CTRL_TRIG_MODE_MASK;
 609:.\Generated_Source\PSoC4/DATA_TIMER.c **** 
 610:.\Generated_Source\PSoC4/DATA_TIMER.c ****     #if (!DATA_TIMER_UDB_CONTROL_REG_REMOVED)   /* Remove assignment if control register is removed
 611:.\Generated_Source\PSoC4/DATA_TIMER.c ****     
 612:.\Generated_Source\PSoC4/DATA_TIMER.c ****         /* Clear the Current Setting */
 613:.\Generated_Source\PSoC4/DATA_TIMER.c ****         DATA_TIMER_CONTROL &= ((uint8)(~DATA_TIMER_CTRL_TRIG_MODE_MASK));
 614:.\Generated_Source\PSoC4/DATA_TIMER.c **** 
 615:.\Generated_Source\PSoC4/DATA_TIMER.c ****         /* Write The New Setting */
 616:.\Generated_Source\PSoC4/DATA_TIMER.c ****         DATA_TIMER_CONTROL |= (triggerMode | DATA_TIMER__B_TIMER__TM_SOFTWARE);
 617:.\Generated_Source\PSoC4/DATA_TIMER.c ****     #endif /* Remove code section if control register is not used */
 618:.\Generated_Source\PSoC4/DATA_TIMER.c **** }
 619:.\Generated_Source\PSoC4/DATA_TIMER.c **** #endif /* Remove API if Trigger Mode is not Software Controlled */
 620:.\Generated_Source\PSoC4/DATA_TIMER.c **** 
 621:.\Generated_Source\PSoC4/DATA_TIMER.c **** #if (DATA_TIMER_EnableTriggerMode)
 622:.\Generated_Source\PSoC4/DATA_TIMER.c **** 
 623:.\Generated_Source\PSoC4/DATA_TIMER.c **** 
 624:.\Generated_Source\PSoC4/DATA_TIMER.c **** /*******************************************************************************
 625:.\Generated_Source\PSoC4/DATA_TIMER.c **** * Function Name: DATA_TIMER_EnableTrigger
 626:.\Generated_Source\PSoC4/DATA_TIMER.c **** ********************************************************************************
 627:.\Generated_Source\PSoC4/DATA_TIMER.c **** *
 628:.\Generated_Source\PSoC4/DATA_TIMER.c **** * Summary:
 629:.\Generated_Source\PSoC4/DATA_TIMER.c **** *  Sets the control bit enabling Hardware Trigger mode
 630:.\Generated_Source\PSoC4/DATA_TIMER.c **** *
 631:.\Generated_Source\PSoC4/DATA_TIMER.c **** * Parameters:
 632:.\Generated_Source\PSoC4/DATA_TIMER.c **** *  void
 633:.\Generated_Source\PSoC4/DATA_TIMER.c **** *
 634:.\Generated_Source\PSoC4/DATA_TIMER.c **** * Return:
 635:.\Generated_Source\PSoC4/DATA_TIMER.c **** *  void
 636:.\Generated_Source\PSoC4/DATA_TIMER.c **** *
 637:.\Generated_Source\PSoC4/DATA_TIMER.c **** *******************************************************************************/
 638:.\Generated_Source\PSoC4/DATA_TIMER.c **** void DATA_TIMER_EnableTrigger(void) 
 639:.\Generated_Source\PSoC4/DATA_TIMER.c **** {
 640:.\Generated_Source\PSoC4/DATA_TIMER.c ****     #if (!DATA_TIMER_UDB_CONTROL_REG_REMOVED)   /* Remove assignment if control register is removed
 641:.\Generated_Source\PSoC4/DATA_TIMER.c ****         DATA_TIMER_CONTROL |= DATA_TIMER_CTRL_TRIG_EN;
ARM GAS  C:\Users\Felix\AppData\Local\Temp\ccbIGpaW.s 			page 22


 642:.\Generated_Source\PSoC4/DATA_TIMER.c ****     #endif /* Remove code section if control register is not used */
 643:.\Generated_Source\PSoC4/DATA_TIMER.c **** }
 644:.\Generated_Source\PSoC4/DATA_TIMER.c **** 
 645:.\Generated_Source\PSoC4/DATA_TIMER.c **** 
 646:.\Generated_Source\PSoC4/DATA_TIMER.c **** /*******************************************************************************
 647:.\Generated_Source\PSoC4/DATA_TIMER.c **** * Function Name: DATA_TIMER_DisableTrigger
 648:.\Generated_Source\PSoC4/DATA_TIMER.c **** ********************************************************************************
 649:.\Generated_Source\PSoC4/DATA_TIMER.c **** *
 650:.\Generated_Source\PSoC4/DATA_TIMER.c **** * Summary:
 651:.\Generated_Source\PSoC4/DATA_TIMER.c **** *  Clears the control bit enabling Hardware Trigger mode
 652:.\Generated_Source\PSoC4/DATA_TIMER.c **** *
 653:.\Generated_Source\PSoC4/DATA_TIMER.c **** * Parameters:
 654:.\Generated_Source\PSoC4/DATA_TIMER.c **** *  void
 655:.\Generated_Source\PSoC4/DATA_TIMER.c **** *
 656:.\Generated_Source\PSoC4/DATA_TIMER.c **** * Return:
 657:.\Generated_Source\PSoC4/DATA_TIMER.c **** *  void
 658:.\Generated_Source\PSoC4/DATA_TIMER.c **** *
 659:.\Generated_Source\PSoC4/DATA_TIMER.c **** *******************************************************************************/
 660:.\Generated_Source\PSoC4/DATA_TIMER.c **** void DATA_TIMER_DisableTrigger(void) 
 661:.\Generated_Source\PSoC4/DATA_TIMER.c **** {
 662:.\Generated_Source\PSoC4/DATA_TIMER.c ****     #if (!DATA_TIMER_UDB_CONTROL_REG_REMOVED )   /* Remove assignment if control register is remove
 663:.\Generated_Source\PSoC4/DATA_TIMER.c ****         DATA_TIMER_CONTROL &= ((uint8)(~DATA_TIMER_CTRL_TRIG_EN));
 664:.\Generated_Source\PSoC4/DATA_TIMER.c ****     #endif /* Remove code section if control register is not used */
 665:.\Generated_Source\PSoC4/DATA_TIMER.c **** }
 666:.\Generated_Source\PSoC4/DATA_TIMER.c **** #endif /* Remove API is Trigger Mode is set to None */
 667:.\Generated_Source\PSoC4/DATA_TIMER.c **** 
 668:.\Generated_Source\PSoC4/DATA_TIMER.c **** #if(DATA_TIMER_InterruptOnCaptureCount)
 669:.\Generated_Source\PSoC4/DATA_TIMER.c **** 
 670:.\Generated_Source\PSoC4/DATA_TIMER.c **** 
 671:.\Generated_Source\PSoC4/DATA_TIMER.c **** /*******************************************************************************
 672:.\Generated_Source\PSoC4/DATA_TIMER.c **** * Function Name: DATA_TIMER_SetInterruptCount
 673:.\Generated_Source\PSoC4/DATA_TIMER.c **** ********************************************************************************
 674:.\Generated_Source\PSoC4/DATA_TIMER.c **** *
 675:.\Generated_Source\PSoC4/DATA_TIMER.c **** * Summary:
 676:.\Generated_Source\PSoC4/DATA_TIMER.c **** *  This function sets the capture count before an interrupt is triggered.
 677:.\Generated_Source\PSoC4/DATA_TIMER.c **** *
 678:.\Generated_Source\PSoC4/DATA_TIMER.c **** * Parameters:
 679:.\Generated_Source\PSoC4/DATA_TIMER.c **** *  interruptCount:  A value between 0 and 3 is valid.  If the value is 0, then
 680:.\Generated_Source\PSoC4/DATA_TIMER.c **** *                   an interrupt will occur each time a capture occurs.
 681:.\Generated_Source\PSoC4/DATA_TIMER.c **** *                   A value of 1 to 3 will cause the interrupt
 682:.\Generated_Source\PSoC4/DATA_TIMER.c **** *                   to delay by the same number of captures.
 683:.\Generated_Source\PSoC4/DATA_TIMER.c **** *
 684:.\Generated_Source\PSoC4/DATA_TIMER.c **** * Return:
 685:.\Generated_Source\PSoC4/DATA_TIMER.c **** *  void
 686:.\Generated_Source\PSoC4/DATA_TIMER.c **** *
 687:.\Generated_Source\PSoC4/DATA_TIMER.c **** *******************************************************************************/
 688:.\Generated_Source\PSoC4/DATA_TIMER.c **** void DATA_TIMER_SetInterruptCount(uint8 interruptCount) 
 689:.\Generated_Source\PSoC4/DATA_TIMER.c **** {
 690:.\Generated_Source\PSoC4/DATA_TIMER.c ****     /* This must only set to two bits of the control register associated */
 691:.\Generated_Source\PSoC4/DATA_TIMER.c ****     interruptCount &= DATA_TIMER_CTRL_INTCNT_MASK;
 692:.\Generated_Source\PSoC4/DATA_TIMER.c **** 
 693:.\Generated_Source\PSoC4/DATA_TIMER.c ****     #if (!DATA_TIMER_UDB_CONTROL_REG_REMOVED)
 694:.\Generated_Source\PSoC4/DATA_TIMER.c ****         /* Clear the Current Setting */
 695:.\Generated_Source\PSoC4/DATA_TIMER.c ****         DATA_TIMER_CONTROL &= ((uint8)(~DATA_TIMER_CTRL_INTCNT_MASK));
 696:.\Generated_Source\PSoC4/DATA_TIMER.c ****         /* Write The New Setting */
 697:.\Generated_Source\PSoC4/DATA_TIMER.c ****         DATA_TIMER_CONTROL |= interruptCount;
 698:.\Generated_Source\PSoC4/DATA_TIMER.c ****     #endif /* (!DATA_TIMER_UDB_CONTROL_REG_REMOVED) */
ARM GAS  C:\Users\Felix\AppData\Local\Temp\ccbIGpaW.s 			page 23


 699:.\Generated_Source\PSoC4/DATA_TIMER.c **** }
 700:.\Generated_Source\PSoC4/DATA_TIMER.c **** #endif /* DATA_TIMER_InterruptOnCaptureCount */
 701:.\Generated_Source\PSoC4/DATA_TIMER.c **** 
 702:.\Generated_Source\PSoC4/DATA_TIMER.c **** 
 703:.\Generated_Source\PSoC4/DATA_TIMER.c **** #if (DATA_TIMER_UsingHWCaptureCounter)
 704:.\Generated_Source\PSoC4/DATA_TIMER.c **** 
 705:.\Generated_Source\PSoC4/DATA_TIMER.c **** 
 706:.\Generated_Source\PSoC4/DATA_TIMER.c **** /*******************************************************************************
 707:.\Generated_Source\PSoC4/DATA_TIMER.c **** * Function Name: DATA_TIMER_SetCaptureCount
 708:.\Generated_Source\PSoC4/DATA_TIMER.c **** ********************************************************************************
 709:.\Generated_Source\PSoC4/DATA_TIMER.c **** *
 710:.\Generated_Source\PSoC4/DATA_TIMER.c **** * Summary:
 711:.\Generated_Source\PSoC4/DATA_TIMER.c **** *  This function sets the capture count
 712:.\Generated_Source\PSoC4/DATA_TIMER.c **** *
 713:.\Generated_Source\PSoC4/DATA_TIMER.c **** * Parameters:
 714:.\Generated_Source\PSoC4/DATA_TIMER.c **** *  captureCount: A value between 2 and 127 inclusive is valid.  A value of 1
 715:.\Generated_Source\PSoC4/DATA_TIMER.c **** *                to 127 will cause the interrupt to delay by the same number of
 716:.\Generated_Source\PSoC4/DATA_TIMER.c **** *                captures.
 717:.\Generated_Source\PSoC4/DATA_TIMER.c **** *
 718:.\Generated_Source\PSoC4/DATA_TIMER.c **** * Return:
 719:.\Generated_Source\PSoC4/DATA_TIMER.c **** *  void
 720:.\Generated_Source\PSoC4/DATA_TIMER.c **** *
 721:.\Generated_Source\PSoC4/DATA_TIMER.c **** *******************************************************************************/
 722:.\Generated_Source\PSoC4/DATA_TIMER.c **** void DATA_TIMER_SetCaptureCount(uint8 captureCount) 
 723:.\Generated_Source\PSoC4/DATA_TIMER.c **** {
 724:.\Generated_Source\PSoC4/DATA_TIMER.c ****     DATA_TIMER_CAP_COUNT = captureCount;
 725:.\Generated_Source\PSoC4/DATA_TIMER.c **** }
 726:.\Generated_Source\PSoC4/DATA_TIMER.c **** 
 727:.\Generated_Source\PSoC4/DATA_TIMER.c **** 
 728:.\Generated_Source\PSoC4/DATA_TIMER.c **** /*******************************************************************************
 729:.\Generated_Source\PSoC4/DATA_TIMER.c **** * Function Name: DATA_TIMER_ReadCaptureCount
 730:.\Generated_Source\PSoC4/DATA_TIMER.c **** ********************************************************************************
 731:.\Generated_Source\PSoC4/DATA_TIMER.c **** *
 732:.\Generated_Source\PSoC4/DATA_TIMER.c **** * Summary:
 733:.\Generated_Source\PSoC4/DATA_TIMER.c **** *  This function reads the capture count setting
 734:.\Generated_Source\PSoC4/DATA_TIMER.c **** *
 735:.\Generated_Source\PSoC4/DATA_TIMER.c **** * Parameters:
 736:.\Generated_Source\PSoC4/DATA_TIMER.c **** *  void
 737:.\Generated_Source\PSoC4/DATA_TIMER.c **** *
 738:.\Generated_Source\PSoC4/DATA_TIMER.c **** * Return:
 739:.\Generated_Source\PSoC4/DATA_TIMER.c **** *  Returns the Capture Count Setting
 740:.\Generated_Source\PSoC4/DATA_TIMER.c **** *
 741:.\Generated_Source\PSoC4/DATA_TIMER.c **** *******************************************************************************/
 742:.\Generated_Source\PSoC4/DATA_TIMER.c **** uint8 DATA_TIMER_ReadCaptureCount(void) 
 743:.\Generated_Source\PSoC4/DATA_TIMER.c **** {
 744:.\Generated_Source\PSoC4/DATA_TIMER.c ****     return ((uint8)DATA_TIMER_CAP_COUNT);
 745:.\Generated_Source\PSoC4/DATA_TIMER.c **** }
 746:.\Generated_Source\PSoC4/DATA_TIMER.c **** #endif /* DATA_TIMER_UsingHWCaptureCounter */
 747:.\Generated_Source\PSoC4/DATA_TIMER.c **** 
 748:.\Generated_Source\PSoC4/DATA_TIMER.c **** 
 749:.\Generated_Source\PSoC4/DATA_TIMER.c **** /*******************************************************************************
 750:.\Generated_Source\PSoC4/DATA_TIMER.c **** * Function Name: DATA_TIMER_ClearFIFO
 751:.\Generated_Source\PSoC4/DATA_TIMER.c **** ********************************************************************************
 752:.\Generated_Source\PSoC4/DATA_TIMER.c **** *
 753:.\Generated_Source\PSoC4/DATA_TIMER.c **** * Summary:
 754:.\Generated_Source\PSoC4/DATA_TIMER.c **** *  This function clears all capture data from the capture FIFO
 755:.\Generated_Source\PSoC4/DATA_TIMER.c **** *
ARM GAS  C:\Users\Felix\AppData\Local\Temp\ccbIGpaW.s 			page 24


 756:.\Generated_Source\PSoC4/DATA_TIMER.c **** * Parameters:
 757:.\Generated_Source\PSoC4/DATA_TIMER.c **** *  void
 758:.\Generated_Source\PSoC4/DATA_TIMER.c **** *
 759:.\Generated_Source\PSoC4/DATA_TIMER.c **** * Return:
 760:.\Generated_Source\PSoC4/DATA_TIMER.c **** *  void
 761:.\Generated_Source\PSoC4/DATA_TIMER.c **** *
 762:.\Generated_Source\PSoC4/DATA_TIMER.c **** *******************************************************************************/
 763:.\Generated_Source\PSoC4/DATA_TIMER.c **** void DATA_TIMER_ClearFIFO(void) 
 764:.\Generated_Source\PSoC4/DATA_TIMER.c **** {
 557              		.loc 1 764 0
 558              		.cfi_startproc
 559 0000 80B5     		push	{r7, lr}
 560              		.cfi_def_cfa_offset 8
 561              		.cfi_offset 7, -8
 562              		.cfi_offset 14, -4
 563 0002 00AF     		add	r7, sp, #0
 564              		.cfi_def_cfa_register 7
 765:.\Generated_Source\PSoC4/DATA_TIMER.c ****     while(0u != (DATA_TIMER_ReadStatusRegister() & DATA_TIMER_STATUS_FIFONEMP))
 565              		.loc 1 765 0
 566 0004 01E0     		b	.L50
 567              	.L51:
 766:.\Generated_Source\PSoC4/DATA_TIMER.c ****     {
 767:.\Generated_Source\PSoC4/DATA_TIMER.c ****         (void)DATA_TIMER_ReadCapture();
 568              		.loc 1 767 0
 569 0006 FFF7FEFF 		bl	DATA_TIMER_ReadCapture
 570              	.L50:
 765:.\Generated_Source\PSoC4/DATA_TIMER.c ****     while(0u != (DATA_TIMER_ReadStatusRegister() & DATA_TIMER_STATUS_FIFONEMP))
 571              		.loc 1 765 0 discriminator 1
 572 000a FFF7FEFF 		bl	DATA_TIMER_ReadStatusRegister
 573 000e 031C     		mov	r3, r0
 574 0010 1A1C     		mov	r2, r3
 575 0012 0823     		mov	r3, #8
 576 0014 1340     		and	r3, r2
 577 0016 F6D1     		bne	.L51
 768:.\Generated_Source\PSoC4/DATA_TIMER.c ****     }
 769:.\Generated_Source\PSoC4/DATA_TIMER.c **** }
 578              		.loc 1 769 0
 579 0018 BD46     		mov	sp, r7
 580              		@ sp needed
 581 001a 80BD     		pop	{r7, pc}
 582              		.cfi_endproc
 583              	.LFE14:
 584              		.size	DATA_TIMER_ClearFIFO, .-DATA_TIMER_ClearFIFO
 585              		.text
 586              	.Letext0:
 587              		.file 2 ".\\Generated_Source\\PSoC4\\cytypes.h"