ARM GAS  C:\Users\Felix\AppData\Local\Temp\cc9X9vvS.s 			page 1


   1              		.cpu cortex-m0
   2              		.fpu softvfp
   3              		.eabi_attribute 20, 1
   4              		.eabi_attribute 21, 1
   5              		.eabi_attribute 23, 3
   6              		.eabi_attribute 24, 1
   7              		.eabi_attribute 25, 1
   8              		.eabi_attribute 26, 1
   9              		.eabi_attribute 30, 6
  10              		.eabi_attribute 34, 0
  11              		.eabi_attribute 18, 4
  12              		.code	16
  13              		.file	"fix16_sqrt.c"
  14              		.text
  15              	.Ltext0:
  16              		.cfi_sections	.debug_frame
  17              		.section	.rodata
  18              		.align	2
  19              		.type	FOUR_DIV_PI, %object
  20              		.size	FOUR_DIV_PI, 4
  21              	FOUR_DIV_PI:
  22 0000 F3450100 		.word	83443
  23              		.align	2
  24              		.type	_FOUR_DIV_PI2, %object
  25              		.size	_FOUR_DIV_PI2, 4
  26              	_FOUR_DIV_PI2:
  27 0004 4098FFFF 		.word	-26560
  28              		.align	2
  29              		.type	X4_CORRECTION_COMPONENT, %object
  30              		.size	X4_CORRECTION_COMPONENT, 4
  31              	X4_CORRECTION_COMPONENT:
  32 0008 9A390000 		.word	14746
  33              		.align	2
  34              		.type	PI_DIV_4, %object
  35              		.size	PI_DIV_4, 4
  36              	PI_DIV_4:
  37 000c 0FC90000 		.word	51471
  38              		.align	2
  39              		.type	THREE_PI_DIV_4, %object
  40              		.size	THREE_PI_DIV_4, 4
  41              	THREE_PI_DIV_4:
  42 0010 2F5B0200 		.word	154415
  43              		.align	2
  44              		.type	fix16_max, %object
  45              		.size	fix16_max, 4
  46              	fix16_max:
  47 0014 FFFFFF7F 		.word	2147483647
  48              		.align	2
  49              		.type	fix16_min, %object
  50              		.size	fix16_min, 4
  51              	fix16_min:
  52 0018 00000080 		.word	-2147483648
  53              		.align	2
  54              		.type	fix16_overflow, %object
  55              		.size	fix16_overflow, 4
  56              	fix16_overflow:
  57 001c 00000080 		.word	-2147483648
ARM GAS  C:\Users\Felix\AppData\Local\Temp\cc9X9vvS.s 			page 2


  58              		.align	2
  59              		.type	fix16_pi, %object
  60              		.size	fix16_pi, 4
  61              	fix16_pi:
  62 0020 3F240300 		.word	205887
  63              		.align	2
  64              		.type	fix16_e, %object
  65              		.size	fix16_e, 4
  66              	fix16_e:
  67 0024 E1B70200 		.word	178145
  68              		.align	2
  69              		.type	fix16_one, %object
  70              		.size	fix16_one, 4
  71              	fix16_one:
  72 0028 00000100 		.word	65536
  73              		.section	.text.fix16_sqrt,"ax",%progbits
  74              		.align	2
  75              		.global	fix16_sqrt
  76              		.code	16
  77              		.thumb_func
  78              		.type	fix16_sqrt, %function
  79              	fix16_sqrt:
  80              	.LFB6:
  81              		.file 1 ".\\libfixmath\\fix16_sqrt.c"
   1:.\libfixmath/fix16_sqrt.c **** #include "fix16.h"
   2:.\libfixmath/fix16_sqrt.c **** 
   3:.\libfixmath/fix16_sqrt.c **** /* The square root algorithm is quite directly from
   4:.\libfixmath/fix16_sqrt.c ****  * http://en.wikipedia.org/wiki/Methods_of_computing_square_roots#Binary_numeral_system_.28base_2.2
   5:.\libfixmath/fix16_sqrt.c ****  * An important difference is that it is split to two parts
   6:.\libfixmath/fix16_sqrt.c ****  * in order to use only 32-bit operations.
   7:.\libfixmath/fix16_sqrt.c ****  *
   8:.\libfixmath/fix16_sqrt.c ****  * Note that for negative numbers we return -sqrt(-inValue).
   9:.\libfixmath/fix16_sqrt.c ****  * Not sure if someone relies on this behaviour, but not going
  10:.\libfixmath/fix16_sqrt.c ****  * to break it for now. It doesn't slow the code much overall.
  11:.\libfixmath/fix16_sqrt.c ****  */
  12:.\libfixmath/fix16_sqrt.c **** fix16_t fix16_sqrt(fix16_t inValue) {
  82              		.loc 1 12 0
  83              		.cfi_startproc
  84 0000 80B5     		push	{r7, lr}
  85              		.cfi_def_cfa_offset 8
  86              		.cfi_offset 7, -8
  87              		.cfi_offset 14, -4
  88 0002 86B0     		sub	sp, sp, #24
  89              		.cfi_def_cfa_offset 32
  90 0004 00AF     		add	r7, sp, #0
  91              		.cfi_def_cfa_register 7
  92 0006 7860     		str	r0, [r7, #4]
  13:.\libfixmath/fix16_sqrt.c ****   uint8_t neg = (inValue < 0);
  93              		.loc 1 13 0
  94 0008 7B68     		ldr	r3, [r7, #4]
  95 000a DB0F     		lsr	r3, r3, #31
  96 000c DAB2     		uxtb	r2, r3
  97 000e 3B1C     		mov	r3, r7
  98 0010 0A33     		add	r3, r3, #10
  99 0012 1A70     		strb	r2, [r3]
  14:.\libfixmath/fix16_sqrt.c ****   uint32_t num = (neg ? -inValue : inValue);
 100              		.loc 1 14 0
ARM GAS  C:\Users\Felix\AppData\Local\Temp\cc9X9vvS.s 			page 3


 101 0014 3B1C     		mov	r3, r7
 102 0016 0A33     		add	r3, r3, #10
 103 0018 1B78     		ldrb	r3, [r3]
 104 001a 002B     		cmp	r3, #0
 105 001c 02D0     		beq	.L2
 106              		.loc 1 14 0 is_stmt 0 discriminator 1
 107 001e 7B68     		ldr	r3, [r7, #4]
 108 0020 5B42     		neg	r3, r3
 109 0022 00E0     		b	.L3
 110              	.L2:
 111              		.loc 1 14 0 discriminator 2
 112 0024 7B68     		ldr	r3, [r7, #4]
 113              	.L3:
 114              		.loc 1 14 0 discriminator 3
 115 0026 7B61     		str	r3, [r7, #20]
  15:.\libfixmath/fix16_sqrt.c ****   uint32_t result = 0;
 116              		.loc 1 15 0 is_stmt 1 discriminator 3
 117 0028 0023     		mov	r3, #0
 118 002a 3B61     		str	r3, [r7, #16]
  16:.\libfixmath/fix16_sqrt.c ****   uint32_t bit;
  17:.\libfixmath/fix16_sqrt.c ****   uint8_t n;
  18:.\libfixmath/fix16_sqrt.c ****   
  19:.\libfixmath/fix16_sqrt.c ****   // Many numbers will be less than 15, so
  20:.\libfixmath/fix16_sqrt.c ****   // this gives a good balance between time spent
  21:.\libfixmath/fix16_sqrt.c ****   // in if vs. time spent in the while loop
  22:.\libfixmath/fix16_sqrt.c ****   // when searching for the starting value.
  23:.\libfixmath/fix16_sqrt.c ****   if (num & 0xFFF00000)
 119              		.loc 1 23 0 discriminator 3
 120 002c 7B69     		ldr	r3, [r7, #20]
 121 002e 1B0D     		lsr	r3, r3, #20
 122 0030 1B05     		lsl	r3, r3, #20
 123 0032 03D0     		beq	.L4
  24:.\libfixmath/fix16_sqrt.c ****     bit = (uint32_t)1 << 30;
 124              		.loc 1 24 0
 125 0034 8023     		mov	r3, #128
 126 0036 DB05     		lsl	r3, r3, #23
 127 0038 FB60     		str	r3, [r7, #12]
  25:.\libfixmath/fix16_sqrt.c ****   else
  26:.\libfixmath/fix16_sqrt.c ****     bit = (uint32_t)1 << 18;
  27:.\libfixmath/fix16_sqrt.c ****   
  28:.\libfixmath/fix16_sqrt.c ****   while (bit > num) bit >>= 2;
 128              		.loc 1 28 0
 129 003a 06E0     		b	.L6
 130              	.L4:
  26:.\libfixmath/fix16_sqrt.c ****     bit = (uint32_t)1 << 18;
 131              		.loc 1 26 0
 132 003c 8023     		mov	r3, #128
 133 003e DB02     		lsl	r3, r3, #11
 134 0040 FB60     		str	r3, [r7, #12]
 135              		.loc 1 28 0
 136 0042 02E0     		b	.L6
 137              	.L7:
 138              		.loc 1 28 0 is_stmt 0 discriminator 2
 139 0044 FB68     		ldr	r3, [r7, #12]
 140 0046 9B08     		lsr	r3, r3, #2
 141 0048 FB60     		str	r3, [r7, #12]
 142              	.L6:
ARM GAS  C:\Users\Felix\AppData\Local\Temp\cc9X9vvS.s 			page 4


 143              		.loc 1 28 0 discriminator 1
 144 004a FA68     		ldr	r2, [r7, #12]
 145 004c 7B69     		ldr	r3, [r7, #20]
 146 004e 9A42     		cmp	r2, r3
 147 0050 F8D8     		bhi	.L7
  29:.\libfixmath/fix16_sqrt.c ****   
  30:.\libfixmath/fix16_sqrt.c ****   // The main part is executed twice, in order to avoid
  31:.\libfixmath/fix16_sqrt.c ****   // using 64 bit values in computations.
  32:.\libfixmath/fix16_sqrt.c ****   for (n = 0; n < 2; n++)
 148              		.loc 1 32 0 is_stmt 1
 149 0052 3B1C     		mov	r3, r7
 150 0054 0B33     		add	r3, r3, #11
 151 0056 0022     		mov	r2, #0
 152 0058 1A70     		strb	r2, [r3]
 153 005a 44E0     		b	.L8
 154              	.L16:
  33:.\libfixmath/fix16_sqrt.c ****   {
  34:.\libfixmath/fix16_sqrt.c ****     // First we get the top 24 bits of the answer.
  35:.\libfixmath/fix16_sqrt.c ****     while (bit)
 155              		.loc 1 35 0
 156 005c 17E0     		b	.L9
 157              	.L12:
  36:.\libfixmath/fix16_sqrt.c ****     {
  37:.\libfixmath/fix16_sqrt.c ****       if (num >= result + bit)
 158              		.loc 1 37 0
 159 005e 3A69     		ldr	r2, [r7, #16]
 160 0060 FB68     		ldr	r3, [r7, #12]
 161 0062 D218     		add	r2, r2, r3
 162 0064 7B69     		ldr	r3, [r7, #20]
 163 0066 9A42     		cmp	r2, r3
 164 0068 0BD8     		bhi	.L10
  38:.\libfixmath/fix16_sqrt.c ****       {
  39:.\libfixmath/fix16_sqrt.c ****         num -= result + bit;
 165              		.loc 1 39 0
 166 006a 3A69     		ldr	r2, [r7, #16]
 167 006c FB68     		ldr	r3, [r7, #12]
 168 006e D318     		add	r3, r2, r3
 169 0070 7A69     		ldr	r2, [r7, #20]
 170 0072 D31A     		sub	r3, r2, r3
 171 0074 7B61     		str	r3, [r7, #20]
  40:.\libfixmath/fix16_sqrt.c ****         result = (result >> 1) + bit;
 172              		.loc 1 40 0
 173 0076 3B69     		ldr	r3, [r7, #16]
 174 0078 5A08     		lsr	r2, r3, #1
 175 007a FB68     		ldr	r3, [r7, #12]
 176 007c D318     		add	r3, r2, r3
 177 007e 3B61     		str	r3, [r7, #16]
 178 0080 02E0     		b	.L11
 179              	.L10:
  41:.\libfixmath/fix16_sqrt.c ****       }
  42:.\libfixmath/fix16_sqrt.c ****       else
  43:.\libfixmath/fix16_sqrt.c ****       {
  44:.\libfixmath/fix16_sqrt.c ****         result = (result >> 1);
 180              		.loc 1 44 0
 181 0082 3B69     		ldr	r3, [r7, #16]
 182 0084 5B08     		lsr	r3, r3, #1
 183 0086 3B61     		str	r3, [r7, #16]
ARM GAS  C:\Users\Felix\AppData\Local\Temp\cc9X9vvS.s 			page 5


 184              	.L11:
  45:.\libfixmath/fix16_sqrt.c ****       }
  46:.\libfixmath/fix16_sqrt.c ****       bit >>= 2;
 185              		.loc 1 46 0
 186 0088 FB68     		ldr	r3, [r7, #12]
 187 008a 9B08     		lsr	r3, r3, #2
 188 008c FB60     		str	r3, [r7, #12]
 189              	.L9:
  35:.\libfixmath/fix16_sqrt.c ****     while (bit)
 190              		.loc 1 35 0 discriminator 1
 191 008e FB68     		ldr	r3, [r7, #12]
 192 0090 002B     		cmp	r3, #0
 193 0092 E4D1     		bne	.L12
  47:.\libfixmath/fix16_sqrt.c ****     }
  48:.\libfixmath/fix16_sqrt.c ****     
  49:.\libfixmath/fix16_sqrt.c ****     if (n == 0)
 194              		.loc 1 49 0
 195 0094 3B1C     		mov	r3, r7
 196 0096 0B33     		add	r3, r3, #11
 197 0098 1B78     		ldrb	r3, [r3]
 198 009a 002B     		cmp	r3, #0
 199 009c 1CD1     		bne	.L13
  50:.\libfixmath/fix16_sqrt.c ****     {
  51:.\libfixmath/fix16_sqrt.c ****       // Then process it again to get the lowest 8 bits.
  52:.\libfixmath/fix16_sqrt.c ****       if (num > 65535)
 200              		.loc 1 52 0
 201 009e 7A69     		ldr	r2, [r7, #20]
 202 00a0 1D4B     		ldr	r3, .L21
 203 00a2 9A42     		cmp	r2, r3
 204 00a4 0FD9     		bls	.L14
  53:.\libfixmath/fix16_sqrt.c ****       {
  54:.\libfixmath/fix16_sqrt.c ****         // The remainder 'num' is too large to be shifted left
  55:.\libfixmath/fix16_sqrt.c ****         // by 16, so we have to add 1 to result manually and
  56:.\libfixmath/fix16_sqrt.c ****         // adjust 'num' accordingly.
  57:.\libfixmath/fix16_sqrt.c ****         // num = a - (result + 0.5)^2
  58:.\libfixmath/fix16_sqrt.c ****         //   = num + result^2 - (result + 0.5)^2
  59:.\libfixmath/fix16_sqrt.c ****         //   = num - result - 0.5
  60:.\libfixmath/fix16_sqrt.c ****         num -= result;
 205              		.loc 1 60 0
 206 00a6 7A69     		ldr	r2, [r7, #20]
 207 00a8 3B69     		ldr	r3, [r7, #16]
 208 00aa D31A     		sub	r3, r2, r3
 209 00ac 7B61     		str	r3, [r7, #20]
  61:.\libfixmath/fix16_sqrt.c ****         num = (num << 16) - 0x8000;
 210              		.loc 1 61 0
 211 00ae 7B69     		ldr	r3, [r7, #20]
 212 00b0 1B04     		lsl	r3, r3, #16
 213 00b2 1A4A     		ldr	r2, .L21+4
 214 00b4 9B18     		add	r3, r3, r2
 215 00b6 7B61     		str	r3, [r7, #20]
  62:.\libfixmath/fix16_sqrt.c ****         result = (result << 16) + 0x8000;
 216              		.loc 1 62 0
 217 00b8 3B69     		ldr	r3, [r7, #16]
 218 00ba 1B04     		lsl	r3, r3, #16
 219 00bc 8022     		mov	r2, #128
 220 00be 1202     		lsl	r2, r2, #8
 221 00c0 9B18     		add	r3, r3, r2
ARM GAS  C:\Users\Felix\AppData\Local\Temp\cc9X9vvS.s 			page 6


 222 00c2 3B61     		str	r3, [r7, #16]
 223 00c4 05E0     		b	.L15
 224              	.L14:
  63:.\libfixmath/fix16_sqrt.c ****       }
  64:.\libfixmath/fix16_sqrt.c ****       else
  65:.\libfixmath/fix16_sqrt.c ****       {
  66:.\libfixmath/fix16_sqrt.c ****         num <<= 16;
 225              		.loc 1 66 0
 226 00c6 7B69     		ldr	r3, [r7, #20]
 227 00c8 1B04     		lsl	r3, r3, #16
 228 00ca 7B61     		str	r3, [r7, #20]
  67:.\libfixmath/fix16_sqrt.c ****         result <<= 16;
 229              		.loc 1 67 0
 230 00cc 3B69     		ldr	r3, [r7, #16]
 231 00ce 1B04     		lsl	r3, r3, #16
 232 00d0 3B61     		str	r3, [r7, #16]
 233              	.L15:
  68:.\libfixmath/fix16_sqrt.c ****       }
  69:.\libfixmath/fix16_sqrt.c ****       
  70:.\libfixmath/fix16_sqrt.c ****       bit = 1 << 14;
 234              		.loc 1 70 0
 235 00d2 8023     		mov	r3, #128
 236 00d4 DB01     		lsl	r3, r3, #7
 237 00d6 FB60     		str	r3, [r7, #12]
 238              	.L13:
  32:.\libfixmath/fix16_sqrt.c ****   for (n = 0; n < 2; n++)
 239              		.loc 1 32 0
 240 00d8 3B1C     		mov	r3, r7
 241 00da 0B33     		add	r3, r3, #11
 242 00dc 1A78     		ldrb	r2, [r3]
 243 00de 3B1C     		mov	r3, r7
 244 00e0 0B33     		add	r3, r3, #11
 245 00e2 0132     		add	r2, r2, #1
 246 00e4 1A70     		strb	r2, [r3]
 247              	.L8:
  32:.\libfixmath/fix16_sqrt.c ****   for (n = 0; n < 2; n++)
 248              		.loc 1 32 0 is_stmt 0 discriminator 1
 249 00e6 3B1C     		mov	r3, r7
 250 00e8 0B33     		add	r3, r3, #11
 251 00ea 1B78     		ldrb	r3, [r3]
 252 00ec 012B     		cmp	r3, #1
 253 00ee B5D9     		bls	.L16
  71:.\libfixmath/fix16_sqrt.c ****     }
  72:.\libfixmath/fix16_sqrt.c ****   }
  73:.\libfixmath/fix16_sqrt.c **** 
  74:.\libfixmath/fix16_sqrt.c **** #ifndef FIXMATH_NO_ROUNDING
  75:.\libfixmath/fix16_sqrt.c ****   // Finally, if next bit would have been 1, round the result upwards.
  76:.\libfixmath/fix16_sqrt.c ****   if (num > result)
 254              		.loc 1 76 0 is_stmt 1
 255 00f0 7A69     		ldr	r2, [r7, #20]
 256 00f2 3B69     		ldr	r3, [r7, #16]
 257 00f4 9A42     		cmp	r2, r3
 258 00f6 02D9     		bls	.L17
  77:.\libfixmath/fix16_sqrt.c ****   {
  78:.\libfixmath/fix16_sqrt.c ****     result++;
 259              		.loc 1 78 0
 260 00f8 3B69     		ldr	r3, [r7, #16]
ARM GAS  C:\Users\Felix\AppData\Local\Temp\cc9X9vvS.s 			page 7


 261 00fa 0133     		add	r3, r3, #1
 262 00fc 3B61     		str	r3, [r7, #16]
 263              	.L17:
  79:.\libfixmath/fix16_sqrt.c ****   }
  80:.\libfixmath/fix16_sqrt.c **** #endif
  81:.\libfixmath/fix16_sqrt.c ****   
  82:.\libfixmath/fix16_sqrt.c ****   return (neg ? -result : result);
 264              		.loc 1 82 0
 265 00fe 3B1C     		mov	r3, r7
 266 0100 0A33     		add	r3, r3, #10
 267 0102 1B78     		ldrb	r3, [r3]
 268 0104 002B     		cmp	r3, #0
 269 0106 02D0     		beq	.L18
 270              		.loc 1 82 0 is_stmt 0 discriminator 1
 271 0108 3B69     		ldr	r3, [r7, #16]
 272 010a 5B42     		neg	r3, r3
 273 010c 00E0     		b	.L19
 274              	.L18:
 275              		.loc 1 82 0 discriminator 2
 276 010e 3B69     		ldr	r3, [r7, #16]
 277              	.L19:
  83:.\libfixmath/fix16_sqrt.c **** }
 278              		.loc 1 83 0 is_stmt 1 discriminator 3
 279 0110 181C     		mov	r0, r3
 280 0112 BD46     		mov	sp, r7
 281 0114 06B0     		add	sp, sp, #24
 282              		@ sp needed
 283 0116 80BD     		pop	{r7, pc}
 284              	.L22:
 285              		.align	2
 286              	.L21:
 287 0118 FFFF0000 		.word	65535
 288 011c 0080FFFF 		.word	-32768
 289              		.cfi_endproc
 290              	.LFE6:
 291              		.size	fix16_sqrt, .-fix16_sqrt
 292              		.text
 293              	.Letext0:
 294              		.file 2 "c:\\program files (x86)\\cypress\\psoc creator\\3.1\\psoc creator\\import\\gnu_cs\\arm\\4
 295              		.file 3 "c:\\program files (x86)\\cypress\\psoc creator\\3.1\\psoc creator\\import\\gnu_cs\\arm\\4
 296              		.file 4 ".\\libfixmath\\fix16.h"