ARM GAS  C:\Users\Felix\AppData\Local\Temp\cc0OhXRF.s 			page 1


   1              		.cpu cortex-m0
   2              		.fpu softvfp
   3              		.eabi_attribute 20, 1
   4              		.eabi_attribute 21, 1
   5              		.eabi_attribute 23, 3
   6              		.eabi_attribute 24, 1
   7              		.eabi_attribute 25, 1
   8              		.eabi_attribute 26, 1
   9              		.eabi_attribute 30, 6
  10              		.eabi_attribute 34, 0
  11              		.eabi_attribute 18, 4
  12              		.code	16
  13              		.file	"fixedMath.c"
  14              		.text
  15              	.Ltext0:
  16              		.cfi_sections	.debug_frame
  17              		.section	.text.fix16abs,"ax",%progbits
  18              		.align	2
  19              		.global	fix16abs
  20              		.code	16
  21              		.thumb_func
  22              		.type	fix16abs, %function
  23              	fix16abs:
  24              	.LFB33:
  25              		.file 1 ".\\fixedMath.c"
   1:.\fixedMath.c **** /* ========================================
   2:.\fixedMath.c ****  *
   3:.\fixedMath.c ****  * Copyright YOUR COMPANY, THE YEAR
   4:.\fixedMath.c ****  * All Rights Reserved
   5:.\fixedMath.c ****  * UNPUBLISHED, LICENSED SOFTWARE.
   6:.\fixedMath.c ****  *
   7:.\fixedMath.c ****  * CONFIDENTIAL AND PROPRIETARY INFORMATION
   8:.\fixedMath.c ****  * WHICH IS THE PROPERTY OF your company.
   9:.\fixedMath.c ****  *
  10:.\fixedMath.c ****  * ========================================
  11:.\fixedMath.c **** */
  12:.\fixedMath.c **** 
  13:.\fixedMath.c **** #include "fixedMath.h"
  14:.\fixedMath.c **** #include "stdlib.h"
  15:.\fixedMath.c **** 
  16:.\fixedMath.c **** #define RAD_TO_DEG_SCALE 3754936 // ((360 deg) / (2 * pi rad)) * 2^16
  17:.\fixedMath.c **** 
  18:.\fixedMath.c **** #define COEFF1  51472  // pi/4 * 2^16
  19:.\fixedMath.c **** #define COEFF2 154416  // COEFF1 * 3
  20:.\fixedMath.c **** 
  21:.\fixedMath.c **** fix16_t fix16abs(fix16_t a)
  22:.\fixedMath.c **** {
  26              		.loc 1 22 0
  27              		.cfi_startproc
  28 0000 80B5     		push	{r7, lr}
  29              		.cfi_def_cfa_offset 8
  30              		.cfi_offset 7, -8
  31              		.cfi_offset 14, -4
  32 0002 82B0     		sub	sp, sp, #8
  33              		.cfi_def_cfa_offset 16
  34 0004 00AF     		add	r7, sp, #0
  35              		.cfi_def_cfa_register 7
ARM GAS  C:\Users\Felix\AppData\Local\Temp\cc0OhXRF.s 			page 2


  36 0006 7860     		str	r0, [r7, #4]
  23:.\fixedMath.c ****     if(a < 0) return -a; 
  37              		.loc 1 23 0
  38 0008 7B68     		ldr	r3, [r7, #4]
  39 000a 002B     		cmp	r3, #0
  40 000c 02DA     		bge	.L2
  41              		.loc 1 23 0 is_stmt 0 discriminator 1
  42 000e 7B68     		ldr	r3, [r7, #4]
  43 0010 5B42     		neg	r3, r3
  44 0012 00E0     		b	.L3
  45              	.L2:
  24:.\fixedMath.c ****     else return a;
  46              		.loc 1 24 0 is_stmt 1
  47 0014 7B68     		ldr	r3, [r7, #4]
  48              	.L3:
  25:.\fixedMath.c **** }
  49              		.loc 1 25 0
  50 0016 181C     		mov	r0, r3
  51 0018 BD46     		mov	sp, r7
  52 001a 02B0     		add	sp, sp, #8
  53              		@ sp needed
  54 001c 80BD     		pop	{r7, pc}
  55              		.cfi_endproc
  56              	.LFE33:
  57              		.size	fix16abs, .-fix16abs
  58              		.global	__aeabi_lmul
  59 001e C046     		.section	.text.fix16mul,"ax",%progbits
  60              		.align	2
  61              		.global	fix16mul
  62              		.code	16
  63              		.thumb_func
  64              		.type	fix16mul, %function
  65              	fix16mul:
  66              	.LFB34:
  26:.\fixedMath.c **** 
  27:.\fixedMath.c **** fix16_t fix16mul(fix16_t a, fix16_t b)
  28:.\fixedMath.c **** {
  67              		.loc 1 28 0
  68              		.cfi_startproc
  69 0000 B0B5     		push	{r4, r5, r7, lr}
  70              		.cfi_def_cfa_offset 16
  71              		.cfi_offset 4, -16
  72              		.cfi_offset 5, -12
  73              		.cfi_offset 7, -8
  74              		.cfi_offset 14, -4
  75 0002 84B0     		sub	sp, sp, #16
  76              		.cfi_def_cfa_offset 32
  77 0004 00AF     		add	r7, sp, #0
  78              		.cfi_def_cfa_register 7
  79 0006 F860     		str	r0, [r7, #12]
  80 0008 B960     		str	r1, [r7, #8]
  29:.\fixedMath.c ****     return (fix16_t)(((int64_t) a * (int64_t) b) >> 16);
  81              		.loc 1 29 0
  82 000a F968     		ldr	r1, [r7, #12]
  83 000c 3960     		str	r1, [r7]
  84 000e C917     		asr	r1, r1, #31
  85 0010 7960     		str	r1, [r7, #4]
ARM GAS  C:\Users\Felix\AppData\Local\Temp\cc0OhXRF.s 			page 3


  86 0012 B968     		ldr	r1, [r7, #8]
  87 0014 0A1C     		mov	r2, r1
  88 0016 C917     		asr	r1, r1, #31
  89 0018 0B1C     		mov	r3, r1
  90 001a 3868     		ldr	r0, [r7]
  91 001c 7968     		ldr	r1, [r7, #4]
  92 001e FFF7FEFF 		bl	__aeabi_lmul
  93 0022 021C     		mov	r2, r0
  94 0024 0B1C     		mov	r3, r1
  95 0026 1904     		lsl	r1, r3, #16
  96 0028 140C     		lsr	r4, r2, #16
  97 002a 0C43     		orr	r4, r1
  98 002c 1D14     		asr	r5, r3, #16
  99 002e 231C     		mov	r3, r4
  30:.\fixedMath.c **** }
 100              		.loc 1 30 0
 101 0030 181C     		mov	r0, r3
 102 0032 BD46     		mov	sp, r7
 103 0034 04B0     		add	sp, sp, #16
 104              		@ sp needed
 105 0036 B0BD     		pop	{r4, r5, r7, pc}
 106              		.cfi_endproc
 107              	.LFE34:
 108              		.size	fix16mul, .-fix16mul
 109              		.global	__aeabi_ldivmod
 110              		.section	.text.fix16div,"ax",%progbits
 111              		.align	2
 112              		.global	fix16div
 113              		.code	16
 114              		.thumb_func
 115              		.type	fix16div, %function
 116              	fix16div:
 117              	.LFB35:
  31:.\fixedMath.c **** 
  32:.\fixedMath.c **** fix16_t fix16div(fix16_t a, fix16_t b)
  33:.\fixedMath.c **** {
 118              		.loc 1 33 0
 119              		.cfi_startproc
 120 0000 F0B5     		push	{r4, r5, r6, r7, lr}
 121              		.cfi_def_cfa_offset 20
 122              		.cfi_offset 4, -20
 123              		.cfi_offset 5, -16
 124              		.cfi_offset 6, -12
 125              		.cfi_offset 7, -8
 126              		.cfi_offset 14, -4
 127 0002 85B0     		sub	sp, sp, #20
 128              		.cfi_def_cfa_offset 40
 129 0004 00AF     		add	r7, sp, #0
 130              		.cfi_def_cfa_register 7
 131 0006 F860     		str	r0, [r7, #12]
 132 0008 B960     		str	r1, [r7, #8]
  34:.\fixedMath.c ****     return (fix16_t) (((int64_t)a << 16) / b);
 133              		.loc 1 34 0
 134 000a FA68     		ldr	r2, [r7, #12]
 135 000c 151C     		mov	r5, r2
 136 000e D217     		asr	r2, r2, #31
 137 0010 161C     		mov	r6, r2
ARM GAS  C:\Users\Felix\AppData\Local\Temp\cc0OhXRF.s 			page 4


 138 0012 2A0C     		lsr	r2, r5, #16
 139 0014 3404     		lsl	r4, r6, #16
 140 0016 1443     		orr	r4, r2
 141 0018 2B04     		lsl	r3, r5, #16
 142 001a BA68     		ldr	r2, [r7, #8]
 143 001c 3A60     		str	r2, [r7]
 144 001e D217     		asr	r2, r2, #31
 145 0020 7A60     		str	r2, [r7, #4]
 146 0022 181C     		mov	r0, r3
 147 0024 211C     		mov	r1, r4
 148 0026 3A68     		ldr	r2, [r7]
 149 0028 7B68     		ldr	r3, [r7, #4]
 150 002a FFF7FEFF 		bl	__aeabi_ldivmod
 151 002e 031C     		mov	r3, r0
 152 0030 0C1C     		mov	r4, r1
  35:.\fixedMath.c **** 
  36:.\fixedMath.c **** }
 153              		.loc 1 36 0
 154 0032 181C     		mov	r0, r3
 155 0034 BD46     		mov	sp, r7
 156 0036 05B0     		add	sp, sp, #20
 157              		@ sp needed
 158 0038 F0BD     		pop	{r4, r5, r6, r7, pc}
 159              		.cfi_endproc
 160              	.LFE35:
 161              		.size	fix16div, .-fix16div
 162 003a C046     		.section	.text.fix16atan2,"ax",%progbits
 163              		.align	2
 164              		.global	fix16atan2
 165              		.code	16
 166              		.thumb_func
 167              		.type	fix16atan2, %function
 168              	fix16atan2:
 169              	.LFB36:
  37:.\fixedMath.c **** 
  38:.\fixedMath.c **** /* atan2 implementation is based on Jim Shima's 1999/04/23 algorithm             *
  39:.\fixedMath.c ****  * see: http://dspguru.com//dsp/tricks/fixed-point-atan2-with-self-normalization */
  40:.\fixedMath.c **** fix16_t fix16atan2(fix16_t y, fix16_t x)
  41:.\fixedMath.c **** {
 170              		.loc 1 41 0
 171              		.cfi_startproc
 172 0000 80B5     		push	{r7, lr}
 173              		.cfi_def_cfa_offset 8
 174              		.cfi_offset 7, -8
 175              		.cfi_offset 14, -4
 176 0002 86B0     		sub	sp, sp, #24
 177              		.cfi_def_cfa_offset 32
 178 0004 00AF     		add	r7, sp, #0
 179              		.cfi_def_cfa_register 7
 180 0006 7860     		str	r0, [r7, #4]
 181 0008 3960     		str	r1, [r7]
  42:.\fixedMath.c ****     fix16_t abs_y = fix16abs(y)+1;      // kludge to prevent 0/0 condition
 182              		.loc 1 42 0
 183 000a 7B68     		ldr	r3, [r7, #4]
 184 000c 181C     		mov	r0, r3
 185 000e FFF7FEFF 		bl	fix16abs
 186 0012 031C     		mov	r3, r0
ARM GAS  C:\Users\Felix\AppData\Local\Temp\cc0OhXRF.s 			page 5


 187 0014 0133     		add	r3, r3, #1
 188 0016 3B61     		str	r3, [r7, #16]
  43:.\fixedMath.c ****     fix16_t angle;
  44:.\fixedMath.c ****     if (x>=0)
 189              		.loc 1 44 0
 190 0018 3B68     		ldr	r3, [r7]
 191 001a 002B     		cmp	r3, #0
 192 001c 16DB     		blt	.L9
 193              	.LBB2:
  45:.\fixedMath.c ****     {
  46:.\fixedMath.c ****         fix16_t r = fix16div((x - abs_y),  (x + abs_y));
 194              		.loc 1 46 0
 195 001e 3A68     		ldr	r2, [r7]
 196 0020 3B69     		ldr	r3, [r7, #16]
 197 0022 D21A     		sub	r2, r2, r3
 198 0024 3968     		ldr	r1, [r7]
 199 0026 3B69     		ldr	r3, [r7, #16]
 200 0028 CB18     		add	r3, r1, r3
 201 002a 101C     		mov	r0, r2
 202 002c 191C     		mov	r1, r3
 203 002e FFF7FEFF 		bl	fix16div
 204 0032 031C     		mov	r3, r0
 205 0034 FB60     		str	r3, [r7, #12]
  47:.\fixedMath.c ****         angle = COEFF1 - fix16mul(COEFF1, r);
 206              		.loc 1 47 0
 207 0036 164A     		ldr	r2, .L13
 208 0038 FB68     		ldr	r3, [r7, #12]
 209 003a 101C     		mov	r0, r2
 210 003c 191C     		mov	r1, r3
 211 003e FFF7FEFF 		bl	fix16mul
 212 0042 031C     		mov	r3, r0
 213 0044 124A     		ldr	r2, .L13
 214 0046 D31A     		sub	r3, r2, r3
 215 0048 7B61     		str	r3, [r7, #20]
 216              	.LBE2:
 217 004a 15E0     		b	.L10
 218              	.L9:
 219              	.LBB3:
  48:.\fixedMath.c ****     }
  49:.\fixedMath.c ****     else
  50:.\fixedMath.c ****     {
  51:.\fixedMath.c ****         fix16_t r = fix16div((x + abs_y), (abs_y - x));
 220              		.loc 1 51 0
 221 004c 3A68     		ldr	r2, [r7]
 222 004e 3B69     		ldr	r3, [r7, #16]
 223 0050 D218     		add	r2, r2, r3
 224 0052 3969     		ldr	r1, [r7, #16]
 225 0054 3B68     		ldr	r3, [r7]
 226 0056 CB1A     		sub	r3, r1, r3
 227 0058 101C     		mov	r0, r2
 228 005a 191C     		mov	r1, r3
 229 005c FFF7FEFF 		bl	fix16div
 230 0060 031C     		mov	r3, r0
 231 0062 BB60     		str	r3, [r7, #8]
  52:.\fixedMath.c ****         angle = COEFF2 - fix16mul(COEFF1, r);
 232              		.loc 1 52 0
 233 0064 0A4A     		ldr	r2, .L13
ARM GAS  C:\Users\Felix\AppData\Local\Temp\cc0OhXRF.s 			page 6


 234 0066 BB68     		ldr	r3, [r7, #8]
 235 0068 101C     		mov	r0, r2
 236 006a 191C     		mov	r1, r3
 237 006c FFF7FEFF 		bl	fix16mul
 238 0070 031C     		mov	r3, r0
 239 0072 084A     		ldr	r2, .L13+4
 240 0074 D31A     		sub	r3, r2, r3
 241 0076 7B61     		str	r3, [r7, #20]
 242              	.L10:
 243              	.LBE3:
  53:.\fixedMath.c ****     }
  54:.\fixedMath.c ****     if (y < 0) return(-angle);     // negate if in quad III or IV
 244              		.loc 1 54 0
 245 0078 7B68     		ldr	r3, [r7, #4]
 246 007a 002B     		cmp	r3, #0
 247 007c 02DA     		bge	.L11
 248              		.loc 1 54 0 is_stmt 0 discriminator 1
 249 007e 7B69     		ldr	r3, [r7, #20]
 250 0080 5B42     		neg	r3, r3
 251 0082 00E0     		b	.L12
 252              	.L11:
  55:.\fixedMath.c ****     else return(angle);
 253              		.loc 1 55 0 is_stmt 1
 254 0084 7B69     		ldr	r3, [r7, #20]
 255              	.L12:
  56:.\fixedMath.c **** }
 256              		.loc 1 56 0
 257 0086 181C     		mov	r0, r3
 258 0088 BD46     		mov	sp, r7
 259 008a 06B0     		add	sp, sp, #24
 260              		@ sp needed
 261 008c 80BD     		pop	{r7, pc}
 262              	.L14:
 263 008e C046     		.align	2
 264              	.L13:
 265 0090 10C90000 		.word	51472
 266 0094 305B0200 		.word	154416
 267              		.cfi_endproc
 268              	.LFE36:
 269              		.size	fix16atan2, .-fix16atan2
 270              		.section	.text.fix16rad2deg,"ax",%progbits
 271              		.align	2
 272              		.global	fix16rad2deg
 273              		.code	16
 274              		.thumb_func
 275              		.type	fix16rad2deg, %function
 276              	fix16rad2deg:
 277              	.LFB37:
  57:.\fixedMath.c **** 
  58:.\fixedMath.c **** fix16_t fix16rad2deg(fix16_t radAng)
  59:.\fixedMath.c **** {
 278              		.loc 1 59 0
 279              		.cfi_startproc
 280 0000 80B5     		push	{r7, lr}
 281              		.cfi_def_cfa_offset 8
 282              		.cfi_offset 7, -8
 283              		.cfi_offset 14, -4
ARM GAS  C:\Users\Felix\AppData\Local\Temp\cc0OhXRF.s 			page 7


 284 0002 82B0     		sub	sp, sp, #8
 285              		.cfi_def_cfa_offset 16
 286 0004 00AF     		add	r7, sp, #0
 287              		.cfi_def_cfa_register 7
 288 0006 7860     		str	r0, [r7, #4]
  60:.\fixedMath.c ****     return fix16mul(radAng, RAD_TO_DEG_SCALE);
 289              		.loc 1 60 0
 290 0008 7A68     		ldr	r2, [r7, #4]
 291 000a 054B     		ldr	r3, .L17
 292 000c 101C     		mov	r0, r2
 293 000e 191C     		mov	r1, r3
 294 0010 FFF7FEFF 		bl	fix16mul
 295 0014 031C     		mov	r3, r0
  61:.\fixedMath.c **** }
 296              		.loc 1 61 0
 297 0016 181C     		mov	r0, r3
 298 0018 BD46     		mov	sp, r7
 299 001a 02B0     		add	sp, sp, #8
 300              		@ sp needed
 301 001c 80BD     		pop	{r7, pc}
 302              	.L18:
 303 001e C046     		.align	2
 304              	.L17:
 305 0020 B84B3900 		.word	3754936
 306              		.cfi_endproc
 307              	.LFE37:
 308              		.size	fix16rad2deg, .-fix16rad2deg
 309              		.text
 310              	.Letext0:
 311              		.file 2 "c:\\program files (x86)\\cypress\\psoc creator\\3.1\\psoc creator\\import\\gnu_cs\\arm\\4
 312              		.file 3 "c:\\program files (x86)\\cypress\\psoc creator\\3.1\\psoc creator\\import\\gnu_cs\\arm\\4
 313              		.file 4 ".\\fixedMath.h"