ARM GAS  C:\Users\Jeppe\AppData\Local\Temp\ccCN6hAw.s 			page 1


   1              		.cpu cortex-m0
   2              		.fpu softvfp
   3              		.eabi_attribute 20, 1
   4              		.eabi_attribute 21, 1
   5              		.eabi_attribute 23, 3
   6              		.eabi_attribute 24, 1
   7              		.eabi_attribute 25, 1
   8              		.eabi_attribute 26, 1
   9              		.eabi_attribute 30, 6
  10              		.eabi_attribute 34, 0
  11              		.eabi_attribute 18, 4
  12              		.code	16
  13              		.file	"I2C_SF_I2C_SLAVE.c"
  14              		.text
  15              	.Ltext0:
  16              		.cfi_sections	.debug_frame
  17              		.comm	I2C_SF_slStatus,1,1
  18              		.comm	I2C_SF_slWrBufPtr,4,4
  19              		.comm	I2C_SF_slWrBufSize,4,4
  20              		.comm	I2C_SF_slWrBufIndex,4,4
  21              		.comm	I2C_SF_slRdBufPtr,4,4
  22              		.comm	I2C_SF_slRdBufSize,4,4
  23              		.comm	I2C_SF_slRdBufIndex,4,4
  24              		.comm	I2C_SF_slRdBufIndexTmp,4,4
  25              		.comm	I2C_SF_slOverFlowCount,1,1
  26              		.section	.text.I2C_SF_I2CSlaveStatus,"ax",%progbits
  27              		.align	2
  28              		.global	I2C_SF_I2CSlaveStatus
  29              		.code	16
  30              		.thumb_func
  31              		.type	I2C_SF_I2CSlaveStatus, %function
  32              	I2C_SF_I2CSlaveStatus:
  33              	.LFB0:
  34              		.file 1 ".\\Generated_Source\\PSoC4\\I2C_SF_I2C_SLAVE.c"
   1:.\Generated_Source\PSoC4/I2C_SF_I2C_SLAVE.c **** /*******************************************************************************
   2:.\Generated_Source\PSoC4/I2C_SF_I2C_SLAVE.c **** * File Name: I2C_SF_I2C_SLAVE.c
   3:.\Generated_Source\PSoC4/I2C_SF_I2C_SLAVE.c **** * Version 2.0
   4:.\Generated_Source\PSoC4/I2C_SF_I2C_SLAVE.c **** *
   5:.\Generated_Source\PSoC4/I2C_SF_I2C_SLAVE.c **** * Description:
   6:.\Generated_Source\PSoC4/I2C_SF_I2C_SLAVE.c **** *  This file provides the source code to the API for the SCB Component in
   7:.\Generated_Source\PSoC4/I2C_SF_I2C_SLAVE.c **** *  I2C Slave mode.
   8:.\Generated_Source\PSoC4/I2C_SF_I2C_SLAVE.c **** *
   9:.\Generated_Source\PSoC4/I2C_SF_I2C_SLAVE.c **** * Note:
  10:.\Generated_Source\PSoC4/I2C_SF_I2C_SLAVE.c **** *
  11:.\Generated_Source\PSoC4/I2C_SF_I2C_SLAVE.c **** *******************************************************************************
  12:.\Generated_Source\PSoC4/I2C_SF_I2C_SLAVE.c **** * Copyright 2013-2014, Cypress Semiconductor Corporation.  All rights reserved.
  13:.\Generated_Source\PSoC4/I2C_SF_I2C_SLAVE.c **** * You may use this file only in accordance with the license, terms, conditions,
  14:.\Generated_Source\PSoC4/I2C_SF_I2C_SLAVE.c **** * disclaimers, and limitations in the end user license agreement accompanying
  15:.\Generated_Source\PSoC4/I2C_SF_I2C_SLAVE.c **** * the software package with which this file was provided.
  16:.\Generated_Source\PSoC4/I2C_SF_I2C_SLAVE.c **** *******************************************************************************/
  17:.\Generated_Source\PSoC4/I2C_SF_I2C_SLAVE.c **** 
  18:.\Generated_Source\PSoC4/I2C_SF_I2C_SLAVE.c **** #include "I2C_SF_I2C_PVT.h"
  19:.\Generated_Source\PSoC4/I2C_SF_I2C_SLAVE.c **** 
  20:.\Generated_Source\PSoC4/I2C_SF_I2C_SLAVE.c **** #if(I2C_SF_I2C_SLAVE_CONST)
  21:.\Generated_Source\PSoC4/I2C_SF_I2C_SLAVE.c **** 
  22:.\Generated_Source\PSoC4/I2C_SF_I2C_SLAVE.c **** /***************************************
  23:.\Generated_Source\PSoC4/I2C_SF_I2C_SLAVE.c **** *      I2C Slave Private Vars
ARM GAS  C:\Users\Jeppe\AppData\Local\Temp\ccCN6hAw.s 			page 2


  24:.\Generated_Source\PSoC4/I2C_SF_I2C_SLAVE.c **** ***************************************/
  25:.\Generated_Source\PSoC4/I2C_SF_I2C_SLAVE.c **** 
  26:.\Generated_Source\PSoC4/I2C_SF_I2C_SLAVE.c **** volatile uint8 I2C_SF_slStatus;          /* Slave Status */
  27:.\Generated_Source\PSoC4/I2C_SF_I2C_SLAVE.c **** 
  28:.\Generated_Source\PSoC4/I2C_SF_I2C_SLAVE.c **** /* Receive buffer variables */
  29:.\Generated_Source\PSoC4/I2C_SF_I2C_SLAVE.c **** volatile uint8 * I2C_SF_slWrBufPtr;      /* Pointer to Receive buffer  */
  30:.\Generated_Source\PSoC4/I2C_SF_I2C_SLAVE.c **** volatile uint32  I2C_SF_slWrBufSize;     /* Slave Receive buffer size  */
  31:.\Generated_Source\PSoC4/I2C_SF_I2C_SLAVE.c **** volatile uint32  I2C_SF_slWrBufIndex;    /* Slave Receive buffer Index */
  32:.\Generated_Source\PSoC4/I2C_SF_I2C_SLAVE.c **** 
  33:.\Generated_Source\PSoC4/I2C_SF_I2C_SLAVE.c **** /* Transmit buffer variables */
  34:.\Generated_Source\PSoC4/I2C_SF_I2C_SLAVE.c **** volatile uint8 * I2C_SF_slRdBufPtr;      /* Pointer to Transmit buffer  */
  35:.\Generated_Source\PSoC4/I2C_SF_I2C_SLAVE.c **** volatile uint32  I2C_SF_slRdBufSize;     /* Slave Transmit buffer size  */
  36:.\Generated_Source\PSoC4/I2C_SF_I2C_SLAVE.c **** volatile uint32  I2C_SF_slRdBufIndex;    /* Slave Transmit buffer Index */
  37:.\Generated_Source\PSoC4/I2C_SF_I2C_SLAVE.c **** volatile uint32  I2C_SF_slRdBufIndexTmp; /* Slave Transmit buffer Index Tmp */
  38:.\Generated_Source\PSoC4/I2C_SF_I2C_SLAVE.c **** volatile uint8   I2C_SF_slOverFlowCount; /* Slave Transmit Overflow counter */
  39:.\Generated_Source\PSoC4/I2C_SF_I2C_SLAVE.c **** 
  40:.\Generated_Source\PSoC4/I2C_SF_I2C_SLAVE.c **** 
  41:.\Generated_Source\PSoC4/I2C_SF_I2C_SLAVE.c **** /*******************************************************************************
  42:.\Generated_Source\PSoC4/I2C_SF_I2C_SLAVE.c **** * Function Name: I2C_SF_I2CSlaveStatus
  43:.\Generated_Source\PSoC4/I2C_SF_I2C_SLAVE.c **** ********************************************************************************
  44:.\Generated_Source\PSoC4/I2C_SF_I2C_SLAVE.c **** *
  45:.\Generated_Source\PSoC4/I2C_SF_I2C_SLAVE.c **** * Summary:
  46:.\Generated_Source\PSoC4/I2C_SF_I2C_SLAVE.c **** *  Returns the I2C slave's communication status.
  47:.\Generated_Source\PSoC4/I2C_SF_I2C_SLAVE.c **** *
  48:.\Generated_Source\PSoC4/I2C_SF_I2C_SLAVE.c **** * Parameters:
  49:.\Generated_Source\PSoC4/I2C_SF_I2C_SLAVE.c **** *  None
  50:.\Generated_Source\PSoC4/I2C_SF_I2C_SLAVE.c **** *
  51:.\Generated_Source\PSoC4/I2C_SF_I2C_SLAVE.c **** * Return:
  52:.\Generated_Source\PSoC4/I2C_SF_I2C_SLAVE.c **** *  Current status of I2C slave.
  53:.\Generated_Source\PSoC4/I2C_SF_I2C_SLAVE.c **** *
  54:.\Generated_Source\PSoC4/I2C_SF_I2C_SLAVE.c **** * Global variables:
  55:.\Generated_Source\PSoC4/I2C_SF_I2C_SLAVE.c **** *  I2C_SF_slStatus - used to store current status of I2C slave.
  56:.\Generated_Source\PSoC4/I2C_SF_I2C_SLAVE.c **** *
  57:.\Generated_Source\PSoC4/I2C_SF_I2C_SLAVE.c **** *******************************************************************************/
  58:.\Generated_Source\PSoC4/I2C_SF_I2C_SLAVE.c **** uint32 I2C_SF_I2CSlaveStatus(void)
  59:.\Generated_Source\PSoC4/I2C_SF_I2C_SLAVE.c **** {
  35              		.loc 1 59 0
  36              		.cfi_startproc
  37 0000 80B5     		push	{r7, lr}
  38              		.cfi_def_cfa_offset 8
  39              		.cfi_offset 7, -8
  40              		.cfi_offset 14, -4
  41 0002 00AF     		add	r7, sp, #0
  42              		.cfi_def_cfa_register 7
  60:.\Generated_Source\PSoC4/I2C_SF_I2C_SLAVE.c ****     return((uint32) I2C_SF_slStatus);
  43              		.loc 1 60 0
  44 0004 024B     		ldr	r3, .L3
  45 0006 1B78     		ldrb	r3, [r3]
  46 0008 DBB2     		uxtb	r3, r3
  61:.\Generated_Source\PSoC4/I2C_SF_I2C_SLAVE.c **** }
  47              		.loc 1 61 0
  48 000a 181C     		mov	r0, r3
  49 000c BD46     		mov	sp, r7
  50              		@ sp needed
  51 000e 80BD     		pop	{r7, pc}
  52              	.L4:
  53              		.align	2
ARM GAS  C:\Users\Jeppe\AppData\Local\Temp\ccCN6hAw.s 			page 3


  54              	.L3:
  55 0010 00000000 		.word	I2C_SF_slStatus
  56              		.cfi_endproc
  57              	.LFE0:
  58              		.size	I2C_SF_I2CSlaveStatus, .-I2C_SF_I2CSlaveStatus
  59              		.section	.text.I2C_SF_I2CSlaveClearReadStatus,"ax",%progbits
  60              		.align	2
  61              		.global	I2C_SF_I2CSlaveClearReadStatus
  62              		.code	16
  63              		.thumb_func
  64              		.type	I2C_SF_I2CSlaveClearReadStatus, %function
  65              	I2C_SF_I2CSlaveClearReadStatus:
  66              	.LFB1:
  62:.\Generated_Source\PSoC4/I2C_SF_I2C_SLAVE.c **** 
  63:.\Generated_Source\PSoC4/I2C_SF_I2C_SLAVE.c **** 
  64:.\Generated_Source\PSoC4/I2C_SF_I2C_SLAVE.c **** /*******************************************************************************
  65:.\Generated_Source\PSoC4/I2C_SF_I2C_SLAVE.c **** * Function Name: I2C_SF_I2CSlaveClearReadStatus
  66:.\Generated_Source\PSoC4/I2C_SF_I2C_SLAVE.c **** ********************************************************************************
  67:.\Generated_Source\PSoC4/I2C_SF_I2C_SLAVE.c **** *
  68:.\Generated_Source\PSoC4/I2C_SF_I2C_SLAVE.c **** * Summary:
  69:.\Generated_Source\PSoC4/I2C_SF_I2C_SLAVE.c **** *  Clears the read status flags and returns their values. No other status flags
  70:.\Generated_Source\PSoC4/I2C_SF_I2C_SLAVE.c **** *  are affected.
  71:.\Generated_Source\PSoC4/I2C_SF_I2C_SLAVE.c **** *
  72:.\Generated_Source\PSoC4/I2C_SF_I2C_SLAVE.c **** * Parameters:
  73:.\Generated_Source\PSoC4/I2C_SF_I2C_SLAVE.c **** *  None
  74:.\Generated_Source\PSoC4/I2C_SF_I2C_SLAVE.c **** *
  75:.\Generated_Source\PSoC4/I2C_SF_I2C_SLAVE.c **** * Return:
  76:.\Generated_Source\PSoC4/I2C_SF_I2C_SLAVE.c **** *  Current read status of I2C slave.
  77:.\Generated_Source\PSoC4/I2C_SF_I2C_SLAVE.c **** *
  78:.\Generated_Source\PSoC4/I2C_SF_I2C_SLAVE.c **** * Global variables:
  79:.\Generated_Source\PSoC4/I2C_SF_I2C_SLAVE.c **** *  I2C_SF_slStatus  - used to store current status of I2C slave.
  80:.\Generated_Source\PSoC4/I2C_SF_I2C_SLAVE.c **** *
  81:.\Generated_Source\PSoC4/I2C_SF_I2C_SLAVE.c **** *******************************************************************************/
  82:.\Generated_Source\PSoC4/I2C_SF_I2C_SLAVE.c **** uint32 I2C_SF_I2CSlaveClearReadStatus(void)
  83:.\Generated_Source\PSoC4/I2C_SF_I2C_SLAVE.c **** {
  67              		.loc 1 83 0
  68              		.cfi_startproc
  69 0000 80B5     		push	{r7, lr}
  70              		.cfi_def_cfa_offset 8
  71              		.cfi_offset 7, -8
  72              		.cfi_offset 14, -4
  73 0002 82B0     		sub	sp, sp, #8
  74              		.cfi_def_cfa_offset 16
  75 0004 00AF     		add	r7, sp, #0
  76              		.cfi_def_cfa_register 7
  84:.\Generated_Source\PSoC4/I2C_SF_I2C_SLAVE.c ****     uint32 status;
  85:.\Generated_Source\PSoC4/I2C_SF_I2C_SLAVE.c **** 
  86:.\Generated_Source\PSoC4/I2C_SF_I2C_SLAVE.c ****     I2C_SF_DisableInt();  /* Lock from interruption */
  77              		.loc 1 86 0
  78 0006 0A20     		mov	r0, #10
  79 0008 FFF7FEFF 		bl	CyIntDisable
  87:.\Generated_Source\PSoC4/I2C_SF_I2C_SLAVE.c **** 
  88:.\Generated_Source\PSoC4/I2C_SF_I2C_SLAVE.c ****     /* Mask of transfer complete flag and error status */
  89:.\Generated_Source\PSoC4/I2C_SF_I2C_SLAVE.c ****     status = ((uint32) I2C_SF_slStatus & I2C_SF_I2C_SSTAT_RD_MASK);
  80              		.loc 1 89 0
  81 000c 0B4B     		ldr	r3, .L7
  82 000e 1B78     		ldrb	r3, [r3]
ARM GAS  C:\Users\Jeppe\AppData\Local\Temp\ccCN6hAw.s 			page 4


  83 0010 DBB2     		uxtb	r3, r3
  84 0012 1A1C     		mov	r2, r3
  85 0014 0F23     		mov	r3, #15
  86 0016 1340     		and	r3, r2
  87 0018 7B60     		str	r3, [r7, #4]
  90:.\Generated_Source\PSoC4/I2C_SF_I2C_SLAVE.c ****     I2C_SF_slStatus &= (uint8) ~I2C_SF_I2C_SSTAT_RD_CLEAR;
  88              		.loc 1 90 0
  89 001a 084B     		ldr	r3, .L7
  90 001c 1B78     		ldrb	r3, [r3]
  91 001e DBB2     		uxtb	r3, r3
  92 0020 0D22     		mov	r2, #13
  93 0022 9343     		bic	r3, r2
  94 0024 DAB2     		uxtb	r2, r3
  95 0026 054B     		ldr	r3, .L7
  96 0028 1A70     		strb	r2, [r3]
  91:.\Generated_Source\PSoC4/I2C_SF_I2C_SLAVE.c **** 
  92:.\Generated_Source\PSoC4/I2C_SF_I2C_SLAVE.c ****     I2C_SF_EnableInt();   /* Release lock */
  97              		.loc 1 92 0
  98 002a 0A20     		mov	r0, #10
  99 002c FFF7FEFF 		bl	CyIntEnable
  93:.\Generated_Source\PSoC4/I2C_SF_I2C_SLAVE.c **** 
  94:.\Generated_Source\PSoC4/I2C_SF_I2C_SLAVE.c ****     return(status);
 100              		.loc 1 94 0
 101 0030 7B68     		ldr	r3, [r7, #4]
  95:.\Generated_Source\PSoC4/I2C_SF_I2C_SLAVE.c **** }
 102              		.loc 1 95 0
 103 0032 181C     		mov	r0, r3
 104 0034 BD46     		mov	sp, r7
 105 0036 02B0     		add	sp, sp, #8
 106              		@ sp needed
 107 0038 80BD     		pop	{r7, pc}
 108              	.L8:
 109 003a C046     		.align	2
 110              	.L7:
 111 003c 00000000 		.word	I2C_SF_slStatus
 112              		.cfi_endproc
 113              	.LFE1:
 114              		.size	I2C_SF_I2CSlaveClearReadStatus, .-I2C_SF_I2CSlaveClearReadStatus
 115              		.section	.text.I2C_SF_I2CSlaveClearWriteStatus,"ax",%progbits
 116              		.align	2
 117              		.global	I2C_SF_I2CSlaveClearWriteStatus
 118              		.code	16
 119              		.thumb_func
 120              		.type	I2C_SF_I2CSlaveClearWriteStatus, %function
 121              	I2C_SF_I2CSlaveClearWriteStatus:
 122              	.LFB2:
  96:.\Generated_Source\PSoC4/I2C_SF_I2C_SLAVE.c **** 
  97:.\Generated_Source\PSoC4/I2C_SF_I2C_SLAVE.c **** 
  98:.\Generated_Source\PSoC4/I2C_SF_I2C_SLAVE.c **** /*******************************************************************************
  99:.\Generated_Source\PSoC4/I2C_SF_I2C_SLAVE.c **** * Function Name: I2C_SF_I2CSlaveClearWriteStatus
 100:.\Generated_Source\PSoC4/I2C_SF_I2C_SLAVE.c **** ********************************************************************************
 101:.\Generated_Source\PSoC4/I2C_SF_I2C_SLAVE.c **** *
 102:.\Generated_Source\PSoC4/I2C_SF_I2C_SLAVE.c **** * Summary:
 103:.\Generated_Source\PSoC4/I2C_SF_I2C_SLAVE.c **** *  Clears the write status flags and returns their values. No other status flags
 104:.\Generated_Source\PSoC4/I2C_SF_I2C_SLAVE.c **** *  are affected.
 105:.\Generated_Source\PSoC4/I2C_SF_I2C_SLAVE.c **** *
 106:.\Generated_Source\PSoC4/I2C_SF_I2C_SLAVE.c **** * Parameters:
ARM GAS  C:\Users\Jeppe\AppData\Local\Temp\ccCN6hAw.s 			page 5


 107:.\Generated_Source\PSoC4/I2C_SF_I2C_SLAVE.c **** *  None
 108:.\Generated_Source\PSoC4/I2C_SF_I2C_SLAVE.c **** *
 109:.\Generated_Source\PSoC4/I2C_SF_I2C_SLAVE.c **** * Return:
 110:.\Generated_Source\PSoC4/I2C_SF_I2C_SLAVE.c **** *  Current write status of I2C slave.
 111:.\Generated_Source\PSoC4/I2C_SF_I2C_SLAVE.c **** *
 112:.\Generated_Source\PSoC4/I2C_SF_I2C_SLAVE.c **** * Global variables:
 113:.\Generated_Source\PSoC4/I2C_SF_I2C_SLAVE.c **** *  I2C_SF_slStatus  - used to store current status of I2C slave.
 114:.\Generated_Source\PSoC4/I2C_SF_I2C_SLAVE.c **** *
 115:.\Generated_Source\PSoC4/I2C_SF_I2C_SLAVE.c **** *******************************************************************************/
 116:.\Generated_Source\PSoC4/I2C_SF_I2C_SLAVE.c **** uint32 I2C_SF_I2CSlaveClearWriteStatus(void)
 117:.\Generated_Source\PSoC4/I2C_SF_I2C_SLAVE.c **** {
 123              		.loc 1 117 0
 124              		.cfi_startproc
 125 0000 80B5     		push	{r7, lr}
 126              		.cfi_def_cfa_offset 8
 127              		.cfi_offset 7, -8
 128              		.cfi_offset 14, -4
 129 0002 82B0     		sub	sp, sp, #8
 130              		.cfi_def_cfa_offset 16
 131 0004 00AF     		add	r7, sp, #0
 132              		.cfi_def_cfa_register 7
 118:.\Generated_Source\PSoC4/I2C_SF_I2C_SLAVE.c ****     uint32 status;
 119:.\Generated_Source\PSoC4/I2C_SF_I2C_SLAVE.c **** 
 120:.\Generated_Source\PSoC4/I2C_SF_I2C_SLAVE.c ****     I2C_SF_DisableInt();  /* Lock from interruption */
 133              		.loc 1 120 0
 134 0006 0A20     		mov	r0, #10
 135 0008 FFF7FEFF 		bl	CyIntDisable
 121:.\Generated_Source\PSoC4/I2C_SF_I2C_SLAVE.c **** 
 122:.\Generated_Source\PSoC4/I2C_SF_I2C_SLAVE.c ****     /* Mask of transfer complete flag and Error status */
 123:.\Generated_Source\PSoC4/I2C_SF_I2C_SLAVE.c ****     status = ((uint32) I2C_SF_slStatus & I2C_SF_I2C_SSTAT_WR_MASK);
 136              		.loc 1 123 0
 137 000c 0B4B     		ldr	r3, .L11
 138 000e 1B78     		ldrb	r3, [r3]
 139 0010 DBB2     		uxtb	r3, r3
 140 0012 1A1C     		mov	r2, r3
 141 0014 F023     		mov	r3, #240
 142 0016 1340     		and	r3, r2
 143 0018 7B60     		str	r3, [r7, #4]
 124:.\Generated_Source\PSoC4/I2C_SF_I2C_SLAVE.c ****     I2C_SF_slStatus &= (uint8) ~I2C_SF_I2C_SSTAT_WR_CLEAR;
 144              		.loc 1 124 0
 145 001a 084B     		ldr	r3, .L11
 146 001c 1B78     		ldrb	r3, [r3]
 147 001e DAB2     		uxtb	r2, r3
 148 0020 2F23     		mov	r3, #47
 149 0022 1340     		and	r3, r2
 150 0024 DAB2     		uxtb	r2, r3
 151 0026 054B     		ldr	r3, .L11
 152 0028 1A70     		strb	r2, [r3]
 125:.\Generated_Source\PSoC4/I2C_SF_I2C_SLAVE.c **** 
 126:.\Generated_Source\PSoC4/I2C_SF_I2C_SLAVE.c ****     I2C_SF_EnableInt();   /* Release lock */
 153              		.loc 1 126 0
 154 002a 0A20     		mov	r0, #10
 155 002c FFF7FEFF 		bl	CyIntEnable
 127:.\Generated_Source\PSoC4/I2C_SF_I2C_SLAVE.c **** 
 128:.\Generated_Source\PSoC4/I2C_SF_I2C_SLAVE.c ****     return(status);
 156              		.loc 1 128 0
 157 0030 7B68     		ldr	r3, [r7, #4]
ARM GAS  C:\Users\Jeppe\AppData\Local\Temp\ccCN6hAw.s 			page 6


 129:.\Generated_Source\PSoC4/I2C_SF_I2C_SLAVE.c **** }
 158              		.loc 1 129 0
 159 0032 181C     		mov	r0, r3
 160 0034 BD46     		mov	sp, r7
 161 0036 02B0     		add	sp, sp, #8
 162              		@ sp needed
 163 0038 80BD     		pop	{r7, pc}
 164              	.L12:
 165 003a C046     		.align	2
 166              	.L11:
 167 003c 00000000 		.word	I2C_SF_slStatus
 168              		.cfi_endproc
 169              	.LFE2:
 170              		.size	I2C_SF_I2CSlaveClearWriteStatus, .-I2C_SF_I2CSlaveClearWriteStatus
 171              		.section	.text.I2C_SF_I2CSlaveSetAddress,"ax",%progbits
 172              		.align	2
 173              		.global	I2C_SF_I2CSlaveSetAddress
 174              		.code	16
 175              		.thumb_func
 176              		.type	I2C_SF_I2CSlaveSetAddress, %function
 177              	I2C_SF_I2CSlaveSetAddress:
 178              	.LFB3:
 130:.\Generated_Source\PSoC4/I2C_SF_I2C_SLAVE.c **** 
 131:.\Generated_Source\PSoC4/I2C_SF_I2C_SLAVE.c **** 
 132:.\Generated_Source\PSoC4/I2C_SF_I2C_SLAVE.c **** /*******************************************************************************
 133:.\Generated_Source\PSoC4/I2C_SF_I2C_SLAVE.c **** * Function Name: I2C_SF_I2CSlaveSetAddress
 134:.\Generated_Source\PSoC4/I2C_SF_I2C_SLAVE.c **** ********************************************************************************
 135:.\Generated_Source\PSoC4/I2C_SF_I2C_SLAVE.c **** *
 136:.\Generated_Source\PSoC4/I2C_SF_I2C_SLAVE.c **** * Summary:
 137:.\Generated_Source\PSoC4/I2C_SF_I2C_SLAVE.c **** *  Sets the I2C slave address.
 138:.\Generated_Source\PSoC4/I2C_SF_I2C_SLAVE.c **** *
 139:.\Generated_Source\PSoC4/I2C_SF_I2C_SLAVE.c **** * Parameters:
 140:.\Generated_Source\PSoC4/I2C_SF_I2C_SLAVE.c **** *  address: I2C slave address for the primary device. This value may be any
 141:.\Generated_Source\PSoC4/I2C_SF_I2C_SLAVE.c **** *  address between 0 and 127.
 142:.\Generated_Source\PSoC4/I2C_SF_I2C_SLAVE.c **** *
 143:.\Generated_Source\PSoC4/I2C_SF_I2C_SLAVE.c **** * Return:
 144:.\Generated_Source\PSoC4/I2C_SF_I2C_SLAVE.c **** *  None
 145:.\Generated_Source\PSoC4/I2C_SF_I2C_SLAVE.c **** *
 146:.\Generated_Source\PSoC4/I2C_SF_I2C_SLAVE.c **** *******************************************************************************/
 147:.\Generated_Source\PSoC4/I2C_SF_I2C_SLAVE.c **** void I2C_SF_I2CSlaveSetAddress(uint32 address)
 148:.\Generated_Source\PSoC4/I2C_SF_I2C_SLAVE.c **** {
 179              		.loc 1 148 0
 180              		.cfi_startproc
 181 0000 80B5     		push	{r7, lr}
 182              		.cfi_def_cfa_offset 8
 183              		.cfi_offset 7, -8
 184              		.cfi_offset 14, -4
 185 0002 84B0     		sub	sp, sp, #16
 186              		.cfi_def_cfa_offset 24
 187 0004 00AF     		add	r7, sp, #0
 188              		.cfi_def_cfa_register 7
 189 0006 7860     		str	r0, [r7, #4]
 149:.\Generated_Source\PSoC4/I2C_SF_I2C_SLAVE.c ****     uint32 matchReg;
 150:.\Generated_Source\PSoC4/I2C_SF_I2C_SLAVE.c **** 
 151:.\Generated_Source\PSoC4/I2C_SF_I2C_SLAVE.c ****     matchReg = I2C_SF_RX_MATCH_REG;
 190              		.loc 1 151 0
 191 0008 094B     		ldr	r3, .L14
ARM GAS  C:\Users\Jeppe\AppData\Local\Temp\ccCN6hAw.s 			page 7


 192 000a 1B68     		ldr	r3, [r3]
 193 000c FB60     		str	r3, [r7, #12]
 152:.\Generated_Source\PSoC4/I2C_SF_I2C_SLAVE.c **** 
 153:.\Generated_Source\PSoC4/I2C_SF_I2C_SLAVE.c ****     matchReg &= ((uint32) ~I2C_SF_RX_MATCH_ADDR_MASK); /* Clear address bits */
 194              		.loc 1 153 0
 195 000e FB68     		ldr	r3, [r7, #12]
 196 0010 FF22     		mov	r2, #255
 197 0012 9343     		bic	r3, r2
 198 0014 FB60     		str	r3, [r7, #12]
 154:.\Generated_Source\PSoC4/I2C_SF_I2C_SLAVE.c ****     matchReg |= ((uint32)  I2C_SF_GET_I2C_8BIT_ADDRESS(address));
 199              		.loc 1 154 0
 200 0016 7B68     		ldr	r3, [r7, #4]
 201 0018 5A00     		lsl	r2, r3, #1
 202 001a FF23     		mov	r3, #255
 203 001c 1340     		and	r3, r2
 204 001e FA68     		ldr	r2, [r7, #12]
 205 0020 1343     		orr	r3, r2
 206 0022 FB60     		str	r3, [r7, #12]
 155:.\Generated_Source\PSoC4/I2C_SF_I2C_SLAVE.c **** 
 156:.\Generated_Source\PSoC4/I2C_SF_I2C_SLAVE.c ****     I2C_SF_RX_MATCH_REG = matchReg;
 207              		.loc 1 156 0
 208 0024 024B     		ldr	r3, .L14
 209 0026 FA68     		ldr	r2, [r7, #12]
 210 0028 1A60     		str	r2, [r3]
 157:.\Generated_Source\PSoC4/I2C_SF_I2C_SLAVE.c **** }
 211              		.loc 1 157 0
 212 002a BD46     		mov	sp, r7
 213 002c 04B0     		add	sp, sp, #16
 214              		@ sp needed
 215 002e 80BD     		pop	{r7, pc}
 216              	.L15:
 217              		.align	2
 218              	.L14:
 219 0030 10030640 		.word	1074135824
 220              		.cfi_endproc
 221              	.LFE3:
 222              		.size	I2C_SF_I2CSlaveSetAddress, .-I2C_SF_I2CSlaveSetAddress
 223              		.section	.text.I2C_SF_I2CSlaveSetAddressMask,"ax",%progbits
 224              		.align	2
 225              		.global	I2C_SF_I2CSlaveSetAddressMask
 226              		.code	16
 227              		.thumb_func
 228              		.type	I2C_SF_I2CSlaveSetAddressMask, %function
 229              	I2C_SF_I2CSlaveSetAddressMask:
 230              	.LFB4:
 158:.\Generated_Source\PSoC4/I2C_SF_I2C_SLAVE.c **** 
 159:.\Generated_Source\PSoC4/I2C_SF_I2C_SLAVE.c **** 
 160:.\Generated_Source\PSoC4/I2C_SF_I2C_SLAVE.c **** /*******************************************************************************
 161:.\Generated_Source\PSoC4/I2C_SF_I2C_SLAVE.c **** * Function Name: I2C_SF_I2CSlaveSetAddressMask
 162:.\Generated_Source\PSoC4/I2C_SF_I2C_SLAVE.c **** ********************************************************************************
 163:.\Generated_Source\PSoC4/I2C_SF_I2C_SLAVE.c **** *
 164:.\Generated_Source\PSoC4/I2C_SF_I2C_SLAVE.c **** * Summary:
 165:.\Generated_Source\PSoC4/I2C_SF_I2C_SLAVE.c **** *  Sets the I2C slave address mask.
 166:.\Generated_Source\PSoC4/I2C_SF_I2C_SLAVE.c **** *
 167:.\Generated_Source\PSoC4/I2C_SF_I2C_SLAVE.c **** * Parameters:
 168:.\Generated_Source\PSoC4/I2C_SF_I2C_SLAVE.c **** *  addressMask: Address mask.
 169:.\Generated_Source\PSoC4/I2C_SF_I2C_SLAVE.c **** *   0 - address bit does not care while comparison.
ARM GAS  C:\Users\Jeppe\AppData\Local\Temp\ccCN6hAw.s 			page 8


 170:.\Generated_Source\PSoC4/I2C_SF_I2C_SLAVE.c **** *   1 - address bit is significant while comparison.
 171:.\Generated_Source\PSoC4/I2C_SF_I2C_SLAVE.c **** *
 172:.\Generated_Source\PSoC4/I2C_SF_I2C_SLAVE.c **** * Return:
 173:.\Generated_Source\PSoC4/I2C_SF_I2C_SLAVE.c **** *  None
 174:.\Generated_Source\PSoC4/I2C_SF_I2C_SLAVE.c **** *
 175:.\Generated_Source\PSoC4/I2C_SF_I2C_SLAVE.c **** *******************************************************************************/
 176:.\Generated_Source\PSoC4/I2C_SF_I2C_SLAVE.c **** void I2C_SF_I2CSlaveSetAddressMask(uint32 addressMask)
 177:.\Generated_Source\PSoC4/I2C_SF_I2C_SLAVE.c **** {
 231              		.loc 1 177 0
 232              		.cfi_startproc
 233 0000 80B5     		push	{r7, lr}
 234              		.cfi_def_cfa_offset 8
 235              		.cfi_offset 7, -8
 236              		.cfi_offset 14, -4
 237 0002 84B0     		sub	sp, sp, #16
 238              		.cfi_def_cfa_offset 24
 239 0004 00AF     		add	r7, sp, #0
 240              		.cfi_def_cfa_register 7
 241 0006 7860     		str	r0, [r7, #4]
 178:.\Generated_Source\PSoC4/I2C_SF_I2C_SLAVE.c ****     uint32 matchReg;
 179:.\Generated_Source\PSoC4/I2C_SF_I2C_SLAVE.c **** 
 180:.\Generated_Source\PSoC4/I2C_SF_I2C_SLAVE.c ****     matchReg = I2C_SF_RX_MATCH_REG;
 242              		.loc 1 180 0
 243 0008 084B     		ldr	r3, .L17
 244 000a 1B68     		ldr	r3, [r3]
 245 000c FB60     		str	r3, [r7, #12]
 181:.\Generated_Source\PSoC4/I2C_SF_I2C_SLAVE.c **** 
 182:.\Generated_Source\PSoC4/I2C_SF_I2C_SLAVE.c ****     matchReg &= ((uint32) ~I2C_SF_RX_MATCH_MASK_MASK); /* Clear address mask bits */
 246              		.loc 1 182 0
 247 000e FA68     		ldr	r2, [r7, #12]
 248 0010 074B     		ldr	r3, .L17+4
 249 0012 1340     		and	r3, r2
 250 0014 FB60     		str	r3, [r7, #12]
 183:.\Generated_Source\PSoC4/I2C_SF_I2C_SLAVE.c ****     matchReg |= ((uint32) (addressMask << I2C_SF_RX_MATCH_MASK_POS));
 251              		.loc 1 183 0
 252 0016 7B68     		ldr	r3, [r7, #4]
 253 0018 1B04     		lsl	r3, r3, #16
 254 001a FA68     		ldr	r2, [r7, #12]
 255 001c 1343     		orr	r3, r2
 256 001e FB60     		str	r3, [r7, #12]
 184:.\Generated_Source\PSoC4/I2C_SF_I2C_SLAVE.c **** 
 185:.\Generated_Source\PSoC4/I2C_SF_I2C_SLAVE.c ****     I2C_SF_RX_MATCH_REG = matchReg;
 257              		.loc 1 185 0
 258 0020 024B     		ldr	r3, .L17
 259 0022 FA68     		ldr	r2, [r7, #12]
 260 0024 1A60     		str	r2, [r3]
 186:.\Generated_Source\PSoC4/I2C_SF_I2C_SLAVE.c **** }
 261              		.loc 1 186 0
 262 0026 BD46     		mov	sp, r7
 263 0028 04B0     		add	sp, sp, #16
 264              		@ sp needed
 265 002a 80BD     		pop	{r7, pc}
 266              	.L18:
 267              		.align	2
 268              	.L17:
 269 002c 10030640 		.word	1074135824
 270 0030 FFFF00FF 		.word	-16711681
ARM GAS  C:\Users\Jeppe\AppData\Local\Temp\ccCN6hAw.s 			page 9


 271              		.cfi_endproc
 272              	.LFE4:
 273              		.size	I2C_SF_I2CSlaveSetAddressMask, .-I2C_SF_I2CSlaveSetAddressMask
 274              		.section	.text.I2C_SF_I2CSlaveInitReadBuf,"ax",%progbits
 275              		.align	2
 276              		.global	I2C_SF_I2CSlaveInitReadBuf
 277              		.code	16
 278              		.thumb_func
 279              		.type	I2C_SF_I2CSlaveInitReadBuf, %function
 280              	I2C_SF_I2CSlaveInitReadBuf:
 281              	.LFB5:
 187:.\Generated_Source\PSoC4/I2C_SF_I2C_SLAVE.c **** 
 188:.\Generated_Source\PSoC4/I2C_SF_I2C_SLAVE.c **** 
 189:.\Generated_Source\PSoC4/I2C_SF_I2C_SLAVE.c **** /*******************************************************************************
 190:.\Generated_Source\PSoC4/I2C_SF_I2C_SLAVE.c **** * Function Name: I2C_SF_I2CSlaveInitReadBuf
 191:.\Generated_Source\PSoC4/I2C_SF_I2C_SLAVE.c **** ********************************************************************************
 192:.\Generated_Source\PSoC4/I2C_SF_I2C_SLAVE.c **** *
 193:.\Generated_Source\PSoC4/I2C_SF_I2C_SLAVE.c **** * Summary:
 194:.\Generated_Source\PSoC4/I2C_SF_I2C_SLAVE.c **** *  Sets the buffer pointer and size of the read buffer. This function also
 195:.\Generated_Source\PSoC4/I2C_SF_I2C_SLAVE.c **** *  resets the transfer count returned with the I2C_SlaveGetReadBufSize function.
 196:.\Generated_Source\PSoC4/I2C_SF_I2C_SLAVE.c **** *
 197:.\Generated_Source\PSoC4/I2C_SF_I2C_SLAVE.c **** * Parameters:
 198:.\Generated_Source\PSoC4/I2C_SF_I2C_SLAVE.c **** *  readBuf:  Pointer to the data buffer to be read by the master.
 199:.\Generated_Source\PSoC4/I2C_SF_I2C_SLAVE.c **** *  bufSize:  Size of the read buffer exposed to the I2C master.
 200:.\Generated_Source\PSoC4/I2C_SF_I2C_SLAVE.c **** *
 201:.\Generated_Source\PSoC4/I2C_SF_I2C_SLAVE.c **** * Return:
 202:.\Generated_Source\PSoC4/I2C_SF_I2C_SLAVE.c **** *  None
 203:.\Generated_Source\PSoC4/I2C_SF_I2C_SLAVE.c **** *
 204:.\Generated_Source\PSoC4/I2C_SF_I2C_SLAVE.c **** * Global variables:
 205:.\Generated_Source\PSoC4/I2C_SF_I2C_SLAVE.c **** *  I2C_SF_slRdBufPtr   - used to store pointer to slave read buffer.
 206:.\Generated_Source\PSoC4/I2C_SF_I2C_SLAVE.c **** *  I2C_SF_slRdBufSize  - used to store salve read buffer size.
 207:.\Generated_Source\PSoC4/I2C_SF_I2C_SLAVE.c **** *  I2C_SF_slRdBufIndex - used to store current index within slave
 208:.\Generated_Source\PSoC4/I2C_SF_I2C_SLAVE.c **** *  read buffer.
 209:.\Generated_Source\PSoC4/I2C_SF_I2C_SLAVE.c **** *
 210:.\Generated_Source\PSoC4/I2C_SF_I2C_SLAVE.c **** * Side Effects:
 211:.\Generated_Source\PSoC4/I2C_SF_I2C_SLAVE.c **** *  If this function is called during a bus transaction, data from the previous
 212:.\Generated_Source\PSoC4/I2C_SF_I2C_SLAVE.c **** *  buffer location and the beginning of current buffer may be transmitted.
 213:.\Generated_Source\PSoC4/I2C_SF_I2C_SLAVE.c **** *
 214:.\Generated_Source\PSoC4/I2C_SF_I2C_SLAVE.c **** *******************************************************************************/
 215:.\Generated_Source\PSoC4/I2C_SF_I2C_SLAVE.c **** void I2C_SF_I2CSlaveInitReadBuf(uint8 * rdBuf, uint32 bufSize)
 216:.\Generated_Source\PSoC4/I2C_SF_I2C_SLAVE.c **** {
 282              		.loc 1 216 0
 283              		.cfi_startproc
 284 0000 80B5     		push	{r7, lr}
 285              		.cfi_def_cfa_offset 8
 286              		.cfi_offset 7, -8
 287              		.cfi_offset 14, -4
 288 0002 82B0     		sub	sp, sp, #8
 289              		.cfi_def_cfa_offset 16
 290 0004 00AF     		add	r7, sp, #0
 291              		.cfi_def_cfa_register 7
 292 0006 7860     		str	r0, [r7, #4]
 293 0008 3960     		str	r1, [r7]
 217:.\Generated_Source\PSoC4/I2C_SF_I2C_SLAVE.c ****     /* Check for proper buffer */
 218:.\Generated_Source\PSoC4/I2C_SF_I2C_SLAVE.c ****     if(NULL != rdBuf)
 294              		.loc 1 218 0
 295 000a 7B68     		ldr	r3, [r7, #4]
ARM GAS  C:\Users\Jeppe\AppData\Local\Temp\ccCN6hAw.s 			page 10


 296 000c 002B     		cmp	r3, #0
 297 000e 11D0     		beq	.L19
 219:.\Generated_Source\PSoC4/I2C_SF_I2C_SLAVE.c ****     {
 220:.\Generated_Source\PSoC4/I2C_SF_I2C_SLAVE.c ****         I2C_SF_DisableInt();  /* Lock from interruption */
 298              		.loc 1 220 0
 299 0010 0A20     		mov	r0, #10
 300 0012 FFF7FEFF 		bl	CyIntDisable
 221:.\Generated_Source\PSoC4/I2C_SF_I2C_SLAVE.c **** 
 222:.\Generated_Source\PSoC4/I2C_SF_I2C_SLAVE.c ****         I2C_SF_slRdBufPtr      = (volatile uint8 *) rdBuf; /* Set buffer pointer  */
 301              		.loc 1 222 0
 302 0016 094B     		ldr	r3, .L21
 303 0018 7A68     		ldr	r2, [r7, #4]
 304 001a 1A60     		str	r2, [r3]
 223:.\Generated_Source\PSoC4/I2C_SF_I2C_SLAVE.c ****         I2C_SF_slRdBufSize     = bufSize;                  /* Set buffer size     */
 305              		.loc 1 223 0
 306 001c 084B     		ldr	r3, .L21+4
 307 001e 3A68     		ldr	r2, [r7]
 308 0020 1A60     		str	r2, [r3]
 224:.\Generated_Source\PSoC4/I2C_SF_I2C_SLAVE.c ****         I2C_SF_slRdBufIndex    = 0u;                       /* Clear buffer index  */
 309              		.loc 1 224 0
 310 0022 084B     		ldr	r3, .L21+8
 311 0024 0022     		mov	r2, #0
 312 0026 1A60     		str	r2, [r3]
 225:.\Generated_Source\PSoC4/I2C_SF_I2C_SLAVE.c ****         I2C_SF_slRdBufIndexTmp = 0u;                       /* Clear buffer index  */
 313              		.loc 1 225 0
 314 0028 074B     		ldr	r3, .L21+12
 315 002a 0022     		mov	r2, #0
 316 002c 1A60     		str	r2, [r3]
 226:.\Generated_Source\PSoC4/I2C_SF_I2C_SLAVE.c **** 
 227:.\Generated_Source\PSoC4/I2C_SF_I2C_SLAVE.c ****         I2C_SF_EnableInt();   /* Release lock */
 317              		.loc 1 227 0
 318 002e 0A20     		mov	r0, #10
 319 0030 FFF7FEFF 		bl	CyIntEnable
 320              	.L19:
 228:.\Generated_Source\PSoC4/I2C_SF_I2C_SLAVE.c ****     }
 229:.\Generated_Source\PSoC4/I2C_SF_I2C_SLAVE.c **** }
 321              		.loc 1 229 0
 322 0034 BD46     		mov	sp, r7
 323 0036 02B0     		add	sp, sp, #8
 324              		@ sp needed
 325 0038 80BD     		pop	{r7, pc}
 326              	.L22:
 327 003a C046     		.align	2
 328              	.L21:
 329 003c 00000000 		.word	I2C_SF_slRdBufPtr
 330 0040 00000000 		.word	I2C_SF_slRdBufSize
 331 0044 00000000 		.word	I2C_SF_slRdBufIndex
 332 0048 00000000 		.word	I2C_SF_slRdBufIndexTmp
 333              		.cfi_endproc
 334              	.LFE5:
 335              		.size	I2C_SF_I2CSlaveInitReadBuf, .-I2C_SF_I2CSlaveInitReadBuf
 336              		.section	.text.I2C_SF_I2CSlaveInitWriteBuf,"ax",%progbits
 337              		.align	2
 338              		.global	I2C_SF_I2CSlaveInitWriteBuf
 339              		.code	16
 340              		.thumb_func
 341              		.type	I2C_SF_I2CSlaveInitWriteBuf, %function
ARM GAS  C:\Users\Jeppe\AppData\Local\Temp\ccCN6hAw.s 			page 11


 342              	I2C_SF_I2CSlaveInitWriteBuf:
 343              	.LFB6:
 230:.\Generated_Source\PSoC4/I2C_SF_I2C_SLAVE.c **** 
 231:.\Generated_Source\PSoC4/I2C_SF_I2C_SLAVE.c **** 
 232:.\Generated_Source\PSoC4/I2C_SF_I2C_SLAVE.c **** /*******************************************************************************
 233:.\Generated_Source\PSoC4/I2C_SF_I2C_SLAVE.c **** * Function Name: I2C_SF_I2CSlaveInitWriteBuf
 234:.\Generated_Source\PSoC4/I2C_SF_I2C_SLAVE.c **** ********************************************************************************
 235:.\Generated_Source\PSoC4/I2C_SF_I2C_SLAVE.c **** *
 236:.\Generated_Source\PSoC4/I2C_SF_I2C_SLAVE.c **** * Summary:
 237:.\Generated_Source\PSoC4/I2C_SF_I2C_SLAVE.c **** *  Sets the buffer pointer and size of the read buffer. This function also
 238:.\Generated_Source\PSoC4/I2C_SF_I2C_SLAVE.c **** *  resets the transfer count returned with the I2C_SlaveGetReadBufSize function.
 239:.\Generated_Source\PSoC4/I2C_SF_I2C_SLAVE.c **** *
 240:.\Generated_Source\PSoC4/I2C_SF_I2C_SLAVE.c **** * Parameters:
 241:.\Generated_Source\PSoC4/I2C_SF_I2C_SLAVE.c **** *  writeBuf:  Pointer to the data buffer to be read by the master.
 242:.\Generated_Source\PSoC4/I2C_SF_I2C_SLAVE.c **** *  bufSize:  Size of the buffer exposed to the I2C master.
 243:.\Generated_Source\PSoC4/I2C_SF_I2C_SLAVE.c **** *
 244:.\Generated_Source\PSoC4/I2C_SF_I2C_SLAVE.c **** * Return:
 245:.\Generated_Source\PSoC4/I2C_SF_I2C_SLAVE.c **** *  None
 246:.\Generated_Source\PSoC4/I2C_SF_I2C_SLAVE.c **** *
 247:.\Generated_Source\PSoC4/I2C_SF_I2C_SLAVE.c **** * Global variables:
 248:.\Generated_Source\PSoC4/I2C_SF_I2C_SLAVE.c **** *  I2C_SF_slWrBufPtr   - used to store pointer to slave write buffer.
 249:.\Generated_Source\PSoC4/I2C_SF_I2C_SLAVE.c **** *  I2C_SF_slWrBufSize  - used to store salve write buffer size.
 250:.\Generated_Source\PSoC4/I2C_SF_I2C_SLAVE.c **** *  I2C_SF_slWrBufIndex - used to store current index within slave
 251:.\Generated_Source\PSoC4/I2C_SF_I2C_SLAVE.c **** *  write buffer.
 252:.\Generated_Source\PSoC4/I2C_SF_I2C_SLAVE.c **** *
 253:.\Generated_Source\PSoC4/I2C_SF_I2C_SLAVE.c **** * Side Effects:
 254:.\Generated_Source\PSoC4/I2C_SF_I2C_SLAVE.c **** *  If this function is called during a bus transaction, data from the previous
 255:.\Generated_Source\PSoC4/I2C_SF_I2C_SLAVE.c **** *  buffer location and the beginning of current buffer may be transmitted.
 256:.\Generated_Source\PSoC4/I2C_SF_I2C_SLAVE.c **** *
 257:.\Generated_Source\PSoC4/I2C_SF_I2C_SLAVE.c **** *******************************************************************************/
 258:.\Generated_Source\PSoC4/I2C_SF_I2C_SLAVE.c **** void I2C_SF_I2CSlaveInitWriteBuf(uint8 * wrBuf, uint32 bufSize)
 259:.\Generated_Source\PSoC4/I2C_SF_I2C_SLAVE.c **** {
 344              		.loc 1 259 0
 345              		.cfi_startproc
 346 0000 80B5     		push	{r7, lr}
 347              		.cfi_def_cfa_offset 8
 348              		.cfi_offset 7, -8
 349              		.cfi_offset 14, -4
 350 0002 82B0     		sub	sp, sp, #8
 351              		.cfi_def_cfa_offset 16
 352 0004 00AF     		add	r7, sp, #0
 353              		.cfi_def_cfa_register 7
 354 0006 7860     		str	r0, [r7, #4]
 355 0008 3960     		str	r1, [r7]
 260:.\Generated_Source\PSoC4/I2C_SF_I2C_SLAVE.c ****     /* Check buffer pointer */
 261:.\Generated_Source\PSoC4/I2C_SF_I2C_SLAVE.c ****     if(NULL != wrBuf)
 356              		.loc 1 261 0
 357 000a 7B68     		ldr	r3, [r7, #4]
 358 000c 002B     		cmp	r3, #0
 359 000e 0ED0     		beq	.L23
 262:.\Generated_Source\PSoC4/I2C_SF_I2C_SLAVE.c ****     {
 263:.\Generated_Source\PSoC4/I2C_SF_I2C_SLAVE.c ****         I2C_SF_DisableInt();  /* Lock from interruption */
 360              		.loc 1 263 0
 361 0010 0A20     		mov	r0, #10
 362 0012 FFF7FEFF 		bl	CyIntDisable
 264:.\Generated_Source\PSoC4/I2C_SF_I2C_SLAVE.c **** 
 265:.\Generated_Source\PSoC4/I2C_SF_I2C_SLAVE.c ****         I2C_SF_slWrBufPtr   = (volatile uint8 *) wrBuf; /* Set buffer pointer  */
ARM GAS  C:\Users\Jeppe\AppData\Local\Temp\ccCN6hAw.s 			page 12


 363              		.loc 1 265 0
 364 0016 074B     		ldr	r3, .L25
 365 0018 7A68     		ldr	r2, [r7, #4]
 366 001a 1A60     		str	r2, [r3]
 266:.\Generated_Source\PSoC4/I2C_SF_I2C_SLAVE.c ****         I2C_SF_slWrBufSize  = bufSize;                  /* Set buffer size     */
 367              		.loc 1 266 0
 368 001c 064B     		ldr	r3, .L25+4
 369 001e 3A68     		ldr	r2, [r7]
 370 0020 1A60     		str	r2, [r3]
 267:.\Generated_Source\PSoC4/I2C_SF_I2C_SLAVE.c ****         I2C_SF_slWrBufIndex = 0u;                       /* Clear buffer index  */
 371              		.loc 1 267 0
 372 0022 064B     		ldr	r3, .L25+8
 373 0024 0022     		mov	r2, #0
 374 0026 1A60     		str	r2, [r3]
 268:.\Generated_Source\PSoC4/I2C_SF_I2C_SLAVE.c **** 
 269:.\Generated_Source\PSoC4/I2C_SF_I2C_SLAVE.c ****         I2C_SF_EnableInt();   /* Release lock */
 375              		.loc 1 269 0
 376 0028 0A20     		mov	r0, #10
 377 002a FFF7FEFF 		bl	CyIntEnable
 378              	.L23:
 270:.\Generated_Source\PSoC4/I2C_SF_I2C_SLAVE.c ****     }
 271:.\Generated_Source\PSoC4/I2C_SF_I2C_SLAVE.c **** }
 379              		.loc 1 271 0
 380 002e BD46     		mov	sp, r7
 381 0030 02B0     		add	sp, sp, #8
 382              		@ sp needed
 383 0032 80BD     		pop	{r7, pc}
 384              	.L26:
 385              		.align	2
 386              	.L25:
 387 0034 00000000 		.word	I2C_SF_slWrBufPtr
 388 0038 00000000 		.word	I2C_SF_slWrBufSize
 389 003c 00000000 		.word	I2C_SF_slWrBufIndex
 390              		.cfi_endproc
 391              	.LFE6:
 392              		.size	I2C_SF_I2CSlaveInitWriteBuf, .-I2C_SF_I2CSlaveInitWriteBuf
 393              		.section	.text.I2C_SF_I2CSlaveGetReadBufSize,"ax",%progbits
 394              		.align	2
 395              		.global	I2C_SF_I2CSlaveGetReadBufSize
 396              		.code	16
 397              		.thumb_func
 398              		.type	I2C_SF_I2CSlaveGetReadBufSize, %function
 399              	I2C_SF_I2CSlaveGetReadBufSize:
 400              	.LFB7:
 272:.\Generated_Source\PSoC4/I2C_SF_I2C_SLAVE.c **** 
 273:.\Generated_Source\PSoC4/I2C_SF_I2C_SLAVE.c **** 
 274:.\Generated_Source\PSoC4/I2C_SF_I2C_SLAVE.c **** /*******************************************************************************
 275:.\Generated_Source\PSoC4/I2C_SF_I2C_SLAVE.c **** * Function Name: I2C_SF_I2CSlaveGetReadBufSize
 276:.\Generated_Source\PSoC4/I2C_SF_I2C_SLAVE.c **** ********************************************************************************
 277:.\Generated_Source\PSoC4/I2C_SF_I2C_SLAVE.c **** *
 278:.\Generated_Source\PSoC4/I2C_SF_I2C_SLAVE.c **** * Summary:
 279:.\Generated_Source\PSoC4/I2C_SF_I2C_SLAVE.c **** *  Returns the number of bytes read by the I2C master since an
 280:.\Generated_Source\PSoC4/I2C_SF_I2C_SLAVE.c **** *  I2C_SlaveInitReadBuf or I2C_SlaveClearReadBuf function was executed.
 281:.\Generated_Source\PSoC4/I2C_SF_I2C_SLAVE.c **** *  The maximum return value will be the size of the read buffer.
 282:.\Generated_Source\PSoC4/I2C_SF_I2C_SLAVE.c **** *
 283:.\Generated_Source\PSoC4/I2C_SF_I2C_SLAVE.c **** * Parameters:
 284:.\Generated_Source\PSoC4/I2C_SF_I2C_SLAVE.c **** *  None
ARM GAS  C:\Users\Jeppe\AppData\Local\Temp\ccCN6hAw.s 			page 13


 285:.\Generated_Source\PSoC4/I2C_SF_I2C_SLAVE.c **** *
 286:.\Generated_Source\PSoC4/I2C_SF_I2C_SLAVE.c **** * Return:
 287:.\Generated_Source\PSoC4/I2C_SF_I2C_SLAVE.c **** *  Bytes read by master.
 288:.\Generated_Source\PSoC4/I2C_SF_I2C_SLAVE.c **** *
 289:.\Generated_Source\PSoC4/I2C_SF_I2C_SLAVE.c **** * Global variables:
 290:.\Generated_Source\PSoC4/I2C_SF_I2C_SLAVE.c **** *  I2C_SF_slRdBufIndex - used to store current index within slave
 291:.\Generated_Source\PSoC4/I2C_SF_I2C_SLAVE.c **** *  read buffer.
 292:.\Generated_Source\PSoC4/I2C_SF_I2C_SLAVE.c **** *
 293:.\Generated_Source\PSoC4/I2C_SF_I2C_SLAVE.c **** *******************************************************************************/
 294:.\Generated_Source\PSoC4/I2C_SF_I2C_SLAVE.c **** uint32 I2C_SF_I2CSlaveGetReadBufSize(void)
 295:.\Generated_Source\PSoC4/I2C_SF_I2C_SLAVE.c **** {
 401              		.loc 1 295 0
 402              		.cfi_startproc
 403 0000 80B5     		push	{r7, lr}
 404              		.cfi_def_cfa_offset 8
 405              		.cfi_offset 7, -8
 406              		.cfi_offset 14, -4
 407 0002 00AF     		add	r7, sp, #0
 408              		.cfi_def_cfa_register 7
 296:.\Generated_Source\PSoC4/I2C_SF_I2C_SLAVE.c ****     return(I2C_SF_slRdBufIndex);
 409              		.loc 1 296 0
 410 0004 024B     		ldr	r3, .L29
 411 0006 1B68     		ldr	r3, [r3]
 297:.\Generated_Source\PSoC4/I2C_SF_I2C_SLAVE.c **** }
 412              		.loc 1 297 0
 413 0008 181C     		mov	r0, r3
 414 000a BD46     		mov	sp, r7
 415              		@ sp needed
 416 000c 80BD     		pop	{r7, pc}
 417              	.L30:
 418 000e C046     		.align	2
 419              	.L29:
 420 0010 00000000 		.word	I2C_SF_slRdBufIndex
 421              		.cfi_endproc
 422              	.LFE7:
 423              		.size	I2C_SF_I2CSlaveGetReadBufSize, .-I2C_SF_I2CSlaveGetReadBufSize
 424              		.section	.text.I2C_SF_I2CSlaveGetWriteBufSize,"ax",%progbits
 425              		.align	2
 426              		.global	I2C_SF_I2CSlaveGetWriteBufSize
 427              		.code	16
 428              		.thumb_func
 429              		.type	I2C_SF_I2CSlaveGetWriteBufSize, %function
 430              	I2C_SF_I2CSlaveGetWriteBufSize:
 431              	.LFB8:
 298:.\Generated_Source\PSoC4/I2C_SF_I2C_SLAVE.c **** 
 299:.\Generated_Source\PSoC4/I2C_SF_I2C_SLAVE.c **** 
 300:.\Generated_Source\PSoC4/I2C_SF_I2C_SLAVE.c **** /*******************************************************************************
 301:.\Generated_Source\PSoC4/I2C_SF_I2C_SLAVE.c **** * Function Name: I2C_SF_I2CSlaveGetWriteBufSize
 302:.\Generated_Source\PSoC4/I2C_SF_I2C_SLAVE.c **** ********************************************************************************
 303:.\Generated_Source\PSoC4/I2C_SF_I2C_SLAVE.c **** *
 304:.\Generated_Source\PSoC4/I2C_SF_I2C_SLAVE.c **** * Summary:
 305:.\Generated_Source\PSoC4/I2C_SF_I2C_SLAVE.c **** *  Returns the number of bytes written by the I2C master since an
 306:.\Generated_Source\PSoC4/I2C_SF_I2C_SLAVE.c **** *  I2C_SlaveInitWriteBuf or I2C_SlaveClearWriteBuf function was executed.
 307:.\Generated_Source\PSoC4/I2C_SF_I2C_SLAVE.c **** *  The maximum return value will be the size of the write buffer.
 308:.\Generated_Source\PSoC4/I2C_SF_I2C_SLAVE.c **** *
 309:.\Generated_Source\PSoC4/I2C_SF_I2C_SLAVE.c **** * Parameters:
 310:.\Generated_Source\PSoC4/I2C_SF_I2C_SLAVE.c **** *  None
ARM GAS  C:\Users\Jeppe\AppData\Local\Temp\ccCN6hAw.s 			page 14


 311:.\Generated_Source\PSoC4/I2C_SF_I2C_SLAVE.c **** *
 312:.\Generated_Source\PSoC4/I2C_SF_I2C_SLAVE.c **** * Return:
 313:.\Generated_Source\PSoC4/I2C_SF_I2C_SLAVE.c **** *  Bytes written by master.
 314:.\Generated_Source\PSoC4/I2C_SF_I2C_SLAVE.c **** *
 315:.\Generated_Source\PSoC4/I2C_SF_I2C_SLAVE.c **** * Global variables:
 316:.\Generated_Source\PSoC4/I2C_SF_I2C_SLAVE.c **** *  I2C_SF_slWrBufIndex - used to store current index within slave
 317:.\Generated_Source\PSoC4/I2C_SF_I2C_SLAVE.c **** *  write buffer.
 318:.\Generated_Source\PSoC4/I2C_SF_I2C_SLAVE.c **** *
 319:.\Generated_Source\PSoC4/I2C_SF_I2C_SLAVE.c **** *******************************************************************************/
 320:.\Generated_Source\PSoC4/I2C_SF_I2C_SLAVE.c **** uint32 I2C_SF_I2CSlaveGetWriteBufSize(void)
 321:.\Generated_Source\PSoC4/I2C_SF_I2C_SLAVE.c **** {
 432              		.loc 1 321 0
 433              		.cfi_startproc
 434 0000 80B5     		push	{r7, lr}
 435              		.cfi_def_cfa_offset 8
 436              		.cfi_offset 7, -8
 437              		.cfi_offset 14, -4
 438 0002 00AF     		add	r7, sp, #0
 439              		.cfi_def_cfa_register 7
 322:.\Generated_Source\PSoC4/I2C_SF_I2C_SLAVE.c ****     return(I2C_SF_slWrBufIndex);
 440              		.loc 1 322 0
 441 0004 024B     		ldr	r3, .L33
 442 0006 1B68     		ldr	r3, [r3]
 323:.\Generated_Source\PSoC4/I2C_SF_I2C_SLAVE.c **** }
 443              		.loc 1 323 0
 444 0008 181C     		mov	r0, r3
 445 000a BD46     		mov	sp, r7
 446              		@ sp needed
 447 000c 80BD     		pop	{r7, pc}
 448              	.L34:
 449 000e C046     		.align	2
 450              	.L33:
 451 0010 00000000 		.word	I2C_SF_slWrBufIndex
 452              		.cfi_endproc
 453              	.LFE8:
 454              		.size	I2C_SF_I2CSlaveGetWriteBufSize, .-I2C_SF_I2CSlaveGetWriteBufSize
 455              		.section	.text.I2C_SF_I2CSlaveClearReadBuf,"ax",%progbits
 456              		.align	2
 457              		.global	I2C_SF_I2CSlaveClearReadBuf
 458              		.code	16
 459              		.thumb_func
 460              		.type	I2C_SF_I2CSlaveClearReadBuf, %function
 461              	I2C_SF_I2CSlaveClearReadBuf:
 462              	.LFB9:
 324:.\Generated_Source\PSoC4/I2C_SF_I2C_SLAVE.c **** 
 325:.\Generated_Source\PSoC4/I2C_SF_I2C_SLAVE.c **** 
 326:.\Generated_Source\PSoC4/I2C_SF_I2C_SLAVE.c **** /*******************************************************************************
 327:.\Generated_Source\PSoC4/I2C_SF_I2C_SLAVE.c **** * Function Name: I2C_SF_I2CSlaveClearReadBuf
 328:.\Generated_Source\PSoC4/I2C_SF_I2C_SLAVE.c **** ********************************************************************************
 329:.\Generated_Source\PSoC4/I2C_SF_I2C_SLAVE.c **** *
 330:.\Generated_Source\PSoC4/I2C_SF_I2C_SLAVE.c **** * Summary:
 331:.\Generated_Source\PSoC4/I2C_SF_I2C_SLAVE.c **** *  Resets the read pointer to the first byte in the read buffer. The next byte
 332:.\Generated_Source\PSoC4/I2C_SF_I2C_SLAVE.c **** *  read by the master will be the first byte in the read buffer.
 333:.\Generated_Source\PSoC4/I2C_SF_I2C_SLAVE.c **** *
 334:.\Generated_Source\PSoC4/I2C_SF_I2C_SLAVE.c **** * Parameters:
 335:.\Generated_Source\PSoC4/I2C_SF_I2C_SLAVE.c **** *  None
 336:.\Generated_Source\PSoC4/I2C_SF_I2C_SLAVE.c **** *
ARM GAS  C:\Users\Jeppe\AppData\Local\Temp\ccCN6hAw.s 			page 15


 337:.\Generated_Source\PSoC4/I2C_SF_I2C_SLAVE.c **** * Return:
 338:.\Generated_Source\PSoC4/I2C_SF_I2C_SLAVE.c **** *  None
 339:.\Generated_Source\PSoC4/I2C_SF_I2C_SLAVE.c **** *
 340:.\Generated_Source\PSoC4/I2C_SF_I2C_SLAVE.c **** * Global variables:
 341:.\Generated_Source\PSoC4/I2C_SF_I2C_SLAVE.c **** *  I2C_SF_slRdBufIndex - used to store current index within slave
 342:.\Generated_Source\PSoC4/I2C_SF_I2C_SLAVE.c **** *  read buffer.
 343:.\Generated_Source\PSoC4/I2C_SF_I2C_SLAVE.c **** *
 344:.\Generated_Source\PSoC4/I2C_SF_I2C_SLAVE.c **** *******************************************************************************/
 345:.\Generated_Source\PSoC4/I2C_SF_I2C_SLAVE.c **** void I2C_SF_I2CSlaveClearReadBuf(void)
 346:.\Generated_Source\PSoC4/I2C_SF_I2C_SLAVE.c **** {
 463              		.loc 1 346 0
 464              		.cfi_startproc
 465 0000 80B5     		push	{r7, lr}
 466              		.cfi_def_cfa_offset 8
 467              		.cfi_offset 7, -8
 468              		.cfi_offset 14, -4
 469 0002 00AF     		add	r7, sp, #0
 470              		.cfi_def_cfa_register 7
 347:.\Generated_Source\PSoC4/I2C_SF_I2C_SLAVE.c ****     I2C_SF_slRdBufIndex = 0u;
 471              		.loc 1 347 0
 472 0004 024B     		ldr	r3, .L36
 473 0006 0022     		mov	r2, #0
 474 0008 1A60     		str	r2, [r3]
 348:.\Generated_Source\PSoC4/I2C_SF_I2C_SLAVE.c **** }
 475              		.loc 1 348 0
 476 000a BD46     		mov	sp, r7
 477              		@ sp needed
 478 000c 80BD     		pop	{r7, pc}
 479              	.L37:
 480 000e C046     		.align	2
 481              	.L36:
 482 0010 00000000 		.word	I2C_SF_slRdBufIndex
 483              		.cfi_endproc
 484              	.LFE9:
 485              		.size	I2C_SF_I2CSlaveClearReadBuf, .-I2C_SF_I2CSlaveClearReadBuf
 486              		.section	.text.I2C_SF_I2CSlaveClearWriteBuf,"ax",%progbits
 487              		.align	2
 488              		.global	I2C_SF_I2CSlaveClearWriteBuf
 489              		.code	16
 490              		.thumb_func
 491              		.type	I2C_SF_I2CSlaveClearWriteBuf, %function
 492              	I2C_SF_I2CSlaveClearWriteBuf:
 493              	.LFB10:
 349:.\Generated_Source\PSoC4/I2C_SF_I2C_SLAVE.c **** 
 350:.\Generated_Source\PSoC4/I2C_SF_I2C_SLAVE.c **** 
 351:.\Generated_Source\PSoC4/I2C_SF_I2C_SLAVE.c **** /*******************************************************************************
 352:.\Generated_Source\PSoC4/I2C_SF_I2C_SLAVE.c **** * Function Name: I2C_SF_I2CSlaveClearWriteBuf
 353:.\Generated_Source\PSoC4/I2C_SF_I2C_SLAVE.c **** ********************************************************************************
 354:.\Generated_Source\PSoC4/I2C_SF_I2C_SLAVE.c **** *
 355:.\Generated_Source\PSoC4/I2C_SF_I2C_SLAVE.c **** * Summary:
 356:.\Generated_Source\PSoC4/I2C_SF_I2C_SLAVE.c **** *  Resets the write pointer to the first byte in the write buffer. The next byte
 357:.\Generated_Source\PSoC4/I2C_SF_I2C_SLAVE.c **** *  written by the master will be the first byte in the write buffer.
 358:.\Generated_Source\PSoC4/I2C_SF_I2C_SLAVE.c **** *
 359:.\Generated_Source\PSoC4/I2C_SF_I2C_SLAVE.c **** * Parameters:
 360:.\Generated_Source\PSoC4/I2C_SF_I2C_SLAVE.c **** *  None
 361:.\Generated_Source\PSoC4/I2C_SF_I2C_SLAVE.c **** *
 362:.\Generated_Source\PSoC4/I2C_SF_I2C_SLAVE.c **** * Return:
ARM GAS  C:\Users\Jeppe\AppData\Local\Temp\ccCN6hAw.s 			page 16


 363:.\Generated_Source\PSoC4/I2C_SF_I2C_SLAVE.c **** *  None
 364:.\Generated_Source\PSoC4/I2C_SF_I2C_SLAVE.c **** *
 365:.\Generated_Source\PSoC4/I2C_SF_I2C_SLAVE.c **** * Global variables:
 366:.\Generated_Source\PSoC4/I2C_SF_I2C_SLAVE.c **** *  I2C_SF_slWrBufIndex - used to store current index within slave
 367:.\Generated_Source\PSoC4/I2C_SF_I2C_SLAVE.c **** *  write buffer.
 368:.\Generated_Source\PSoC4/I2C_SF_I2C_SLAVE.c **** *
 369:.\Generated_Source\PSoC4/I2C_SF_I2C_SLAVE.c **** *******************************************************************************/
 370:.\Generated_Source\PSoC4/I2C_SF_I2C_SLAVE.c **** void I2C_SF_I2CSlaveClearWriteBuf(void)
 371:.\Generated_Source\PSoC4/I2C_SF_I2C_SLAVE.c **** {
 494              		.loc 1 371 0
 495              		.cfi_startproc
 496 0000 80B5     		push	{r7, lr}
 497              		.cfi_def_cfa_offset 8
 498              		.cfi_offset 7, -8
 499              		.cfi_offset 14, -4
 500 0002 00AF     		add	r7, sp, #0
 501              		.cfi_def_cfa_register 7
 372:.\Generated_Source\PSoC4/I2C_SF_I2C_SLAVE.c ****     I2C_SF_slWrBufIndex = 0u;
 502              		.loc 1 372 0
 503 0004 024B     		ldr	r3, .L39
 504 0006 0022     		mov	r2, #0
 505 0008 1A60     		str	r2, [r3]
 373:.\Generated_Source\PSoC4/I2C_SF_I2C_SLAVE.c **** }
 506              		.loc 1 373 0
 507 000a BD46     		mov	sp, r7
 508              		@ sp needed
 509 000c 80BD     		pop	{r7, pc}
 510              	.L40:
 511 000e C046     		.align	2
 512              	.L39:
 513 0010 00000000 		.word	I2C_SF_slWrBufIndex
 514              		.cfi_endproc
 515              	.LFE10:
 516              		.size	I2C_SF_I2CSlaveClearWriteBuf, .-I2C_SF_I2CSlaveClearWriteBuf
 517              		.text
 518              	.Letext0:
 519              		.file 2 ".\\Generated_Source\\PSoC4/cytypes.h"