ARM GAS  C:\Users\Jeppe\AppData\Local\Temp\ccelfiWw.s 			page 1


   1              		.cpu cortex-m0
   2              		.fpu softvfp
   3              		.eabi_attribute 20, 1
   4              		.eabi_attribute 21, 1
   5              		.eabi_attribute 23, 3
   6              		.eabi_attribute 24, 1
   7              		.eabi_attribute 25, 1
   8              		.eabi_attribute 26, 1
   9              		.eabi_attribute 30, 6
  10              		.eabi_attribute 34, 0
  11              		.eabi_attribute 18, 4
  12              		.code	16
  13              		.file	"regulering.c"
  14              		.text
  15              	.Ltext0:
  16              		.cfi_sections	.debug_frame
  17              		.comm	sensorDataPtr_,4,4
  18              		.comm	fixedPointReg_,4,4
  19              		.comm	reguleringsStatus_,4,4
  20              		.comm	going_up_,1,1
  21              		.comm	pwmSineAngle_,4,4
  22              		.comm	print1,4,4
  23              		.comm	print2,4,4
  24              		.comm	prevFrek,1,1
  25              		.comm	prevUdsving,1,1
  26              		.comm	angleInc,4,4
  27              		.comm	sineA,4,4
  28              		.comm	prev_e,4,4
  29              		.comm	i_e,4,4
  30              		.global	mode
  31              		.bss
  32              		.type	mode, %object
  33              		.size	mode, 1
  34              	mode:
  35 0000 00       		.space	1
  36              		.section	.text.initRegulering,"ax",%progbits
  37              		.align	2
  38              		.global	initRegulering
  39              		.code	16
  40              		.thumb_func
  41              		.type	initRegulering, %function
  42              	initRegulering:
  43              	.LFB33:
  44              		.file 1 ".\\regulering.c"
   1:.\regulering.c **** /* ========================================
   2:.\regulering.c ****  *
   3:.\regulering.c ****  * Copyright Baby Watch, 2015
   4:.\regulering.c ****  * All Rights Reserved
   5:.\regulering.c ****  * UNPUBLISHED, LICENSED SOFTWARE.
   6:.\regulering.c ****  *
   7:.\regulering.c ****  * CONFIDENTIAL AND PROPRIETARY INFORMATION
   8:.\regulering.c ****  * WHICH IS THE PROPERTY OF Baby Watch.
   9:.\regulering.c ****  *
  10:.\regulering.c ****  * ========================================
  11:.\regulering.c **** */
  12:.\regulering.c **** //========================================================================
  13:.\regulering.c **** // FILENAME : regulering.c
ARM GAS  C:\Users\Jeppe\AppData\Local\Temp\ccelfiWw.s 			page 2


  14:.\regulering.c **** // CREATED : 03-03-2015
  15:.\regulering.c **** // AUTHOR  : Jeppe Hofni
  16:.\regulering.c **** // DESCR.  : h file for PSoC4
  17:.\regulering.c **** //
  18:.\regulering.c **** //------------------------------------------------------------------------
  19:.\regulering.c **** //
  20:.\regulering.c **** // REV.  DATE/AUTHOR  CHANGE DESCRIPTION
  21:.\regulering.c **** // 0.1  03-03-2015 - Jeppe - First writeup of regulering.c
  22:.\regulering.c **** // 0.2	30-04-2015 - Jeppe - First writeup of MotorPWM module
  23:.\regulering.c **** // 0.3	23-05-2015 - Jeppe and Felix Blix - First write up of control implemented
  24:.\regulering.c **** //------------------------------------------------------------------------
  25:.\regulering.c **** // KNOWN ISSUES:
  26:.\regulering.c **** // REV. - ISSUE(S)
  27:.\regulering.c **** // 0.1 - Needs to be sorted proper
  28:.\regulering.c **** // 0.2 - Regulering needs finished implementation
  29:.\regulering.c **** // 0.3 - Needs proper control
  30:.\regulering.c **** //========================================================================
  31:.\regulering.c **** #include "regulering.h"
  32:.\regulering.c **** #include <fixedMath.h>
  33:.\regulering.c **** #include <stdio.h>
  34:.\regulering.c **** 
  35:.\regulering.c **** uint8_t mode = 0;
  36:.\regulering.c **** 
  37:.\regulering.c **** /*        --------------        FUNCTION DEFINITIONS       ---------------          */ 
  38:.\regulering.c **** 
  39:.\regulering.c **** /* Function Name: initRegulering
  40:.\regulering.c ****    Summary:
  41:.\regulering.c ****     Initiates regulering
  42:.\regulering.c **** */
  43:.\regulering.c **** void initRegulering()
  44:.\regulering.c **** {
  45              		.loc 1 44 0
  46              		.cfi_startproc
  47 0000 80B5     		push	{r7, lr}
  48              		.cfi_def_cfa_offset 8
  49              		.cfi_offset 7, -8
  50              		.cfi_offset 14, -4
  51 0002 00AF     		add	r7, sp, #0
  52              		.cfi_def_cfa_register 7
  45:.\regulering.c ****     prevFrek = 0;
  53              		.loc 1 45 0
  54 0004 0F4B     		ldr	r3, .L2
  55 0006 0022     		mov	r2, #0
  56 0008 1A70     		strb	r2, [r3]
  46:.\regulering.c ****     prevUdsving = 0;
  57              		.loc 1 46 0
  58 000a 0F4B     		ldr	r3, .L2+4
  59 000c 0022     		mov	r2, #0
  60 000e 1A70     		strb	r2, [r3]
  47:.\regulering.c ****     angleInc = 0; // the sine angle increment for each loop iteration with the current frequncy
  61              		.loc 1 47 0
  62 0010 0E4B     		ldr	r3, .L2+8
  63 0012 0022     		mov	r2, #0
  64 0014 1A60     		str	r2, [r3]
  48:.\regulering.c ****     sineA = 0;
  65              		.loc 1 48 0
  66 0016 0E4B     		ldr	r3, .L2+12
ARM GAS  C:\Users\Jeppe\AppData\Local\Temp\ccelfiWw.s 			page 3


  67 0018 0022     		mov	r2, #0
  68 001a 1A60     		str	r2, [r3]
  49:.\regulering.c ****     reguleringsStatus_ = 0;
  69              		.loc 1 49 0
  70 001c 0D4B     		ldr	r3, .L2+16
  71 001e 0022     		mov	r2, #0
  72 0020 1A60     		str	r2, [r3]
  50:.\regulering.c ****     going_up_ = TRUE;
  73              		.loc 1 50 0
  74 0022 0D4B     		ldr	r3, .L2+20
  75 0024 0122     		mov	r2, #1
  76 0026 1A70     		strb	r2, [r3]
  51:.\regulering.c ****     pwmSineAngle_ = 0;
  77              		.loc 1 51 0
  78 0028 0C4B     		ldr	r3, .L2+24
  79 002a 0022     		mov	r2, #0
  80 002c 1A60     		str	r2, [r3]
  52:.\regulering.c ****     PWM_Start();
  81              		.loc 1 52 0
  82 002e FFF7FEFF 		bl	PWM_Start
  53:.\regulering.c ****     prev_e = 0;
  83              		.loc 1 53 0
  84 0032 0B4B     		ldr	r3, .L2+28
  85 0034 0022     		mov	r2, #0
  86 0036 1A60     		str	r2, [r3]
  54:.\regulering.c ****     i_e = 0;
  87              		.loc 1 54 0
  88 0038 0A4B     		ldr	r3, .L2+32
  89 003a 0022     		mov	r2, #0
  90 003c 1A60     		str	r2, [r3]
  55:.\regulering.c **** }
  91              		.loc 1 55 0
  92 003e BD46     		mov	sp, r7
  93              		@ sp needed
  94 0040 80BD     		pop	{r7, pc}
  95              	.L3:
  96 0042 C046     		.align	2
  97              	.L2:
  98 0044 00000000 		.word	prevFrek
  99 0048 00000000 		.word	prevUdsving
 100 004c 00000000 		.word	angleInc
 101 0050 00000000 		.word	sineA
 102 0054 00000000 		.word	reguleringsStatus_
 103 0058 00000000 		.word	going_up_
 104 005c 00000000 		.word	pwmSineAngle_
 105 0060 00000000 		.word	prev_e
 106 0064 00000000 		.word	i_e
 107              		.cfi_endproc
 108              	.LFE33:
 109              		.size	initRegulering, .-initRegulering
 110              		.section	.rodata
 111              		.align	2
 112              	.LC12:
 113 0000 0D0A0A76 		.ascii	"\015\012\012vuggetilstand: 0\015\012\012\000"
 113      75676765 
 113      74696C73 
 113      74616E64 
ARM GAS  C:\Users\Jeppe\AppData\Local\Temp\ccelfiWw.s 			page 4


 113      3A20300D 
 114 0017 00       		.align	2
 115              	.LC14:
 116 0018 0D0A0A76 		.ascii	"\015\012\012vuggetilstand: A\015\012\012\000"
 116      75676765 
 116      74696C73 
 116      74616E64 
 116      3A20410D 
 117 002f 00       		.align	2
 118              	.LC16:
 119 0030 0D0A0A76 		.ascii	"\015\012\012vuggetilstand: B\015\012\012\000"
 119      75676765 
 119      74696C73 
 119      74616E64 
 119      3A20420D 
 120 0047 00       		.align	2
 121              	.LC18:
 122 0048 0D0A0A76 		.ascii	"\015\012\012vuggetilstand: C\015\012\012\000"
 122      75676765 
 122      74696C73 
 122      74616E64 
 122      3A20430D 
 123 005f 00       		.align	2
 124              	.LC20:
 125 0060 0D0A0A76 		.ascii	"\015\012\012vuggetilstand: Manuel\015\012\012\000"
 125      75676765 
 125      74696C73 
 125      74616E64 
 125      3A204D61 
 126              		.section	.text.updateRegParameter,"ax",%progbits
 127              		.align	2
 128              		.global	updateRegParameter
 129              		.code	16
 130              		.thumb_func
 131              		.type	updateRegParameter, %function
 132              	updateRegParameter:
 133              	.LFB34:
  56:.\regulering.c **** 
  57:.\regulering.c **** /* Function regParameter
  58:.\regulering.c ****    Summary:
  59:.\regulering.c ****     Receives the rocking parametres for the i2C reg and validates them
  60:.\regulering.c **** */
  61:.\regulering.c **** void updateRegParameter(uint8 vuggefrekvens, uint8 vuggeudsving)
  62:.\regulering.c **** {
 134              		.loc 1 62 0
 135              		.cfi_startproc
 136 0000 80B5     		push	{r7, lr}
 137              		.cfi_def_cfa_offset 8
 138              		.cfi_offset 7, -8
 139              		.cfi_offset 14, -4
 140 0002 84B0     		sub	sp, sp, #16
 141              		.cfi_def_cfa_offset 24
 142 0004 00AF     		add	r7, sp, #0
 143              		.cfi_def_cfa_register 7
 144 0006 0A1C     		mov	r2, r1
 145 0008 FB1D     		add	r3, r7, #7
 146 000a 011C     		add	r1, r0, #0
ARM GAS  C:\Users\Jeppe\AppData\Local\Temp\ccelfiWw.s 			page 5


 147 000c 1970     		strb	r1, [r3]
 148 000e BB1D     		add	r3, r7, #6
 149 0010 1A70     		strb	r2, [r3]
  63:.\regulering.c ****     if((vuggefrekvens == prevFrek) && (vuggeudsving == prevUdsving)) return;
 150              		.loc 1 63 0
 151 0012 554B     		ldr	r3, .L16
 152 0014 1B78     		ldrb	r3, [r3]
 153 0016 FA1D     		add	r2, r7, #7
 154 0018 1278     		ldrb	r2, [r2]
 155 001a 9A42     		cmp	r2, r3
 156 001c 06D1     		bne	.L5
 157              		.loc 1 63 0 is_stmt 0 discriminator 1
 158 001e 534B     		ldr	r3, .L16+4
 159 0020 1B78     		ldrb	r3, [r3]
 160 0022 BA1D     		add	r2, r7, #6
 161 0024 1278     		ldrb	r2, [r2]
 162 0026 9A42     		cmp	r2, r3
 163 0028 00D1     		bne	.L5
 164 002a 9AE0     		b	.L4
 165              	.L5:
  64:.\regulering.c ****     
  65:.\regulering.c ****     BOOL valid = FALSE;
 166              		.loc 1 65 0 is_stmt 1
 167 002c 3B1C     		mov	r3, r7
 168 002e 0F33     		add	r3, r3, #15
 169 0030 0022     		mov	r2, #0
 170 0032 1A70     		strb	r2, [r3]
  66:.\regulering.c ****     if((vuggefrekvens == 0) && (vuggeudsving == 0))// Vugge-niveau 0: 0 Hz (0) 0 grader (0)
 171              		.loc 1 66 0
 172 0034 FB1D     		add	r3, r7, #7
 173 0036 1B78     		ldrb	r3, [r3]
 174 0038 002B     		cmp	r3, #0
 175 003a 14D1     		bne	.L7
 176              		.loc 1 66 0 is_stmt 0 discriminator 1
 177 003c BB1D     		add	r3, r7, #6
 178 003e 1B78     		ldrb	r3, [r3]
 179 0040 002B     		cmp	r3, #0
 180 0042 10D1     		bne	.L7
  67:.\regulering.c ****     {
  68:.\regulering.c ****         valid = TRUE;
 181              		.loc 1 68 0 is_stmt 1
 182 0044 3B1C     		mov	r3, r7
 183 0046 0F33     		add	r3, r3, #15
 184 0048 0122     		mov	r2, #1
 185 004a 1A70     		strb	r2, [r3]
  69:.\regulering.c ****         if(mode != 0){
 186              		.loc 1 69 0
 187 004c 484B     		ldr	r3, .L16+8
 188 004e 1B78     		ldrb	r3, [r3]
 189 0050 002B     		cmp	r3, #0
 190 0052 07D0     		beq	.L8
  70:.\regulering.c ****             debugOut_PutString("\r\n\nvuggetilstand: 0\r\n\n");
 191              		.loc 1 70 0
 192 0054 474B     		ldr	r3, .L16+12
 193 0056 181C     		mov	r0, r3
 194 0058 FFF7FEFF 		bl	debugOut_PutString
  71:.\regulering.c ****             mode = 0;
ARM GAS  C:\Users\Jeppe\AppData\Local\Temp\ccelfiWw.s 			page 6


 195              		.loc 1 71 0
 196 005c 444B     		ldr	r3, .L16+8
 197 005e 0022     		mov	r2, #0
 198 0060 1A70     		strb	r2, [r3]
  69:.\regulering.c ****         if(mode != 0){
 199              		.loc 1 69 0
 200 0062 62E0     		b	.L9
 201              	.L8:
  69:.\regulering.c ****         if(mode != 0){
 202              		.loc 1 69 0 is_stmt 0 discriminator 1
 203 0064 61E0     		b	.L9
 204              	.L7:
  72:.\regulering.c ****         }
  73:.\regulering.c ****     }
  74:.\regulering.c ****     else if((vuggefrekvens == A_FREQ) && (vuggeudsving == A_ANGLE))// Vugge-niveau 1: 0,5 Hz (50) 1
 205              		.loc 1 74 0 is_stmt 1
 206 0066 FB1D     		add	r3, r7, #7
 207 0068 1B78     		ldrb	r3, [r3]
 208 006a 082B     		cmp	r3, #8
 209 006c 14D1     		bne	.L10
 210              		.loc 1 74 0 is_stmt 0 discriminator 1
 211 006e BB1D     		add	r3, r7, #6
 212 0070 1B78     		ldrb	r3, [r3]
 213 0072 C82B     		cmp	r3, #200
 214 0074 10D1     		bne	.L10
  75:.\regulering.c ****     {
  76:.\regulering.c ****         valid = TRUE;
 215              		.loc 1 76 0 is_stmt 1
 216 0076 3B1C     		mov	r3, r7
 217 0078 0F33     		add	r3, r3, #15
 218 007a 0122     		mov	r2, #1
 219 007c 1A70     		strb	r2, [r3]
  77:.\regulering.c ****         if(mode != 1){
 220              		.loc 1 77 0
 221 007e 3C4B     		ldr	r3, .L16+8
 222 0080 1B78     		ldrb	r3, [r3]
 223 0082 012B     		cmp	r3, #1
 224 0084 07D0     		beq	.L11
  78:.\regulering.c ****             debugOut_PutString("\r\n\nvuggetilstand: A\r\n\n");
 225              		.loc 1 78 0
 226 0086 3C4B     		ldr	r3, .L16+16
 227 0088 181C     		mov	r0, r3
 228 008a FFF7FEFF 		bl	debugOut_PutString
  79:.\regulering.c ****             mode = 1;
 229              		.loc 1 79 0
 230 008e 384B     		ldr	r3, .L16+8
 231 0090 0122     		mov	r2, #1
 232 0092 1A70     		strb	r2, [r3]
  77:.\regulering.c ****         if(mode != 1){
 233              		.loc 1 77 0
 234 0094 49E0     		b	.L9
 235              	.L11:
  77:.\regulering.c ****         if(mode != 1){
 236              		.loc 1 77 0 is_stmt 0 discriminator 1
 237 0096 48E0     		b	.L9
 238              	.L10:
  80:.\regulering.c ****         }
ARM GAS  C:\Users\Jeppe\AppData\Local\Temp\ccelfiWw.s 			page 7


  81:.\regulering.c ****     }
  82:.\regulering.c ****     else if((vuggefrekvens == B_FREQ) && (vuggeudsving == B_ANGLE))// Vugge-niveau 2: 1 Hz (100) 6 
 239              		.loc 1 82 0 is_stmt 1
 240 0098 FB1D     		add	r3, r7, #7
 241 009a 1B78     		ldrb	r3, [r3]
 242 009c 102B     		cmp	r3, #16
 243 009e 14D1     		bne	.L12
 244              		.loc 1 82 0 is_stmt 0 discriminator 1
 245 00a0 BB1D     		add	r3, r7, #6
 246 00a2 1B78     		ldrb	r3, [r3]
 247 00a4 782B     		cmp	r3, #120
 248 00a6 10D1     		bne	.L12
  83:.\regulering.c ****     {
  84:.\regulering.c ****         valid = TRUE;
 249              		.loc 1 84 0 is_stmt 1
 250 00a8 3B1C     		mov	r3, r7
 251 00aa 0F33     		add	r3, r3, #15
 252 00ac 0122     		mov	r2, #1
 253 00ae 1A70     		strb	r2, [r3]
  85:.\regulering.c ****         if(mode != 2){
 254              		.loc 1 85 0
 255 00b0 2F4B     		ldr	r3, .L16+8
 256 00b2 1B78     		ldrb	r3, [r3]
 257 00b4 022B     		cmp	r3, #2
 258 00b6 07D0     		beq	.L13
  86:.\regulering.c ****             debugOut_PutString("\r\n\nvuggetilstand: B\r\n\n");
 259              		.loc 1 86 0
 260 00b8 304B     		ldr	r3, .L16+20
 261 00ba 181C     		mov	r0, r3
 262 00bc FFF7FEFF 		bl	debugOut_PutString
  87:.\regulering.c ****             mode = 2;
 263              		.loc 1 87 0
 264 00c0 2B4B     		ldr	r3, .L16+8
 265 00c2 0222     		mov	r2, #2
 266 00c4 1A70     		strb	r2, [r3]
  85:.\regulering.c ****         if(mode != 2){
 267              		.loc 1 85 0
 268 00c6 30E0     		b	.L9
 269              	.L13:
  85:.\regulering.c ****         if(mode != 2){
 270              		.loc 1 85 0 is_stmt 0 discriminator 1
 271 00c8 2FE0     		b	.L9
 272              	.L12:
  88:.\regulering.c ****         }
  89:.\regulering.c ****     }
  90:.\regulering.c ****     else if((vuggefrekvens) == C_FREQ && (vuggeudsving == C_ANGLE))// Vugge-niveau 3: 2 Hz (200) 4 
 273              		.loc 1 90 0 is_stmt 1
 274 00ca FB1D     		add	r3, r7, #7
 275 00cc 1B78     		ldrb	r3, [r3]
 276 00ce 202B     		cmp	r3, #32
 277 00d0 14D1     		bne	.L14
 278              		.loc 1 90 0 is_stmt 0 discriminator 1
 279 00d2 BB1D     		add	r3, r7, #6
 280 00d4 1B78     		ldrb	r3, [r3]
 281 00d6 502B     		cmp	r3, #80
 282 00d8 10D1     		bne	.L14
  91:.\regulering.c ****     {
ARM GAS  C:\Users\Jeppe\AppData\Local\Temp\ccelfiWw.s 			page 8


  92:.\regulering.c ****         valid = TRUE;
 283              		.loc 1 92 0 is_stmt 1
 284 00da 3B1C     		mov	r3, r7
 285 00dc 0F33     		add	r3, r3, #15
 286 00de 0122     		mov	r2, #1
 287 00e0 1A70     		strb	r2, [r3]
  93:.\regulering.c ****         if(mode != 3){
 288              		.loc 1 93 0
 289 00e2 234B     		ldr	r3, .L16+8
 290 00e4 1B78     		ldrb	r3, [r3]
 291 00e6 032B     		cmp	r3, #3
 292 00e8 07D0     		beq	.L15
  94:.\regulering.c ****             debugOut_PutString("\r\n\nvuggetilstand: C\r\n\n");
 293              		.loc 1 94 0
 294 00ea 254B     		ldr	r3, .L16+24
 295 00ec 181C     		mov	r0, r3
 296 00ee FFF7FEFF 		bl	debugOut_PutString
  95:.\regulering.c ****             mode = 3;
 297              		.loc 1 95 0
 298 00f2 1F4B     		ldr	r3, .L16+8
 299 00f4 0322     		mov	r2, #3
 300 00f6 1A70     		strb	r2, [r3]
  93:.\regulering.c ****         if(mode != 3){
 301              		.loc 1 93 0
 302 00f8 17E0     		b	.L9
 303              	.L15:
  93:.\regulering.c ****         if(mode != 3){
 304              		.loc 1 93 0 is_stmt 0 discriminator 1
 305 00fa 16E0     		b	.L9
 306              	.L14:
  96:.\regulering.c ****         }
  97:.\regulering.c ****     }
  98:.\regulering.c ****     else if((vuggefrekvens == M_FREQ) && (vuggeudsving == M_ANGLE))// Manuel vugge-niveau : 0,75 Hz
 307              		.loc 1 98 0 is_stmt 1
 308 00fc FB1D     		add	r3, r7, #7
 309 00fe 1B78     		ldrb	r3, [r3]
 310 0100 0C2B     		cmp	r3, #12
 311 0102 12D1     		bne	.L9
 312              		.loc 1 98 0 is_stmt 0 discriminator 1
 313 0104 BB1D     		add	r3, r7, #6
 314 0106 1B78     		ldrb	r3, [r3]
 315 0108 A02B     		cmp	r3, #160
 316 010a 0ED1     		bne	.L9
  99:.\regulering.c ****     {
 100:.\regulering.c ****         valid = TRUE;
 317              		.loc 1 100 0 is_stmt 1
 318 010c 3B1C     		mov	r3, r7
 319 010e 0F33     		add	r3, r3, #15
 320 0110 0122     		mov	r2, #1
 321 0112 1A70     		strb	r2, [r3]
 101:.\regulering.c ****          if(mode != 4){
 322              		.loc 1 101 0
 323 0114 164B     		ldr	r3, .L16+8
 324 0116 1B78     		ldrb	r3, [r3]
 325 0118 042B     		cmp	r3, #4
 326 011a 06D0     		beq	.L9
 102:.\regulering.c ****             debugOut_PutString("\r\n\nvuggetilstand: Manuel\r\n\n");
ARM GAS  C:\Users\Jeppe\AppData\Local\Temp\ccelfiWw.s 			page 9


 327              		.loc 1 102 0
 328 011c 194B     		ldr	r3, .L16+28
 329 011e 181C     		mov	r0, r3
 330 0120 FFF7FEFF 		bl	debugOut_PutString
 103:.\regulering.c ****             mode = 4;
 331              		.loc 1 103 0
 332 0124 124B     		ldr	r3, .L16+8
 333 0126 0422     		mov	r2, #4
 334 0128 1A70     		strb	r2, [r3]
 335              	.L9:
 104:.\regulering.c ****         }
 105:.\regulering.c ****     }
 106:.\regulering.c ****     
 107:.\regulering.c ****     if(valid)
 336              		.loc 1 107 0
 337 012a 3B1C     		mov	r3, r7
 338 012c 0F33     		add	r3, r3, #15
 339 012e 1B78     		ldrb	r3, [r3]
 340 0130 002B     		cmp	r3, #0
 341 0132 16D0     		beq	.L4
 108:.\regulering.c ****     {
 109:.\regulering.c ****         prevFrek = vuggefrekvens;
 342              		.loc 1 109 0
 343 0134 0C4B     		ldr	r3, .L16
 344 0136 FA1D     		add	r2, r7, #7
 345 0138 1278     		ldrb	r2, [r2]
 346 013a 1A70     		strb	r2, [r3]
 110:.\regulering.c ****         prevUdsving = vuggeudsving;
 347              		.loc 1 110 0
 348 013c 0B4B     		ldr	r3, .L16+4
 349 013e BA1D     		add	r2, r7, #6
 350 0140 1278     		ldrb	r2, [r2]
 351 0142 1A70     		strb	r2, [r3]
 111:.\regulering.c ****         /* peak peak value of desired sine in 16.16 fp is calculated as:                    *
 112:.\regulering.c ****          * vuggeUdsving * 20 * 2^16                                                         *
 113:.\regulering.c ****          * to account for i2c scale, and 16.16 scale respectively                           */
 114:.\regulering.c ****         sineA = vuggeudsving * 3277;
 352              		.loc 1 114 0
 353 0144 BB1D     		add	r3, r7, #6
 354 0146 1B78     		ldrb	r3, [r3]
 355 0148 0F4A     		ldr	r2, .L16+32
 356 014a 5A43     		mul	r2, r3
 357 014c 0F4B     		ldr	r3, .L16+36
 358 014e 1A60     		str	r2, [r3]
 115:.\regulering.c ****         
 116:.\regulering.c ****         /* The incement of the angle per loop iteration is given by following formula:  *
 117:.\regulering.c ****          * angleInc = ((f_i2c*100)/loop_freq)*2^16 which becomes 2^15 * f_i2c           *
 118:.\regulering.c ****          * when loop freq = 200. f_i2c is the frequency read from the i2c reg not the   *
 119:.\regulering.c ****          * i2c frequency itself.                                                        */
 120:.\regulering.c ****         angleInc = vuggefrekvens * 18;
 359              		.loc 1 120 0
 360 0150 FB1D     		add	r3, r7, #7
 361 0152 1A78     		ldrb	r2, [r3]
 362 0154 131C     		mov	r3, r2
 363 0156 DB00     		lsl	r3, r3, #3
 364 0158 9B18     		add	r3, r3, r2
 365 015a 5B00     		lsl	r3, r3, #1
ARM GAS  C:\Users\Jeppe\AppData\Local\Temp\ccelfiWw.s 			page 10


 366 015c 1A1C     		mov	r2, r3
 367 015e 0C4B     		ldr	r3, .L16+40
 368 0160 1A60     		str	r2, [r3]
 369              	.L4:
 121:.\regulering.c ****     }
 122:.\regulering.c **** 
 123:.\regulering.c **** }
 370              		.loc 1 123 0
 371 0162 BD46     		mov	sp, r7
 372 0164 04B0     		add	sp, sp, #16
 373              		@ sp needed
 374 0166 80BD     		pop	{r7, pc}
 375              	.L17:
 376              		.align	2
 377              	.L16:
 378 0168 00000000 		.word	prevFrek
 379 016c 00000000 		.word	prevUdsving
 380 0170 00000000 		.word	mode
 381 0174 00000000 		.word	.LC12
 382 0178 18000000 		.word	.LC14
 383 017c 30000000 		.word	.LC16
 384 0180 48000000 		.word	.LC18
 385 0184 60000000 		.word	.LC20
 386 0188 CD0C0000 		.word	3277
 387 018c 00000000 		.word	sineA
 388 0190 00000000 		.word	angleInc
 389              		.cfi_endproc
 390              	.LFE34:
 391              		.size	updateRegParameter, .-updateRegParameter
 392              		.section	.text.beregnRegulering,"ax",%progbits
 393              		.align	2
 394              		.global	beregnRegulering
 395              		.code	16
 396              		.thumb_func
 397              		.type	beregnRegulering, %function
 398              	beregnRegulering:
 399              	.LFB35:
 124:.\regulering.c **** 
 125:.\regulering.c **** 
 126:.\regulering.c **** /* Function Name: beregnRegulering
 127:.\regulering.c ****    Summary:
 128:.\regulering.c ****     Calculates a proportional regulator
 129:.\regulering.c **** */
 130:.\regulering.c **** fix16_t beregnRegulering(fix16_t currentAngle)
 131:.\regulering.c **** {
 400              		.loc 1 131 0
 401              		.cfi_startproc
 402 0000 90B5     		push	{r4, r7, lr}
 403              		.cfi_def_cfa_offset 12
 404              		.cfi_offset 4, -12
 405              		.cfi_offset 7, -8
 406              		.cfi_offset 14, -4
 407 0002 87B0     		sub	sp, sp, #28
 408              		.cfi_def_cfa_offset 40
 409 0004 00AF     		add	r7, sp, #0
 410              		.cfi_def_cfa_register 7
 411 0006 7860     		str	r0, [r7, #4]
ARM GAS  C:\Users\Jeppe\AppData\Local\Temp\ccelfiWw.s 			page 11


 132:.\regulering.c ****     //update sine time
 133:.\regulering.c ****     if(pwmSineAngle_ >= FIXED_HALF_PI)
 412              		.loc 1 133 0
 413 0008 394B     		ldr	r3, .L24
 414 000a 1A68     		ldr	r2, [r3]
 415 000c 394B     		ldr	r3, .L24+4
 416 000e 9A42     		cmp	r2, r3
 417 0010 03DD     		ble	.L19
 134:.\regulering.c ****     {
 135:.\regulering.c ****         going_up_ = FALSE;
 418              		.loc 1 135 0
 419 0012 394B     		ldr	r3, .L24+8
 420 0014 0022     		mov	r2, #0
 421 0016 1A70     		strb	r2, [r3]
 422 0018 07E0     		b	.L20
 423              	.L19:
 136:.\regulering.c ****     } 
 137:.\regulering.c ****     else if (pwmSineAngle_ <= -FIXED_HALF_PI)
 424              		.loc 1 137 0
 425 001a 354B     		ldr	r3, .L24
 426 001c 1A68     		ldr	r2, [r3]
 427 001e 374B     		ldr	r3, .L24+12
 428 0020 9A42     		cmp	r2, r3
 429 0022 02DA     		bge	.L20
 138:.\regulering.c ****     {
 139:.\regulering.c ****         going_up_ = TRUE;
 430              		.loc 1 139 0
 431 0024 344B     		ldr	r3, .L24+8
 432 0026 0122     		mov	r2, #1
 433 0028 1A70     		strb	r2, [r3]
 434              	.L20:
 140:.\regulering.c ****     }
 141:.\regulering.c ****     if(going_up_)  pwmSineAngle_ += angleInc;
 435              		.loc 1 141 0
 436 002a 334B     		ldr	r3, .L24+8
 437 002c 1B78     		ldrb	r3, [r3]
 438 002e 002B     		cmp	r3, #0
 439 0030 07D0     		beq	.L21
 440              		.loc 1 141 0 is_stmt 0 discriminator 1
 441 0032 2F4B     		ldr	r3, .L24
 442 0034 1A68     		ldr	r2, [r3]
 443 0036 324B     		ldr	r3, .L24+16
 444 0038 1B68     		ldr	r3, [r3]
 445 003a D218     		add	r2, r2, r3
 446 003c 2C4B     		ldr	r3, .L24
 447 003e 1A60     		str	r2, [r3]
 448 0040 06E0     		b	.L22
 449              	.L21:
 142:.\regulering.c ****     else          pwmSineAngle_ -= angleInc;
 450              		.loc 1 142 0 is_stmt 1
 451 0042 2B4B     		ldr	r3, .L24
 452 0044 1A68     		ldr	r2, [r3]
 453 0046 2E4B     		ldr	r3, .L24+16
 454 0048 1B68     		ldr	r3, [r3]
 455 004a D21A     		sub	r2, r2, r3
 456 004c 284B     		ldr	r3, .L24
 457 004e 1A60     		str	r2, [r3]
ARM GAS  C:\Users\Jeppe\AppData\Local\Temp\ccelfiWw.s 			page 12


 458              	.L22:
 143:.\regulering.c ****     
 144:.\regulering.c ****     //calculate desired angle:
 145:.\regulering.c ****     fix16_t R = fix16mul(sineA, fix16sin(pwmSineAngle_));
 459              		.loc 1 145 0
 460 0050 2C4B     		ldr	r3, .L24+20
 461 0052 1C68     		ldr	r4, [r3]
 462 0054 264B     		ldr	r3, .L24
 463 0056 1B68     		ldr	r3, [r3]
 464 0058 181C     		mov	r0, r3
 465 005a FFF7FEFF 		bl	fix16sin
 466 005e 031C     		mov	r3, r0
 467 0060 201C     		mov	r0, r4
 468 0062 191C     		mov	r1, r3
 469 0064 FFF7FEFF 		bl	fix16mul
 470 0068 031C     		mov	r3, r0
 471 006a 7B61     		str	r3, [r7, #20]
 146:.\regulering.c ****     fix16_t e = R - currentAngle;
 472              		.loc 1 146 0
 473 006c 7A69     		ldr	r2, [r7, #20]
 474 006e 7B68     		ldr	r3, [r7, #4]
 475 0070 D31A     		sub	r3, r2, r3
 476 0072 3B61     		str	r3, [r7, #16]
 147:.\regulering.c ****     fix16_t d = fix16div((e - prev_e), 328); // Derivetive (dt = 5ms)
 477              		.loc 1 147 0
 478 0074 244B     		ldr	r3, .L24+24
 479 0076 1B68     		ldr	r3, [r3]
 480 0078 3A69     		ldr	r2, [r7, #16]
 481 007a D21A     		sub	r2, r2, r3
 482 007c A423     		mov	r3, #164
 483 007e 5B00     		lsl	r3, r3, #1
 484 0080 101C     		mov	r0, r2
 485 0082 191C     		mov	r1, r3
 486 0084 FFF7FEFF 		bl	fix16div
 487 0088 031C     		mov	r3, r0
 488 008a FB60     		str	r3, [r7, #12]
 148:.\regulering.c ****     i_e += fix16mul(e, 328);
 489              		.loc 1 148 0
 490 008c 3A69     		ldr	r2, [r7, #16]
 491 008e A423     		mov	r3, #164
 492 0090 5B00     		lsl	r3, r3, #1
 493 0092 101C     		mov	r0, r2
 494 0094 191C     		mov	r1, r3
 495 0096 FFF7FEFF 		bl	fix16mul
 496 009a 021C     		mov	r2, r0
 497 009c 1B4B     		ldr	r3, .L24+28
 498 009e 1B68     		ldr	r3, [r3]
 499 00a0 D218     		add	r2, r2, r3
 500 00a2 1A4B     		ldr	r3, .L24+28
 501 00a4 1A60     		str	r2, [r3]
 149:.\regulering.c ****     
 150:.\regulering.c ****     fix16_t C = fix16mul(K_P, e) + fix16mul(K_D, d) + fix16mul(K_I, i_e);
 502              		.loc 1 150 0
 503 00a6 F023     		mov	r3, #240
 504 00a8 DA02     		lsl	r2, r3, #11
 505 00aa 3B69     		ldr	r3, [r7, #16]
 506 00ac 101C     		mov	r0, r2
ARM GAS  C:\Users\Jeppe\AppData\Local\Temp\ccelfiWw.s 			page 13


 507 00ae 191C     		mov	r1, r3
 508 00b0 FFF7FEFF 		bl	fix16mul
 509 00b4 041C     		mov	r4, r0
 510 00b6 C023     		mov	r3, #192
 511 00b8 5A01     		lsl	r2, r3, #5
 512 00ba FB68     		ldr	r3, [r7, #12]
 513 00bc 101C     		mov	r0, r2
 514 00be 191C     		mov	r1, r3
 515 00c0 FFF7FEFF 		bl	fix16mul
 516 00c4 031C     		mov	r3, r0
 517 00c6 E418     		add	r4, r4, r3
 518 00c8 104B     		ldr	r3, .L24+28
 519 00ca 1B68     		ldr	r3, [r3]
 520 00cc 8022     		mov	r2, #128
 521 00ce 5202     		lsl	r2, r2, #9
 522 00d0 101C     		mov	r0, r2
 523 00d2 191C     		mov	r1, r3
 524 00d4 FFF7FEFF 		bl	fix16mul
 525 00d8 031C     		mov	r3, r0
 526 00da E318     		add	r3, r4, r3
 527 00dc BB60     		str	r3, [r7, #8]
 151:.\regulering.c ****     
 152:.\regulering.c ****     prev_e = e;
 528              		.loc 1 152 0
 529 00de 0A4B     		ldr	r3, .L24+24
 530 00e0 3A69     		ldr	r2, [r7, #16]
 531 00e2 1A60     		str	r2, [r3]
 153:.\regulering.c ****     
 154:.\regulering.c ****     return C;
 532              		.loc 1 154 0
 533 00e4 BB68     		ldr	r3, [r7, #8]
 155:.\regulering.c ****     // Sæt evt regulerings status her - ERR = 0b10000000(128_dec 80_hex) , STALL 0b11000000(192_de
 156:.\regulering.c **** }
 534              		.loc 1 156 0
 535 00e6 181C     		mov	r0, r3
 536 00e8 BD46     		mov	sp, r7
 537 00ea 07B0     		add	sp, sp, #28
 538              		@ sp needed
 539 00ec 90BD     		pop	{r4, r7, pc}
 540              	.L25:
 541 00ee C046     		.align	2
 542              	.L24:
 543 00f0 00000000 		.word	pwmSineAngle_
 544 00f4 1F920100 		.word	102943
 545 00f8 00000000 		.word	going_up_
 546 00fc E16DFEFF 		.word	-102943
 547 0100 00000000 		.word	angleInc
 548 0104 00000000 		.word	sineA
 549 0108 00000000 		.word	prev_e
 550 010c 00000000 		.word	i_e
 551              		.cfi_endproc
 552              	.LFE35:
 553              		.size	beregnRegulering, .-beregnRegulering
 554              		.section	.text.PWMStyring,"ax",%progbits
 555              		.align	2
 556              		.global	PWMStyring
 557              		.code	16
ARM GAS  C:\Users\Jeppe\AppData\Local\Temp\ccelfiWw.s 			page 14


 558              		.thumb_func
 559              		.type	PWMStyring, %function
 560              	PWMStyring:
 561              	.LFB36:
 157:.\regulering.c **** 
 158:.\regulering.c **** /* Function Name: PWMStyring
 159:.\regulering.c ****    Summary:
 160:.\regulering.c ****      Controls the PWM module with parameter intensity
 161:.\regulering.c **** */
 162:.\regulering.c **** void PWMStyring(fix16_t intensity)
 163:.\regulering.c **** {
 562              		.loc 1 163 0
 563              		.cfi_startproc
 564 0000 80B5     		push	{r7, lr}
 565              		.cfi_def_cfa_offset 8
 566              		.cfi_offset 7, -8
 567              		.cfi_offset 14, -4
 568 0002 84B0     		sub	sp, sp, #16
 569              		.cfi_def_cfa_offset 24
 570 0004 00AF     		add	r7, sp, #0
 571              		.cfi_def_cfa_register 7
 572 0006 7860     		str	r0, [r7, #4]
 164:.\regulering.c ****     uint8 offset = 0;
 573              		.loc 1 164 0
 574 0008 3B1C     		mov	r3, r7
 575 000a 0F33     		add	r3, r3, #15
 576 000c 0022     		mov	r2, #0
 577 000e 1A70     		strb	r2, [r3]
 165:.\regulering.c ****     if(intensity < 0) offset = -hysterese;
 578              		.loc 1 165 0
 579 0010 7B68     		ldr	r3, [r7, #4]
 580 0012 002B     		cmp	r3, #0
 581 0014 04DA     		bge	.L27
 582              		.loc 1 165 0 is_stmt 0 discriminator 1
 583 0016 3B1C     		mov	r3, r7
 584 0018 0F33     		add	r3, r3, #15
 585 001a F622     		mov	r2, #246
 586 001c 1A70     		strb	r2, [r3]
 587 001e 06E0     		b	.L28
 588              	.L27:
 166:.\regulering.c ****     else if(intensity > 0) offset = hysterese;
 589              		.loc 1 166 0 is_stmt 1
 590 0020 7B68     		ldr	r3, [r7, #4]
 591 0022 002B     		cmp	r3, #0
 592 0024 03DD     		ble	.L28
 593              		.loc 1 166 0 is_stmt 0 discriminator 1
 594 0026 3B1C     		mov	r3, r7
 595 0028 0F33     		add	r3, r3, #15
 596 002a 0A22     		mov	r2, #10
 597 002c 1A70     		strb	r2, [r3]
 598              	.L28:
 167:.\regulering.c ****     intensity /= 2;
 599              		.loc 1 167 0 is_stmt 1
 600 002e 7B68     		ldr	r3, [r7, #4]
 601 0030 002B     		cmp	r3, #0
 602 0032 00DA     		bge	.L29
 603 0034 0133     		add	r3, r3, #1
ARM GAS  C:\Users\Jeppe\AppData\Local\Temp\ccelfiWw.s 			page 15


 604              	.L29:
 605 0036 5B10     		asr	r3, r3, #1
 606 0038 7B60     		str	r3, [r7, #4]
 168:.\regulering.c ****     intensity += 6553600;
 607              		.loc 1 168 0
 608 003a 7B68     		ldr	r3, [r7, #4]
 609 003c C822     		mov	r2, #200
 610 003e D203     		lsl	r2, r2, #15
 611 0040 9B18     		add	r3, r3, r2
 612 0042 7B60     		str	r3, [r7, #4]
 169:.\regulering.c ****     uint8_t comp;
 170:.\regulering.c ****     if(intensity > 0) comp = (intensity >> 16) + offset;
 613              		.loc 1 170 0
 614 0044 7B68     		ldr	r3, [r7, #4]
 615 0046 002B     		cmp	r3, #0
 616 0048 09DD     		ble	.L30
 617              		.loc 1 170 0 is_stmt 0 discriminator 1
 618 004a 7B68     		ldr	r3, [r7, #4]
 619 004c 1B14     		asr	r3, r3, #16
 620 004e D9B2     		uxtb	r1, r3
 621 0050 3B1C     		mov	r3, r7
 622 0052 0E33     		add	r3, r3, #14
 623 0054 3A1C     		mov	r2, r7
 624 0056 0F32     		add	r2, r2, #15
 625 0058 1278     		ldrb	r2, [r2]
 626 005a 8A18     		add	r2, r1, r2
 627 005c 1A70     		strb	r2, [r3]
 628              	.L30:
 171:.\regulering.c **** //    if(intensity > 6553600) intensity = 6553600;
 172:.\regulering.c **** //    else if (intensity < -6553600) intensity = -6553600;
 173:.\regulering.c **** //    
 174:.\regulering.c **** //    uint8_t comp = (fix16mul(intensity, 52429)+6553600)>>16;
 175:.\regulering.c ****     PWM_WriteCompare(comp);
 629              		.loc 1 175 0 is_stmt 1
 630 005e 3B1C     		mov	r3, r7
 631 0060 0E33     		add	r3, r3, #14
 632 0062 1B78     		ldrb	r3, [r3]
 633 0064 181C     		mov	r0, r3
 634 0066 FFF7FEFF 		bl	PWM_WriteCompare
 176:.\regulering.c **** }
 635              		.loc 1 176 0
 636 006a BD46     		mov	sp, r7
 637 006c 04B0     		add	sp, sp, #16
 638              		@ sp needed
 639 006e 80BD     		pop	{r7, pc}
 640              		.cfi_endproc
 641              	.LFE36:
 642              		.size	PWMStyring, .-PWMStyring
 643              		.section	.text.getReguleringsStatus,"ax",%progbits
 644              		.align	2
 645              		.global	getReguleringsStatus
 646              		.code	16
 647              		.thumb_func
 648              		.type	getReguleringsStatus, %function
 649              	getReguleringsStatus:
 650              	.LFB37:
 177:.\regulering.c **** 
ARM GAS  C:\Users\Jeppe\AppData\Local\Temp\ccelfiWw.s 			page 16


 178:.\regulering.c **** 
 179:.\regulering.c **** /* Function Name: getReguleringsStatus
 180:.\regulering.c ****    Summary:
 181:.\regulering.c ****     Returns pointer to reguleringsStatus_
 182:.\regulering.c **** */
 183:.\regulering.c **** int* getReguleringsStatus()
 184:.\regulering.c **** {
 651              		.loc 1 184 0
 652              		.cfi_startproc
 653 0000 80B5     		push	{r7, lr}
 654              		.cfi_def_cfa_offset 8
 655              		.cfi_offset 7, -8
 656              		.cfi_offset 14, -4
 657 0002 82B0     		sub	sp, sp, #8
 658              		.cfi_def_cfa_offset 16
 659 0004 00AF     		add	r7, sp, #0
 660              		.cfi_def_cfa_register 7
 185:.\regulering.c ****     int* reguleringStatPtr = &reguleringsStatus_;
 661              		.loc 1 185 0
 662 0006 034B     		ldr	r3, .L33
 663 0008 7B60     		str	r3, [r7, #4]
 186:.\regulering.c ****     return reguleringStatPtr;
 664              		.loc 1 186 0
 665 000a 7B68     		ldr	r3, [r7, #4]
 187:.\regulering.c **** }
 666              		.loc 1 187 0
 667 000c 181C     		mov	r0, r3
 668 000e BD46     		mov	sp, r7
 669 0010 02B0     		add	sp, sp, #8
 670              		@ sp needed
 671 0012 80BD     		pop	{r7, pc}
 672              	.L34:
 673              		.align	2
 674              	.L33:
 675 0014 00000000 		.word	reguleringsStatus_
 676              		.cfi_endproc
 677              	.LFE37:
 678              		.size	getReguleringsStatus, .-getReguleringsStatus
 679              		.text
 680              	.Letext0:
 681              		.file 2 "c:\\program files (x86)\\cypress\\psoc creator\\3.1\\psoc creator\\import\\gnu_cs\\arm\\4
 682              		.file 3 "c:\\program files (x86)\\cypress\\psoc creator\\3.1\\psoc creator\\import\\gnu_cs\\arm\\4
 683              		.file 4 ".\\Generated_Source\\PSoC4/cytypes.h"
 684              		.file 5 ".\\globals.h"
 685              		.file 6 ".\\fixedMath.h"
 686              		.file 7 ".\\regulering.h"